Archive member included to satisfy reference by file (symbol)

/opt/gcc-arm-none-eabi-6-2017-q2-update/bin/../lib/gcc/arm-none-eabi/6.3.1/../../../../arm-none-eabi/lib/thumb/v7e-m/fpv4-sp/hard/libc_nano.a(lib_a-atoi.o)
                              build/finsh_token.o (atoi)
/opt/gcc-arm-none-eabi-6-2017-q2-update/bin/../lib/gcc/arm-none-eabi/6.3.1/../../../../arm-none-eabi/lib/thumb/v7e-m/fpv4-sp/hard/libc_nano.a(lib_a-exit.o)
                              /opt/gcc-arm-none-eabi-6-2017-q2-update/bin/../lib/gcc/arm-none-eabi/6.3.1/../../../../arm-none-eabi/lib/thumb/v7e-m/fpv4-sp/hard/crt0.o (exit)
/opt/gcc-arm-none-eabi-6-2017-q2-update/bin/../lib/gcc/arm-none-eabi/6.3.1/../../../../arm-none-eabi/lib/thumb/v7e-m/fpv4-sp/hard/libc_nano.a(lib_a-impure.o)
                              /opt/gcc-arm-none-eabi-6-2017-q2-update/bin/../lib/gcc/arm-none-eabi/6.3.1/../../../../arm-none-eabi/lib/thumb/v7e-m/fpv4-sp/hard/libc_nano.a(lib_a-exit.o) (_global_impure_ptr)
/opt/gcc-arm-none-eabi-6-2017-q2-update/bin/../lib/gcc/arm-none-eabi/6.3.1/../../../../arm-none-eabi/lib/thumb/v7e-m/fpv4-sp/hard/libc_nano.a(lib_a-init.o)
                              /opt/gcc-arm-none-eabi-6-2017-q2-update/bin/../lib/gcc/arm-none-eabi/6.3.1/../../../../arm-none-eabi/lib/thumb/v7e-m/fpv4-sp/hard/crt0.o (__libc_init_array)
/opt/gcc-arm-none-eabi-6-2017-q2-update/bin/../lib/gcc/arm-none-eabi/6.3.1/../../../../arm-none-eabi/lib/thumb/v7e-m/fpv4-sp/hard/libc_nano.a(lib_a-memcmp.o)
                              build/shell.o (memcmp)
/opt/gcc-arm-none-eabi-6-2017-q2-update/bin/../lib/gcc/arm-none-eabi/6.3.1/../../../../arm-none-eabi/lib/thumb/v7e-m/fpv4-sp/hard/libc_nano.a(lib_a-memcpy-stub.o)
                              build/ringbuffer.o (memcpy)
/opt/gcc-arm-none-eabi-6-2017-q2-update/bin/../lib/gcc/arm-none-eabi/6.3.1/../../../../arm-none-eabi/lib/thumb/v7e-m/fpv4-sp/hard/libc_nano.a(lib_a-memset.o)
                              /opt/gcc-arm-none-eabi-6-2017-q2-update/bin/../lib/gcc/arm-none-eabi/6.3.1/../../../../arm-none-eabi/lib/thumb/v7e-m/fpv4-sp/hard/crt0.o (memset)
/opt/gcc-arm-none-eabi-6-2017-q2-update/bin/../lib/gcc/arm-none-eabi/6.3.1/../../../../arm-none-eabi/lib/thumb/v7e-m/fpv4-sp/hard/libc_nano.a(lib_a-strcmp.o)
                              build/finsh_token.o (strcmp)
/opt/gcc-arm-none-eabi-6-2017-q2-update/bin/../lib/gcc/arm-none-eabi/6.3.1/../../../../arm-none-eabi/lib/thumb/v7e-m/fpv4-sp/hard/libc_nano.a(lib_a-strcpy.o)
                              build/shell.o (strcpy)
/opt/gcc-arm-none-eabi-6-2017-q2-update/bin/../lib/gcc/arm-none-eabi/6.3.1/../../../../arm-none-eabi/lib/thumb/v7e-m/fpv4-sp/hard/libc_nano.a(lib_a-strlen.o)
                              build/finsh_node.o (strlen)
/opt/gcc-arm-none-eabi-6-2017-q2-update/bin/../lib/gcc/arm-none-eabi/6.3.1/../../../../arm-none-eabi/lib/thumb/v7e-m/fpv4-sp/hard/libc_nano.a(lib_a-strncmp.o)
                              build/cmd.o (strncmp)
/opt/gcc-arm-none-eabi-6-2017-q2-update/bin/../lib/gcc/arm-none-eabi/6.3.1/../../../../arm-none-eabi/lib/thumb/v7e-m/fpv4-sp/hard/libc_nano.a(lib_a-strncpy.o)
                              build/finsh_node.o (strncpy)
/opt/gcc-arm-none-eabi-6-2017-q2-update/bin/../lib/gcc/arm-none-eabi/6.3.1/../../../../arm-none-eabi/lib/thumb/v7e-m/fpv4-sp/hard/libc_nano.a(lib_a-strtol.o)
                              /opt/gcc-arm-none-eabi-6-2017-q2-update/bin/../lib/gcc/arm-none-eabi/6.3.1/../../../../arm-none-eabi/lib/thumb/v7e-m/fpv4-sp/hard/libc_nano.a(lib_a-atoi.o) (_strtol_r)
/opt/gcc-arm-none-eabi-6-2017-q2-update/bin/../lib/gcc/arm-none-eabi/6.3.1/../../../../arm-none-eabi/lib/thumb/v7e-m/fpv4-sp/hard/libc_nano.a(lib_a-locale.o)
                              /opt/gcc-arm-none-eabi-6-2017-q2-update/bin/../lib/gcc/arm-none-eabi/6.3.1/../../../../arm-none-eabi/lib/thumb/v7e-m/fpv4-sp/hard/libc_nano.a(lib_a-strtol.o) (__locale_ctype_ptr_l)
/opt/gcc-arm-none-eabi-6-2017-q2-update/bin/../lib/gcc/arm-none-eabi/6.3.1/../../../../arm-none-eabi/lib/thumb/v7e-m/fpv4-sp/hard/libc_nano.a(lib_a-mbtowc_r.o)
                              /opt/gcc-arm-none-eabi-6-2017-q2-update/bin/../lib/gcc/arm-none-eabi/6.3.1/../../../../arm-none-eabi/lib/thumb/v7e-m/fpv4-sp/hard/libc_nano.a(lib_a-locale.o) (__ascii_mbtowc)
/opt/gcc-arm-none-eabi-6-2017-q2-update/bin/../lib/gcc/arm-none-eabi/6.3.1/../../../../arm-none-eabi/lib/thumb/v7e-m/fpv4-sp/hard/libc_nano.a(lib_a-wctomb_r.o)
                              /opt/gcc-arm-none-eabi-6-2017-q2-update/bin/../lib/gcc/arm-none-eabi/6.3.1/../../../../arm-none-eabi/lib/thumb/v7e-m/fpv4-sp/hard/libc_nano.a(lib_a-locale.o) (__ascii_wctomb)
/opt/gcc-arm-none-eabi-6-2017-q2-update/bin/../lib/gcc/arm-none-eabi/6.3.1/../../../../arm-none-eabi/lib/thumb/v7e-m/fpv4-sp/hard/libc_nano.a(lib_a-ctype_.o)
                              /opt/gcc-arm-none-eabi-6-2017-q2-update/bin/../lib/gcc/arm-none-eabi/6.3.1/../../../../arm-none-eabi/lib/thumb/v7e-m/fpv4-sp/hard/libc_nano.a(lib_a-locale.o) (_ctype_)
/opt/gcc-arm-none-eabi-6-2017-q2-update/bin/../lib/gcc/arm-none-eabi/6.3.1/../../../../arm-none-eabi/lib/thumb/v7e-m/fpv4-sp/hard/libnosys.a(_exit.o)
                              /opt/gcc-arm-none-eabi-6-2017-q2-update/bin/../lib/gcc/arm-none-eabi/6.3.1/../../../../arm-none-eabi/lib/thumb/v7e-m/fpv4-sp/hard/libc_nano.a(lib_a-exit.o) (_exit)
/opt/gcc-arm-none-eabi-6-2017-q2-update/bin/../lib/gcc/arm-none-eabi/6.3.1/thumb/v7e-m/fpv4-sp/hard/libgcc.a(_aeabi_uldivmod.o)
                              build/drv_pwm.o (__aeabi_uldivmod)
/opt/gcc-arm-none-eabi-6-2017-q2-update/bin/../lib/gcc/arm-none-eabi/6.3.1/thumb/v7e-m/fpv4-sp/hard/libgcc.a(_udivmoddi4.o)
                              /opt/gcc-arm-none-eabi-6-2017-q2-update/bin/../lib/gcc/arm-none-eabi/6.3.1/thumb/v7e-m/fpv4-sp/hard/libgcc.a(_aeabi_uldivmod.o) (__udivmoddi4)
/opt/gcc-arm-none-eabi-6-2017-q2-update/bin/../lib/gcc/arm-none-eabi/6.3.1/thumb/v7e-m/fpv4-sp/hard/libgcc.a(_dvmd_tls.o)
                              /opt/gcc-arm-none-eabi-6-2017-q2-update/bin/../lib/gcc/arm-none-eabi/6.3.1/thumb/v7e-m/fpv4-sp/hard/libgcc.a(_aeabi_uldivmod.o) (__aeabi_ldiv0)

Allocating common symbols
Common symbol       size              file

decode              0xc               build/main.o
rt_interrupt_to_thread
                    0x4               build/cpuport.o
rt_interrupt_from_thread
                    0x4               build/cpuport.o
global_sysvar_list  0x4               build/finsh_var.o
finsh_heap          0x80              build/finsh_heap.o
player              0x40              build/main.o
shell               0x4               build/shell.o
rt_thread_switch_interrupt_flag
                    0x4               build/cpuport.o
text_segment        0x80              build/finsh_vm.o
uwTick              0x4               build/stm32f4xx_hal.o
pFlash              0x20              build/stm32f4xx_hal_flash.o
finsh_compile_pc    0x4               build/finsh_compiler.o
finsh_vm_stack      0x100             build/finsh_vm.o
global_errno        0x1               build/finsh_error.o
rt_thread_priority_table
                    0x100             build/scheduler.o
rt_object_put_hook  0x4               build/object.o
rt_current_priority
                    0x1               build/scheduler.o
audio               0x14              build/main.o
rt_object_take_hook
                    0x4               build/object.o
rt_current_thread   0x4               build/scheduler.o
lcddev              0xe               build/ili9341.o
rt_thread_ready_priority_group
                    0x4               build/scheduler.o
rt_thread_defunct   0x8               build/scheduler.o
global_node_table   0x140             build/finsh_node.o
finsh_compile_sp    0x4               build/finsh_compiler.o
finsh_pc            0x4               build/finsh_vm.o
SRAM_Handler        0x50              build/ili9341.o
rt_object_trytake_hook
                    0x4               build/object.o
finsh_sp            0x4               build/finsh_vm.o
global_variable     0xc0              build/finsh_var.o

Discarded input sections

 .text          0x0000000000000000        0x0 /opt/gcc-arm-none-eabi-6-2017-q2-update/bin/../lib/gcc/arm-none-eabi/6.3.1/thumb/v7e-m/fpv4-sp/hard/crti.o
 .data          0x0000000000000000        0x0 /opt/gcc-arm-none-eabi-6-2017-q2-update/bin/../lib/gcc/arm-none-eabi/6.3.1/thumb/v7e-m/fpv4-sp/hard/crti.o
 .bss           0x0000000000000000        0x0 /opt/gcc-arm-none-eabi-6-2017-q2-update/bin/../lib/gcc/arm-none-eabi/6.3.1/thumb/v7e-m/fpv4-sp/hard/crti.o
 .data          0x0000000000000000        0x4 /opt/gcc-arm-none-eabi-6-2017-q2-update/bin/../lib/gcc/arm-none-eabi/6.3.1/thumb/v7e-m/fpv4-sp/hard/crtbegin.o
 .fini_array    0x0000000000000000        0x4 /opt/gcc-arm-none-eabi-6-2017-q2-update/bin/../lib/gcc/arm-none-eabi/6.3.1/thumb/v7e-m/fpv4-sp/hard/crtbegin.o
 .text          0x0000000000000000       0x74 /opt/gcc-arm-none-eabi-6-2017-q2-update/bin/../lib/gcc/arm-none-eabi/6.3.1/../../../../arm-none-eabi/lib/thumb/v7e-m/fpv4-sp/hard/crt0.o
 .data          0x0000000000000000        0x0 /opt/gcc-arm-none-eabi-6-2017-q2-update/bin/../lib/gcc/arm-none-eabi/6.3.1/../../../../arm-none-eabi/lib/thumb/v7e-m/fpv4-sp/hard/crt0.o
 .bss           0x0000000000000000        0x0 /opt/gcc-arm-none-eabi-6-2017-q2-update/bin/../lib/gcc/arm-none-eabi/6.3.1/../../../../arm-none-eabi/lib/thumb/v7e-m/fpv4-sp/hard/crt0.o
 .ARM.extab     0x0000000000000000        0x0 /opt/gcc-arm-none-eabi-6-2017-q2-update/bin/../lib/gcc/arm-none-eabi/6.3.1/../../../../arm-none-eabi/lib/thumb/v7e-m/fpv4-sp/hard/crt0.o
 .ARM.exidx     0x0000000000000000        0x8 /opt/gcc-arm-none-eabi-6-2017-q2-update/bin/../lib/gcc/arm-none-eabi/6.3.1/../../../../arm-none-eabi/lib/thumb/v7e-m/fpv4-sp/hard/crt0.o
 .ARM.attributes
                0x0000000000000000       0x20 /opt/gcc-arm-none-eabi-6-2017-q2-update/bin/../lib/gcc/arm-none-eabi/6.3.1/../../../../arm-none-eabi/lib/thumb/v7e-m/fpv4-sp/hard/crt0.o
 .text          0x0000000000000000        0x0 build/board.o
 .data          0x0000000000000000        0x0 build/board.o
 .bss           0x0000000000000000        0x0 build/board.o
 .text          0x0000000000000000        0x0 build/beep.o
 .data          0x0000000000000000        0x0 build/beep.o
 .bss           0x0000000000000000        0x0 build/beep.o
 .text          0x0000000000000000        0x0 build/button.o
 .data          0x0000000000000000        0x0 build/button.o
 .bss           0x0000000000000000        0x0 build/button.o
 .text          0x0000000000000000        0x0 build/decode.o
 .data          0x0000000000000000        0x0 build/decode.o
 .bss           0x0000000000000000        0x0 build/decode.o
 .text          0x0000000000000000        0x0 build/key.o
 .data          0x0000000000000000        0x0 build/key.o
 .bss           0x0000000000000000        0x0 build/key.o
 .text          0x0000000000000000        0x0 build/font.o
 .data          0x0000000000000000        0x0 build/font.o
 .bss           0x0000000000000000        0x0 build/font.o
 .text          0x0000000000000000        0x0 build/ili9341.o
 .data          0x0000000000000000        0x0 build/ili9341.o
 .bss           0x0000000000000000        0x0 build/ili9341.o
 .text.LCD_ReadReg
                0x0000000000000000       0x12 build/ili9341.o
 .text.LCD_WriteRAM
                0x0000000000000000        0xc build/ili9341.o
 .text.LCD_BGR2RGB
                0x0000000000000000       0x12 build/ili9341.o
 .text.opt_delay
                0x0000000000000000        0xe build/ili9341.o
 .text.LCD_DisplayOn
                0x0000000000000000        0xa build/ili9341.o
 .text.LCD_DisplayOff
                0x0000000000000000        0xa build/ili9341.o
 .text.LCD_ReadPoint
                0x0000000000000000       0x4c build/ili9341.o
 .text.LCD_DrawPoint
                0x0000000000000000       0x1c build/ili9341.o
 .text.LCD_Set_Window
                0x0000000000000000       0x64 build/ili9341.o
 .text.LCD_Fill
                0x0000000000000000       0x44 build/ili9341.o
 .text.LCD_Color_Fill
                0x0000000000000000       0x58 build/ili9341.o
 .text.LCD_DrawLine
                0x0000000000000000       0x9e build/ili9341.o
 .text.LCD_DrawRectangle
                0x0000000000000000       0x36 build/ili9341.o
 .text.LCD_Draw_Circle
                0x0000000000000000       0xc0 build/ili9341.o
 .text.LCD_ShowNum
                0x0000000000000000       0x90 build/ili9341.o
 .text          0x0000000000000000        0x0 build/led.o
 .data          0x0000000000000000        0x0 build/led.o
 .bss           0x0000000000000000        0x0 build/led.o
 .text          0x0000000000000000        0x0 build/pcf8574.o
 .data          0x0000000000000000        0x0 build/pcf8574.o
 .bss           0x0000000000000000        0x0 build/pcf8574.o
 .text          0x0000000000000000        0x0 build/pcf8574_sample.o
 .data          0x0000000000000000        0x0 build/pcf8574_sample.o
 .bss           0x0000000000000000        0x0 build/pcf8574_sample.o
 .text          0x0000000000000000        0x0 build/player.o
 .data          0x0000000000000000        0x0 build/player.o
 .bss           0x0000000000000000        0x0 build/player.o
 .text          0x0000000000000000        0x0 build/serial.o
 .data          0x0000000000000000        0x0 build/serial.o
 .bss           0x0000000000000000        0x0 build/serial.o
 .text          0x0000000000000000        0x0 build/completion.o
 .data          0x0000000000000000        0x0 build/completion.o
 .bss           0x0000000000000000        0x0 build/completion.o
 .text          0x0000000000000000        0x0 build/dataqueue.o
 .data          0x0000000000000000        0x0 build/dataqueue.o
 .bss           0x0000000000000000        0x0 build/dataqueue.o
 .text.rt_data_queue_reset
                0x0000000000000000       0x5e build/dataqueue.o
 .text          0x0000000000000000        0x0 build/pipe.o
 .data          0x0000000000000000        0x0 build/pipe.o
 .bss           0x0000000000000000        0x0 build/pipe.o
 .text.rt_pipe_control
                0x0000000000000000        0x4 build/pipe.o
 .text.rt_pipe_open
                0x0000000000000000       0x32 build/pipe.o
 .text.rt_pipe_close
                0x0000000000000000       0x36 build/pipe.o
 .text.rt_pipe_read
                0x0000000000000000       0x52 build/pipe.o
 .text.rt_pipe_write
                0x0000000000000000       0x52 build/pipe.o
 .text.rt_pipe_create
                0x0000000000000000       0x6c build/pipe.o
 .text.rt_pipe_delete
                0x0000000000000000       0x48 build/pipe.o
 .rodata.pipe_ops
                0x0000000000000000       0x18 build/pipe.o
 .debug_info    0x0000000000000000     0x1850 build/pipe.o
 .debug_abbrev  0x0000000000000000      0x32f build/pipe.o
 .debug_loc     0x0000000000000000      0x763 build/pipe.o
 .debug_aranges
                0x0000000000000000       0x50 build/pipe.o
 .debug_ranges  0x0000000000000000       0x58 build/pipe.o
 .debug_line    0x0000000000000000      0x36a build/pipe.o
 .debug_str     0x0000000000000000      0xd2b build/pipe.o
 .comment       0x0000000000000000       0x80 build/pipe.o
 .debug_frame   0x0000000000000000      0x104 build/pipe.o
 .ARM.attributes
                0x0000000000000000       0x39 build/pipe.o
 .text          0x0000000000000000        0x0 build/ringblk_buf.o
 .data          0x0000000000000000        0x0 build/ringblk_buf.o
 .bss           0x0000000000000000        0x0 build/ringblk_buf.o
 .text.find_empty_blk_in_set
                0x0000000000000000       0x26 build/ringblk_buf.o
 .text.rt_rbb_init
                0x0000000000000000       0x28 build/ringblk_buf.o
 .text.rt_rbb_create
                0x0000000000000000       0x56 build/ringblk_buf.o
 .text.rt_rbb_destroy
                0x0000000000000000       0x18 build/ringblk_buf.o
 .text.rt_rbb_blk_alloc
                0x0000000000000000      0x152 build/ringblk_buf.o
 .text.rt_rbb_blk_put
                0x0000000000000000        0x6 build/ringblk_buf.o
 .text.rt_rbb_blk_get
                0x0000000000000000       0x36 build/ringblk_buf.o
 .text.rt_rbb_blk_size
                0x0000000000000000        0x6 build/ringblk_buf.o
 .text.rt_rbb_blk_buf
                0x0000000000000000        0x4 build/ringblk_buf.o
 .text.rt_rbb_blk_free
                0x0000000000000000       0x2e build/ringblk_buf.o
 .text.rt_rbb_blk_queue_get
                0x0000000000000000       0x9c build/ringblk_buf.o
 .text.rt_rbb_blk_queue_len
                0x0000000000000000       0x24 build/ringblk_buf.o
 .text.rt_rbb_blk_queue_buf
                0x0000000000000000        0x6 build/ringblk_buf.o
 .text.rt_rbb_blk_queue_free
                0x0000000000000000       0x24 build/ringblk_buf.o
 .text.rt_rbb_next_blk_queue_len
                0x0000000000000000       0x52 build/ringblk_buf.o
 .text.rt_rbb_get_buf_size
                0x0000000000000000        0x4 build/ringblk_buf.o
 .debug_info    0x0000000000000000     0x16ac build/ringblk_buf.o
 .debug_abbrev  0x0000000000000000      0x3df build/ringblk_buf.o
 .debug_loc     0x0000000000000000      0xd33 build/ringblk_buf.o
 .debug_aranges
                0x0000000000000000       0x98 build/ringblk_buf.o
 .debug_ranges  0x0000000000000000       0x88 build/ringblk_buf.o
 .debug_line    0x0000000000000000      0x4d6 build/ringblk_buf.o
 .debug_str     0x0000000000000000      0x9c1 build/ringblk_buf.o
 .comment       0x0000000000000000       0x80 build/ringblk_buf.o
 .debug_frame   0x0000000000000000      0x1d0 build/ringblk_buf.o
 .ARM.attributes
                0x0000000000000000       0x39 build/ringblk_buf.o
 .text          0x0000000000000000        0x0 build/ringbuffer.o
 .data          0x0000000000000000        0x0 build/ringbuffer.o
 .bss           0x0000000000000000        0x0 build/ringbuffer.o
 .text.rt_ringbuffer_init
                0x0000000000000000       0x26 build/ringbuffer.o
 .text.rt_ringbuffer_putchar_force
                0x0000000000000000       0x9a build/ringbuffer.o
 .text.rt_ringbuffer_data_len
                0x0000000000000000       0x72 build/ringbuffer.o
 .text.rt_ringbuffer_put
                0x0000000000000000       0xa0 build/ringbuffer.o
 .text.rt_ringbuffer_put_force
                0x0000000000000000       0xd4 build/ringbuffer.o
 .text.rt_ringbuffer_get
                0x0000000000000000       0x8e build/ringbuffer.o
 .text.rt_ringbuffer_putchar
                0x0000000000000000       0x5a build/ringbuffer.o
 .text.rt_ringbuffer_getchar
                0x0000000000000000       0x56 build/ringbuffer.o
 .text.rt_ringbuffer_reset
                0x0000000000000000       0x22 build/ringbuffer.o
 .text.rt_ringbuffer_create
                0x0000000000000000       0x32 build/ringbuffer.o
 .text.rt_ringbuffer_destroy
                0x0000000000000000       0x12 build/ringbuffer.o
 .debug_info    0x0000000000000000      0xff1 build/ringbuffer.o
 .debug_abbrev  0x0000000000000000      0x38b build/ringbuffer.o
 .debug_loc     0x0000000000000000      0x5ab build/ringbuffer.o
 .debug_aranges
                0x0000000000000000       0x70 build/ringbuffer.o
 .debug_ranges  0x0000000000000000       0x98 build/ringbuffer.o
 .debug_line    0x0000000000000000      0x355 build/ringbuffer.o
 .debug_str     0x0000000000000000      0x84c build/ringbuffer.o
 .comment       0x0000000000000000       0x80 build/ringbuffer.o
 .debug_frame   0x0000000000000000      0x164 build/ringbuffer.o
 .ARM.attributes
                0x0000000000000000       0x39 build/ringbuffer.o
 .text          0x0000000000000000        0x0 build/waitqueue.o
 .data          0x0000000000000000        0x0 build/waitqueue.o
 .bss           0x0000000000000000        0x0 build/waitqueue.o
 .text.__wqueue_default_wake
                0x0000000000000000        0x4 build/waitqueue.o
 .text.rt_wqueue_add
                0x0000000000000000       0x20 build/waitqueue.o
 .text.rt_wqueue_remove
                0x0000000000000000       0x20 build/waitqueue.o
 .text.rt_wqueue_wakeup
                0x0000000000000000       0x58 build/waitqueue.o
 .text.rt_wqueue_wait
                0x0000000000000000       0x98 build/waitqueue.o
 .debug_info    0x0000000000000000     0x1282 build/waitqueue.o
 .debug_abbrev  0x0000000000000000      0x2ef build/waitqueue.o
 .debug_loc     0x0000000000000000      0x39a build/waitqueue.o
 .debug_aranges
                0x0000000000000000       0x40 build/waitqueue.o
 .debug_ranges  0x0000000000000000       0x30 build/waitqueue.o
 .debug_line    0x0000000000000000      0x2c0 build/waitqueue.o
 .debug_str     0x0000000000000000      0x98c build/waitqueue.o
 .comment       0x0000000000000000       0x80 build/waitqueue.o
 .debug_frame   0x0000000000000000       0xb4 build/waitqueue.o
 .ARM.attributes
                0x0000000000000000       0x39 build/waitqueue.o
 .text          0x0000000000000000        0x0 build/workqueue.o
 .data          0x0000000000000000        0x0 build/workqueue.o
 .bss           0x0000000000000000        0x0 build/workqueue.o
 .text._workqueue_cancel_work
                0x0000000000000000       0x3a build/workqueue.o
 .text._workqueue_thread_entry
                0x0000000000000000       0x74 build/workqueue.o
 .text._workqueue_submit_work
                0x0000000000000000       0x70 build/workqueue.o
 .text._delayed_work_timeout_handler
                0x0000000000000000       0x3a build/workqueue.o
 .text._workqueue_cancel_delayed_work
                0x0000000000000000       0x6e build/workqueue.o
 .text._workqueue_submit_delayed_work
                0x0000000000000000       0x84 build/workqueue.o
 .text.rt_workqueue_create
                0x0000000000000000       0x58 build/workqueue.o
 .text.rt_workqueue_destroy
                0x0000000000000000       0x14 build/workqueue.o
 .text.rt_workqueue_dowork
                0x0000000000000000        0x8 build/workqueue.o
 .text.rt_workqueue_submit_work
                0x0000000000000000       0x24 build/workqueue.o
 .text.rt_workqueue_critical_work
                0x0000000000000000       0x56 build/workqueue.o
 .text.rt_workqueue_cancel_work
                0x0000000000000000       0x18 build/workqueue.o
 .text.rt_workqueue_cancel_work_sync
                0x0000000000000000       0x42 build/workqueue.o
 .text.rt_workqueue_cancel_all_work
                0x0000000000000000       0x2a build/workqueue.o
 .text.rt_delayed_work_init
                0x0000000000000000       0x12 build/workqueue.o
 .rodata._workqueue_submit_delayed_work.str1.4
                0x0000000000000000        0x5 build/workqueue.o
 .rodata.rt_workqueue_create.str1.4
                0x0000000000000000        0x7 build/workqueue.o
 .debug_info    0x0000000000000000     0x1a99 build/workqueue.o
 .debug_abbrev  0x0000000000000000      0x3a6 build/workqueue.o
 .debug_loc     0x0000000000000000      0xa7d build/workqueue.o
 .debug_aranges
                0x0000000000000000       0x90 build/workqueue.o
 .debug_ranges  0x0000000000000000       0x98 build/workqueue.o
 .debug_line    0x0000000000000000      0x451 build/workqueue.o
 .debug_str     0x0000000000000000      0xbf9 build/workqueue.o
 .comment       0x0000000000000000       0x80 build/workqueue.o
 .debug_frame   0x0000000000000000      0x1e8 build/workqueue.o
 .ARM.attributes
                0x0000000000000000       0x39 build/workqueue.o
 .text          0x0000000000000000        0x0 build/cmd.o
 .data          0x0000000000000000        0x0 build/cmd.o
 .bss           0x0000000000000000        0x0 build/cmd.o
 .text          0x0000000000000000        0x0 build/finsh_compiler.o
 .data          0x0000000000000000        0x0 build/finsh_compiler.o
 .bss           0x0000000000000000        0x0 build/finsh_compiler.o
 .text.finsh_type_check
                0x0000000000000000      0x11c build/finsh_compiler.o
 .text.finsh_compile
                0x0000000000000000      0xb8c build/finsh_compiler.o
 .text.finsh_compiler_run
                0x0000000000000000       0x60 build/finsh_compiler.o
 .debug_info    0x0000000000000000     0x1167 build/finsh_compiler.o
 .debug_abbrev  0x0000000000000000      0x2d8 build/finsh_compiler.o
 .debug_loc     0x0000000000000000      0x451 build/finsh_compiler.o
 .debug_aranges
                0x0000000000000000       0x30 build/finsh_compiler.o
 .debug_ranges  0x0000000000000000       0x20 build/finsh_compiler.o
 .debug_line    0x0000000000000000      0x4f8 build/finsh_compiler.o
 .debug_str     0x0000000000000000      0x962 build/finsh_compiler.o
 .comment       0x0000000000000000       0x80 build/finsh_compiler.o
 .debug_frame   0x0000000000000000       0x94 build/finsh_compiler.o
 .ARM.attributes
                0x0000000000000000       0x39 build/finsh_compiler.o
 COMMON         0x0000000000000000        0x8 build/finsh_compiler.o
 .text          0x0000000000000000        0x0 build/finsh_error.o
 .data          0x0000000000000000        0x0 build/finsh_error.o
 .bss           0x0000000000000000        0x0 build/finsh_error.o
 .text.finsh_error_init
                0x0000000000000000        0xc build/finsh_error.o
 .text.finsh_error_set
                0x0000000000000000        0xc build/finsh_error.o
 .text.finsh_errno
                0x0000000000000000        0xc build/finsh_error.o
 .text.finsh_error_string
                0x0000000000000000        0xc build/finsh_error.o
 .rodata.finsh_error_string_table
                0x0000000000000000       0x3c build/finsh_error.o
 .rodata.str1.4
                0x0000000000000000       0xf2 build/finsh_error.o
 .debug_info    0x0000000000000000      0xc30 build/finsh_error.o
 .debug_abbrev  0x0000000000000000      0x1e6 build/finsh_error.o
 .debug_loc     0x0000000000000000       0x43 build/finsh_error.o
 .debug_aranges
                0x0000000000000000       0x38 build/finsh_error.o
 .debug_ranges  0x0000000000000000       0x28 build/finsh_error.o
 .debug_line    0x0000000000000000      0x231 build/finsh_error.o
 .debug_str     0x0000000000000000      0x743 build/finsh_error.o
 .comment       0x0000000000000000       0x80 build/finsh_error.o
 .debug_frame   0x0000000000000000       0x50 build/finsh_error.o
 .ARM.attributes
                0x0000000000000000       0x39 build/finsh_error.o
 COMMON         0x0000000000000000        0x1 build/finsh_error.o
 .text          0x0000000000000000        0x0 build/finsh_heap.o
 .data          0x0000000000000000        0x0 build/finsh_heap.o
 .bss           0x0000000000000000        0x0 build/finsh_heap.o
 .text.finsh_block_insert
                0x0000000000000000       0x2a build/finsh_heap.o
 .text.finsh_block_remove
                0x0000000000000000       0x24 build/finsh_heap.o
 .text.finsh_block_split
                0x0000000000000000       0x1e build/finsh_heap.o
 .text.finsh_block_merge
                0x0000000000000000       0x72 build/finsh_heap.o
 .text.finsh_heap_init
                0x0000000000000000       0x2c build/finsh_heap.o
 .text.finsh_heap_free
                0x0000000000000000       0x2c build/finsh_heap.o
 .text.finsh_heap_gc
                0x0000000000000000       0x50 build/finsh_heap.o
 .text.finsh_heap_allocate
                0x0000000000000000       0x74 build/finsh_heap.o
 .bss.allocate_list
                0x0000000000000000        0x4 build/finsh_heap.o
 .bss.free_list
                0x0000000000000000        0x4 build/finsh_heap.o
 .debug_info    0x0000000000000000     0x1001 build/finsh_heap.o
 .debug_abbrev  0x0000000000000000      0x2b6 build/finsh_heap.o
 .debug_loc     0x0000000000000000      0x305 build/finsh_heap.o
 .debug_aranges
                0x0000000000000000       0x58 build/finsh_heap.o
 .debug_ranges  0x0000000000000000       0x48 build/finsh_heap.o
 .debug_line    0x0000000000000000      0x33f build/finsh_heap.o
 .debug_str     0x0000000000000000      0x949 build/finsh_heap.o
 .comment       0x0000000000000000       0x80 build/finsh_heap.o
 .debug_frame   0x0000000000000000       0xec build/finsh_heap.o
 .ARM.attributes
                0x0000000000000000       0x39 build/finsh_heap.o
 COMMON         0x0000000000000000       0x80 build/finsh_heap.o
 .text          0x0000000000000000        0x0 build/finsh_init.o
 .data          0x0000000000000000        0x0 build/finsh_init.o
 .bss           0x0000000000000000        0x0 build/finsh_init.o
 .text.finsh_init
                0x0000000000000000       0x1a build/finsh_init.o
 .text.finsh_stack_bottom
                0x0000000000000000        0xc build/finsh_init.o
 .text.finsh_flush
                0x0000000000000000       0x12 build/finsh_init.o
 .text.finsh_reset
                0x0000000000000000       0x16 build/finsh_init.o
 .debug_info    0x0000000000000000      0xfcd build/finsh_init.o
 .debug_abbrev  0x0000000000000000      0x218 build/finsh_init.o
 .debug_loc     0x0000000000000000       0xc3 build/finsh_init.o
 .debug_aranges
                0x0000000000000000       0x38 build/finsh_init.o
 .debug_ranges  0x0000000000000000       0x28 build/finsh_init.o
 .debug_line    0x0000000000000000      0x29a build/finsh_init.o
 .debug_str     0x0000000000000000      0x881 build/finsh_init.o
 .comment       0x0000000000000000       0x80 build/finsh_init.o
 .debug_frame   0x0000000000000000       0x74 build/finsh_init.o
 .ARM.attributes
                0x0000000000000000       0x39 build/finsh_init.o
 .text          0x0000000000000000        0x0 build/finsh_node.o
 .data          0x0000000000000000        0x0 build/finsh_node.o
 .bss           0x0000000000000000        0x0 build/finsh_node.o
 .text.finsh_node_init
                0x0000000000000000       0x18 build/finsh_node.o
 .text.finsh_node_allocate
                0x0000000000000000       0x38 build/finsh_node.o
 .text.finsh_node_new_id
                0x0000000000000000       0x6a build/finsh_node.o
 .text.finsh_node_new_char
                0x0000000000000000       0x1c build/finsh_node.o
 .text.finsh_node_new_int
                0x0000000000000000       0x1c build/finsh_node.o
 .text.finsh_node_new_long
                0x0000000000000000       0x1c build/finsh_node.o
 .text.finsh_node_new_string
                0x0000000000000000       0x46 build/finsh_node.o
 .text.finsh_node_new_ptr
                0x0000000000000000       0x1c build/finsh_node.o
 .debug_info    0x0000000000000000     0x10f2 build/finsh_node.o
 .debug_abbrev  0x0000000000000000      0x246 build/finsh_node.o
 .debug_loc     0x0000000000000000      0x48b build/finsh_node.o
 .debug_aranges
                0x0000000000000000       0x58 build/finsh_node.o
 .debug_ranges  0x0000000000000000       0x48 build/finsh_node.o
 .debug_line    0x0000000000000000      0x314 build/finsh_node.o
 .debug_str     0x0000000000000000      0x888 build/finsh_node.o
 .comment       0x0000000000000000       0x80 build/finsh_node.o
 .debug_frame   0x0000000000000000      0x10c build/finsh_node.o
 .ARM.attributes
                0x0000000000000000       0x39 build/finsh_node.o
 COMMON         0x0000000000000000      0x140 build/finsh_node.o
 .text          0x0000000000000000        0x0 build/finsh_ops.o
 .data          0x0000000000000000        0x0 build/finsh_ops.o
 .bss           0x0000000000000000        0x0 build/finsh_ops.o
 .text.OP_no_op
                0x0000000000000000        0x2 build/finsh_ops.o
 .text.OP_add_byte
                0x0000000000000000       0x20 build/finsh_ops.o
 .text.OP_add_word
                0x0000000000000000       0x20 build/finsh_ops.o
 .text.OP_add_dword
                0x0000000000000000       0x20 build/finsh_ops.o
 .text.OP_sub_byte
                0x0000000000000000       0x20 build/finsh_ops.o
 .text.OP_sub_word
                0x0000000000000000       0x20 build/finsh_ops.o
 .text.OP_sub_dword
                0x0000000000000000       0x20 build/finsh_ops.o
 .text.OP_div_byte
                0x0000000000000000       0x20 build/finsh_ops.o
 .text.OP_div_word
                0x0000000000000000       0x20 build/finsh_ops.o
 .text.OP_div_dword
                0x0000000000000000       0x20 build/finsh_ops.o
 .text.OP_mod_byte
                0x0000000000000000       0x2c build/finsh_ops.o
 .text.OP_mod_word
                0x0000000000000000       0x2c build/finsh_ops.o
 .text.OP_mod_dword
                0x0000000000000000       0x2c build/finsh_ops.o
 .text.OP_mul_byte
                0x0000000000000000       0x20 build/finsh_ops.o
 .text.OP_mul_word
                0x0000000000000000       0x20 build/finsh_ops.o
 .text.OP_mul_dword
                0x0000000000000000       0x20 build/finsh_ops.o
 .text.OP_and_byte
                0x0000000000000000       0x20 build/finsh_ops.o
 .text.OP_and_word
                0x0000000000000000       0x20 build/finsh_ops.o
 .text.OP_and_dword
                0x0000000000000000       0x20 build/finsh_ops.o
 .text.OP_or_byte
                0x0000000000000000       0x20 build/finsh_ops.o
 .text.OP_or_word
                0x0000000000000000       0x20 build/finsh_ops.o
 .text.OP_or_dword
                0x0000000000000000       0x20 build/finsh_ops.o
 .text.OP_xor_byte
                0x0000000000000000       0x20 build/finsh_ops.o
 .text.OP_xor_word
                0x0000000000000000       0x20 build/finsh_ops.o
 .text.OP_xor_dword
                0x0000000000000000       0x20 build/finsh_ops.o
 .text.OP_bw_byte
                0x0000000000000000       0x14 build/finsh_ops.o
 .text.OP_bw_word
                0x0000000000000000       0x14 build/finsh_ops.o
 .text.OP_bw_dword
                0x0000000000000000       0x14 build/finsh_ops.o
 .text.OP_shl_byte
                0x0000000000000000       0x20 build/finsh_ops.o
 .text.OP_shl_word
                0x0000000000000000       0x20 build/finsh_ops.o
 .text.OP_shl_dword
                0x0000000000000000       0x20 build/finsh_ops.o
 .text.OP_shr_byte
                0x0000000000000000       0x20 build/finsh_ops.o
 .text.OP_shr_word
                0x0000000000000000       0x20 build/finsh_ops.o
 .text.OP_shr_dword
                0x0000000000000000       0x20 build/finsh_ops.o
 .text.OP_ld_byte
                0x0000000000000000       0x24 build/finsh_ops.o
 .text.OP_ld_word
                0x0000000000000000       0x30 build/finsh_ops.o
 .text.OP_ld_dword
                0x0000000000000000       0x38 build/finsh_ops.o
 .text.OP_ld_value_byte
                0x0000000000000000       0x38 build/finsh_ops.o
 .text.OP_ld_value_byte_stack
                0x0000000000000000       0x14 build/finsh_ops.o
 .text.OP_ld_value_word
                0x0000000000000000       0x38 build/finsh_ops.o
 .text.OP_ld_value_word_stack
                0x0000000000000000       0x18 build/finsh_ops.o
 .text.OP_ld_value_dword
                0x0000000000000000       0x38 build/finsh_ops.o
 .text.OP_ld_value_dword_stack
                0x0000000000000000       0x14 build/finsh_ops.o
 .text.OP_st_byte
                0x0000000000000000       0x1c build/finsh_ops.o
 .text.OP_st_word
                0x0000000000000000       0x1c build/finsh_ops.o
 .text.OP_st_dword
                0x0000000000000000       0x1c build/finsh_ops.o
 .text.OP_pop   0x0000000000000000       0x10 build/finsh_ops.o
 .text.OP_call  0x0000000000000000      0x27c build/finsh_ops.o
 .rodata.op_table
                0x0000000000000000       0xc4 build/finsh_ops.o
 .debug_info    0x0000000000000000     0x16c2 build/finsh_ops.o
 .debug_abbrev  0x0000000000000000      0x2a3 build/finsh_ops.o
 .debug_loc     0x0000000000000000      0x421 build/finsh_ops.o
 .debug_aranges
                0x0000000000000000      0x198 build/finsh_ops.o
 .debug_ranges  0x0000000000000000      0x188 build/finsh_ops.o
 .debug_line    0x0000000000000000      0x5b7 build/finsh_ops.o
 .debug_str     0x0000000000000000      0xa01 build/finsh_ops.o
 .comment       0x0000000000000000       0x80 build/finsh_ops.o
 .debug_frame   0x0000000000000000      0x36c build/finsh_ops.o
 .ARM.attributes
                0x0000000000000000       0x39 build/finsh_ops.o
 .text          0x0000000000000000        0x0 build/finsh_parser.o
 .data          0x0000000000000000        0x0 build/finsh_parser.o
 .bss           0x0000000000000000        0x0 build/finsh_parser.o
 .text.proc_type
                0x0000000000000000       0xc2 build/finsh_parser.o
 .text.proc_identifier
                0x0000000000000000       0x2a build/finsh_parser.o
 .text.make_sys_node
                0x0000000000000000       0x20 build/finsh_parser.o
 .text.proc_assign_expr
                0x0000000000000000       0x30 build/finsh_parser.o
 .text.proc_expr
                0x0000000000000000        0x8 build/finsh_parser.o
 .text.proc_primary_expr
                0x0000000000000000       0xae build/finsh_parser.o
 .text.proc_expr_statement
                0x0000000000000000       0x38 build/finsh_parser.o
 .text.proc_param_list
                0x0000000000000000       0x48 build/finsh_parser.o
 .text.proc_postfix_expr
                0x0000000000000000       0x90 build/finsh_parser.o
 .text.proc_unary_expr
                0x0000000000000000       0xa8 build/finsh_parser.o
 .text.proc_cast_expr
                0x0000000000000000       0x4c build/finsh_parser.o
 .text.proc_multiplicative_expr
                0x0000000000000000       0x7c build/finsh_parser.o
 .text.proc_additive_expr
                0x0000000000000000       0x68 build/finsh_parser.o
 .text.proc_shift_expr
                0x0000000000000000       0x6a build/finsh_parser.o
 .text.proc_and_expr
                0x0000000000000000       0x44 build/finsh_parser.o
 .text.proc_exclusive_or_expr
                0x0000000000000000       0x44 build/finsh_parser.o
 .text.proc_inclusive_or_expr
                0x0000000000000000       0x44 build/finsh_parser.o
 .text.proc_variable_decl
                0x0000000000000000      0x1de build/finsh_parser.o
 .text.finsh_parser_run
                0x0000000000000000       0xba build/finsh_parser.o
 .text.finsh_parser_init
                0x0000000000000000        0xe build/finsh_parser.o
 .debug_info    0x0000000000000000     0x23e1 build/finsh_parser.o
 .debug_abbrev  0x0000000000000000      0x327 build/finsh_parser.o
 .debug_loc     0x0000000000000000     0x121a build/finsh_parser.o
 .debug_aranges
                0x0000000000000000       0xb8 build/finsh_parser.o
 .debug_ranges  0x0000000000000000       0xd8 build/finsh_parser.o
 .debug_line    0x0000000000000000      0x5a3 build/finsh_parser.o
 .debug_str     0x0000000000000000      0xe96 build/finsh_parser.o
 .comment       0x0000000000000000       0x80 build/finsh_parser.o
 .debug_frame   0x0000000000000000      0x2d0 build/finsh_parser.o
 .ARM.attributes
                0x0000000000000000       0x39 build/finsh_parser.o
 .text          0x0000000000000000        0x0 build/finsh_token.o
 .data          0x0000000000000000        0x0 build/finsh_token.o
 .bss           0x0000000000000000        0x0 build/finsh_token.o
 .text.token_prev_char
                0x0000000000000000        0xe build/finsh_token.o
 .text.token_spec_number
                0x0000000000000000       0x84 build/finsh_token.o
 .text.token_match_name
                0x0000000000000000       0x34 build/finsh_token.o
 .text.token_next_char
                0x0000000000000000       0x36 build/finsh_token.o
 .text.token_trim_space
                0x0000000000000000       0x1e build/finsh_token.o
 .text.token_proc_escape
                0x0000000000000000       0xfe build/finsh_token.o
 .text.token_proc_string
                0x0000000000000000       0x48 build/finsh_token.o
 .text.token_proc_number
                0x0000000000000000      0x120 build/finsh_token.o
 .text.token_proc_char
                0x0000000000000000       0x92 build/finsh_token.o
 .text.finsh_token_init
                0x0000000000000000       0x14 build/finsh_token.o
 .text.finsh_token_get_token
                0x0000000000000000       0x10 build/finsh_token.o
 .text.token_get_string
                0x0000000000000000       0x6e build/finsh_token.o
 .text.token_run
                0x0000000000000000      0x1b2 build/finsh_token.o
 .text.finsh_token_token
                0x0000000000000000       0x16 build/finsh_token.o
 .rodata.finsh_name_table
                0x0000000000000000       0x40 build/finsh_token.o
 .rodata.str1.4
                0x0000000000000000       0x3d build/finsh_token.o
 .debug_info    0x0000000000000000     0x16a8 build/finsh_token.o
 .debug_abbrev  0x0000000000000000      0x351 build/finsh_token.o
 .debug_loc     0x0000000000000000      0xaae build/finsh_token.o
 .debug_aranges
                0x0000000000000000       0x88 build/finsh_token.o
 .debug_ranges  0x0000000000000000       0xc0 build/finsh_token.o
 .debug_line    0x0000000000000000      0x4e4 build/finsh_token.o
 .debug_str     0x0000000000000000      0xbb1 build/finsh_token.o
 .comment       0x0000000000000000       0x80 build/finsh_token.o
 .debug_frame   0x0000000000000000      0x1dc build/finsh_token.o
 .ARM.attributes
                0x0000000000000000       0x39 build/finsh_token.o
 .text          0x0000000000000000        0x0 build/finsh_var.o
 .data          0x0000000000000000        0x0 build/finsh_var.o
 .bss           0x0000000000000000        0x0 build/finsh_var.o
 .text.finsh_var_init
                0x0000000000000000       0x14 build/finsh_var.o
 .text.finsh_var_insert
                0x0000000000000000       0x6c build/finsh_var.o
 .text.finsh_var_delete
                0x0000000000000000       0x4c build/finsh_var.o
 .text.finsh_var_lookup
                0x0000000000000000       0x3c build/finsh_var.o
 .text.finsh_sysvar_append
                0x0000000000000000       0x3c build/finsh_var.o
 .text.finsh_sysvar_lookup
                0x0000000000000000       0x4c build/finsh_var.o
 .debug_info    0x0000000000000000      0xf96 build/finsh_var.o
 .debug_abbrev  0x0000000000000000      0x26e build/finsh_var.o
 .debug_loc     0x0000000000000000      0x30f build/finsh_var.o
 .debug_aranges
                0x0000000000000000       0x48 build/finsh_var.o
 .debug_ranges  0x0000000000000000       0x38 build/finsh_var.o
 .debug_line    0x0000000000000000      0x2ea build/finsh_var.o
 .debug_str     0x0000000000000000      0x8eb build/finsh_var.o
 .comment       0x0000000000000000       0x80 build/finsh_var.o
 .debug_frame   0x0000000000000000       0xdc build/finsh_var.o
 .ARM.attributes
                0x0000000000000000       0x39 build/finsh_var.o
 COMMON         0x0000000000000000       0xc4 build/finsh_var.o
 .text          0x0000000000000000        0x0 build/finsh_vm.o
 .data          0x0000000000000000        0x0 build/finsh_vm.o
 .bss           0x0000000000000000        0x0 build/finsh_vm.o
 .text.finsh_vm_run
                0x0000000000000000       0x44 build/finsh_vm.o
 .text.finsh_syscall_append
                0x0000000000000000       0x38 build/finsh_vm.o
 .text.finsh_syscall_lookup
                0x0000000000000000       0x4c build/finsh_vm.o
 .bss.global_syscall_list
                0x0000000000000000        0x4 build/finsh_vm.o
 .debug_info    0x0000000000000000      0xe7e build/finsh_vm.o
 .debug_abbrev  0x0000000000000000      0x27b build/finsh_vm.o
 .debug_loc     0x0000000000000000      0x159 build/finsh_vm.o
 .debug_aranges
                0x0000000000000000       0x30 build/finsh_vm.o
 .debug_ranges  0x0000000000000000       0x20 build/finsh_vm.o
 .debug_line    0x0000000000000000      0x29c build/finsh_vm.o
 .debug_str     0x0000000000000000      0x7dd build/finsh_vm.o
 .comment       0x0000000000000000       0x80 build/finsh_vm.o
 .debug_frame   0x0000000000000000       0x6c build/finsh_vm.o
 .ARM.attributes
                0x0000000000000000       0x39 build/finsh_vm.o
 COMMON         0x0000000000000000      0x188 build/finsh_vm.o
 .text          0x0000000000000000        0x0 build/msh.o
 .data          0x0000000000000000        0x0 build/msh.o
 .bss           0x0000000000000000        0x0 build/msh.o
 .text          0x0000000000000000        0x0 build/msh_file.o
 .data          0x0000000000000000        0x0 build/msh_file.o
 .bss           0x0000000000000000        0x0 build/msh_file.o
 .debug_info    0x0000000000000000      0xa48 build/msh_file.o
 .debug_abbrev  0x0000000000000000      0x17b build/msh_file.o
 .debug_aranges
                0x0000000000000000       0x18 build/msh_file.o
 .debug_line    0x0000000000000000      0x155 build/msh_file.o
 .debug_str     0x0000000000000000      0x61e build/msh_file.o
 .comment       0x0000000000000000       0x80 build/msh_file.o
 .ARM.attributes
                0x0000000000000000       0x39 build/msh_file.o
 .text          0x0000000000000000        0x0 build/shell.o
 .data          0x0000000000000000        0x0 build/shell.o
 .bss           0x0000000000000000        0x0 build/shell.o
 .text.finsh_set_prompt
                0x0000000000000000       0x38 build/shell.o
 .text.finsh_get_prompt_mode
                0x0000000000000000       0x14 build/shell.o
 .text.finsh_get_device
                0x0000000000000000       0x10 build/shell.o
 .text.finsh_set_echo
                0x0000000000000000       0x18 build/shell.o
 .text.finsh_get_echo
                0x0000000000000000       0x14 build/shell.o
 .text          0x0000000000000000        0x0 build/symbol.o
 .data          0x0000000000000000        0x0 build/symbol.o
 .bss           0x0000000000000000        0x0 build/symbol.o
 .debug_info    0x0000000000000000      0xa48 build/symbol.o
 .debug_abbrev  0x0000000000000000      0x17b build/symbol.o
 .debug_aranges
                0x0000000000000000       0x18 build/symbol.o
 .debug_line    0x0000000000000000      0x155 build/symbol.o
 .debug_str     0x0000000000000000      0x61c build/symbol.o
 .comment       0x0000000000000000       0x80 build/symbol.o
 .ARM.attributes
                0x0000000000000000       0x39 build/symbol.o
 .text          0x0000000000000000        0x0 build/cpuport.o
 .data          0x0000000000000000        0x0 build/cpuport.o
 .bss           0x0000000000000000        0x0 build/cpuport.o
 .text.rt_hw_exception_install
                0x0000000000000000        0xc build/cpuport.o
 .text.rt_hw_cpu_shutdown
                0x0000000000000000       0x10 build/cpuport.o
 .text.rt_hw_cpu_reset
                0x0000000000000000       0x10 build/cpuport.o
 .rodata.rt_hw_cpu_shutdown.str1.4
                0x0000000000000000        0xd build/cpuport.o
 .text          0x0000000000000000        0x0 build/clock.o
 .data          0x0000000000000000        0x0 build/clock.o
 .bss           0x0000000000000000        0x0 build/clock.o
 .text.rt_system_tick_init
                0x0000000000000000        0x2 build/clock.o
 .text.rt_tick_set
                0x0000000000000000       0x18 build/clock.o
 .text          0x0000000000000000        0x0 build/components.o
 .data          0x0000000000000000        0x0 build/components.o
 .bss           0x0000000000000000        0x0 build/components.o
 .text          0x0000000000000000        0x0 build/cpu.o
 .data          0x0000000000000000        0x0 build/cpu.o
 .bss           0x0000000000000000        0x0 build/cpu.o
 .debug_info    0x0000000000000000      0xa48 build/cpu.o
 .debug_abbrev  0x0000000000000000      0x17b build/cpu.o
 .debug_aranges
                0x0000000000000000       0x18 build/cpu.o
 .debug_line    0x0000000000000000      0x155 build/cpu.o
 .debug_str     0x0000000000000000      0x60c build/cpu.o
 .comment       0x0000000000000000       0x80 build/cpu.o
 .ARM.attributes
                0x0000000000000000       0x39 build/cpu.o
 .text          0x0000000000000000        0x0 build/device.o
 .data          0x0000000000000000        0x0 build/device.o
 .bss           0x0000000000000000        0x0 build/device.o
 .text.rt_device_unregister
                0x0000000000000000        0xa build/device.o
 .text.rt_device_init_all
                0x0000000000000000        0x4 build/device.o
 .text.rt_device_create
                0x0000000000000000       0x22 build/device.o
 .text.rt_device_destroy
                0x0000000000000000       0x10 build/device.o
 .text.rt_device_init
                0x0000000000000000       0x3c build/device.o
 .text.rt_device_set_tx_complete
                0x0000000000000000        0x6 build/device.o
 .text          0x0000000000000000        0x0 build/idle.o
 .data          0x0000000000000000        0x0 build/idle.o
 .bss           0x0000000000000000        0x0 build/idle.o
 .text.rt_thread_idle_sethook
                0x0000000000000000       0x34 build/idle.o
 .text.rt_thread_idle_delhook
                0x0000000000000000       0x38 build/idle.o
 .text.rt_thread_idle_gethandler
                0x0000000000000000        0x8 build/idle.o
 .text          0x0000000000000000        0x0 build/ipc.o
 .data          0x0000000000000000        0x0 build/ipc.o
 .bss           0x0000000000000000        0x0 build/ipc.o
 .text.rt_sem_detach
                0x0000000000000000       0x34 build/ipc.o
 .text.rt_sem_trytake
                0x0000000000000000        0xa build/ipc.o
 .text.rt_sem_control
                0x0000000000000000       0x50 build/ipc.o
 .text.rt_mutex_detach
                0x0000000000000000       0x34 build/ipc.o
 .text.rt_mutex_create
                0x0000000000000000       0x2c build/ipc.o
 .text.rt_mutex_delete
                0x0000000000000000       0x34 build/ipc.o
 .text.rt_mutex_control
                0x0000000000000000        0x6 build/ipc.o
 .text.rt_event_init
                0x0000000000000000       0x1e build/ipc.o
 .text.rt_event_detach
                0x0000000000000000       0x34 build/ipc.o
 .text.rt_event_create
                0x0000000000000000       0x22 build/ipc.o
 .text.rt_event_delete
                0x0000000000000000       0x34 build/ipc.o
 .text.rt_event_send
                0x0000000000000000       0xb8 build/ipc.o
 .text.rt_event_recv
                0x0000000000000000      0x15c build/ipc.o
 .text.rt_event_control
                0x0000000000000000       0x4c build/ipc.o
 .text.rt_mq_init
                0x0000000000000000       0x68 build/ipc.o
 .text.rt_mq_detach
                0x0000000000000000       0x5a build/ipc.o
 .text.rt_mq_create
                0x0000000000000000       0x7c build/ipc.o
 .text.rt_mq_delete
                0x0000000000000000       0x60 build/ipc.o
 .text.rt_mq_send_wait
                0x0000000000000000      0x188 build/ipc.o
 .text.rt_mq_send
                0x0000000000000000        0xa build/ipc.o
 .text.rt_mq_urgent
                0x0000000000000000       0x94 build/ipc.o
 .text.rt_mq_recv
                0x0000000000000000      0x19c build/ipc.o
 .text.rt_mq_control
                0x0000000000000000       0x8e build/ipc.o
 .text          0x0000000000000000        0x0 build/irq.o
 .data          0x0000000000000000        0x0 build/irq.o
 .bss           0x0000000000000000        0x0 build/irq.o
 .text.rt_interrupt_enter_sethook
                0x0000000000000000        0xc build/irq.o
 .text.rt_interrupt_leave_sethook
                0x0000000000000000        0xc build/irq.o
 .text          0x0000000000000000        0x0 build/kservice.o
 .data          0x0000000000000000        0x0 build/kservice.o
 .bss           0x0000000000000000        0x0 build/kservice.o
 .text.rt_get_errno
                0x0000000000000000       0x24 build/kservice.o
 .text._rt_errno
                0x0000000000000000       0x20 build/kservice.o
 .text.rt_memcmp
                0x0000000000000000       0x24 build/kservice.o
 .text.rt_strcasecmp
                0x0000000000000000       0x36 build/kservice.o
 .text.rt_strcmp
                0x0000000000000000       0x16 build/kservice.o
 .text.rt_strnlen
                0x0000000000000000       0x14 build/kservice.o
 .text.rt_strstr
                0x0000000000000000       0x44 build/kservice.o
 .text.rt_strdup
                0x0000000000000000       0x20 build/kservice.o
 .text.rt_snprintf
                0x0000000000000000       0x1c build/kservice.o
 .text.rt_hw_console_output
                0x0000000000000000        0x2 build/kservice.o
 .text.rt_kputs
                0x0000000000000000       0x38 build/kservice.o
 .text.rt_malloc_align
                0x0000000000000000       0x34 build/kservice.o
 .text.rt_free_align
                0x0000000000000000        0xc build/kservice.o
 .text          0x0000000000000000        0x0 build/mem.o
 .data          0x0000000000000000        0x0 build/mem.o
 .bss           0x0000000000000000        0x0 build/mem.o
 .text.rt_malloc_sethook
                0x0000000000000000        0xc build/mem.o
 .text.rt_free_sethook
                0x0000000000000000        0xc build/mem.o
 .text.rt_realloc
                0x0000000000000000       0xfc build/mem.o
 .text.rt_memory_info
                0x0000000000000000       0x28 build/mem.o
 .text          0x0000000000000000        0x0 build/memheap.o
 .data          0x0000000000000000        0x0 build/memheap.o
 .bss           0x0000000000000000        0x0 build/memheap.o
 .debug_info    0x0000000000000000      0xa48 build/memheap.o
 .debug_abbrev  0x0000000000000000      0x17b build/memheap.o
 .debug_aranges
                0x0000000000000000       0x18 build/memheap.o
 .debug_line    0x0000000000000000      0x155 build/memheap.o
 .debug_str     0x0000000000000000      0x610 build/memheap.o
 .comment       0x0000000000000000       0x80 build/memheap.o
 .ARM.attributes
                0x0000000000000000       0x39 build/memheap.o
 .text          0x0000000000000000        0x0 build/mempool.o
 .data          0x0000000000000000        0x0 build/mempool.o
 .bss           0x0000000000000000        0x0 build/mempool.o
 .debug_info    0x0000000000000000      0xa48 build/mempool.o
 .debug_abbrev  0x0000000000000000      0x17b build/mempool.o
 .debug_aranges
                0x0000000000000000       0x18 build/mempool.o
 .debug_line    0x0000000000000000      0x155 build/mempool.o
 .debug_str     0x0000000000000000      0x610 build/mempool.o
 .comment       0x0000000000000000       0x80 build/mempool.o
 .ARM.attributes
                0x0000000000000000       0x39 build/mempool.o
 .text          0x0000000000000000        0x0 build/object.o
 .data          0x0000000000000000        0x0 build/object.o
 .bss           0x0000000000000000        0x0 build/object.o
 .text.rt_object_attach_sethook
                0x0000000000000000        0xc build/object.o
 .text.rt_object_detach_sethook
                0x0000000000000000        0xc build/object.o
 .text.rt_object_trytake_sethook
                0x0000000000000000        0xc build/object.o
 .text.rt_object_take_sethook
                0x0000000000000000        0xc build/object.o
 .text.rt_object_put_sethook
                0x0000000000000000        0xc build/object.o
 .text.rt_system_object_init
                0x0000000000000000        0x2 build/object.o
 .text.rt_object_get_type
                0x0000000000000000        0x8 build/object.o
 .text.rt_object_find
                0x0000000000000000       0x4c build/object.o
 .text          0x0000000000000000        0x0 build/scheduler.o
 .data          0x0000000000000000        0x0 build/scheduler.o
 .bss           0x0000000000000000        0x0 build/scheduler.o
 .text.rt_scheduler_sethook
                0x0000000000000000        0xc build/scheduler.o
 .text.rt_critical_level
                0x0000000000000000        0xc build/scheduler.o
 .text          0x0000000000000000        0x0 build/signal.o
 .data          0x0000000000000000        0x0 build/signal.o
 .bss           0x0000000000000000        0x0 build/signal.o
 .debug_info    0x0000000000000000      0xa48 build/signal.o
 .debug_abbrev  0x0000000000000000      0x17b build/signal.o
 .debug_aranges
                0x0000000000000000       0x18 build/signal.o
 .debug_line    0x0000000000000000      0x155 build/signal.o
 .debug_str     0x0000000000000000      0x60f build/signal.o
 .comment       0x0000000000000000       0x80 build/signal.o
 .ARM.attributes
                0x0000000000000000       0x39 build/signal.o
 .text          0x0000000000000000        0x0 build/slab.o
 .data          0x0000000000000000        0x0 build/slab.o
 .bss           0x0000000000000000        0x0 build/slab.o
 .debug_info    0x0000000000000000      0xa48 build/slab.o
 .debug_abbrev  0x0000000000000000      0x17b build/slab.o
 .debug_aranges
                0x0000000000000000       0x18 build/slab.o
 .debug_line    0x0000000000000000      0x155 build/slab.o
 .debug_str     0x0000000000000000      0x60d build/slab.o
 .comment       0x0000000000000000       0x80 build/slab.o
 .ARM.attributes
                0x0000000000000000       0x39 build/slab.o
 .text          0x0000000000000000        0x0 build/thread.o
 .data          0x0000000000000000        0x0 build/thread.o
 .bss           0x0000000000000000        0x0 build/thread.o
 .text.rt_thread_suspend_sethook
                0x0000000000000000        0xc build/thread.o
 .text.rt_thread_resume_sethook
                0x0000000000000000        0xc build/thread.o
 .text.rt_thread_inited_sethook
                0x0000000000000000        0xc build/thread.o
 .text.rt_thread_detach
                0x0000000000000000       0x5c build/thread.o
 .text.rt_thread_delay_until
                0x0000000000000000       0x6c build/thread.o
 .text.rt_thread_find
                0x0000000000000000       0x50 build/thread.o
 .text          0x0000000000000000        0x0 build/timer.o
 .data          0x0000000000000000        0x0 build/timer.o
 .bss           0x0000000000000000        0x0 build/timer.o
 .text.rt_timer_list_next_timeout
                0x0000000000000000       0x10 build/timer.o
 .text.rt_timer_enter_sethook
                0x0000000000000000        0xc build/timer.o
 .text.rt_timer_exit_sethook
                0x0000000000000000        0xc build/timer.o
 .text.rt_timer_delete
                0x0000000000000000       0x38 build/timer.o
 .text.rt_timer_next_timeout_tick
                0x0000000000000000       0x10 build/timer.o
 .text          0x0000000000000000        0x0 build/delay.o
 .data          0x0000000000000000        0x0 build/delay.o
 .bss           0x0000000000000000        0x0 build/delay.o
 .text          0x0000000000000000        0x0 build/sys.o
 .data          0x0000000000000000        0x0 build/sys.o
 .bss           0x0000000000000000        0x0 build/sys.o
 .text.Stm32_Clock_Init
                0x0000000000000000       0x90 build/sys.o
 .text.WFI_SET  0x0000000000000000        0x4 build/sys.o
 .text.INTX_DISABLE
                0x0000000000000000        0x6 build/sys.o
 .text.INTX_ENABLE
                0x0000000000000000        0x6 build/sys.o
 .text.MSR_MSP  0x0000000000000000        0x8 build/sys.o
 .debug_info    0x0000000000000000      0x6b3 build/sys.o
 .debug_abbrev  0x0000000000000000      0x1e9 build/sys.o
 .debug_loc     0x0000000000000000       0xfe build/sys.o
 .debug_aranges
                0x0000000000000000       0x40 build/sys.o
 .debug_ranges  0x0000000000000000       0x30 build/sys.o
 .debug_line    0x0000000000000000      0x20e build/sys.o
 .debug_str     0x0000000000000000      0x596 build/sys.o
 .comment       0x0000000000000000       0x80 build/sys.o
 .debug_frame   0x0000000000000000       0x78 build/sys.o
 .ARM.attributes
                0x0000000000000000       0x39 build/sys.o
 .text          0x0000000000000000        0x0 build/main.o
 .data          0x0000000000000000        0x0 build/main.o
 .bss           0x0000000000000000        0x0 build/main.o
 .text          0x0000000000000000        0x0 build/stm32f4xx_hal_msp.o
 .data          0x0000000000000000        0x0 build/stm32f4xx_hal_msp.o
 .bss           0x0000000000000000        0x0 build/stm32f4xx_hal_msp.o
 .text.HAL_MspDeInit
                0x0000000000000000        0x2 build/stm32f4xx_hal_msp.o
 .text          0x0000000000000000        0x0 build/stm32f4xx_it.o
 .data          0x0000000000000000        0x0 build/stm32f4xx_it.o
 .bss           0x0000000000000000        0x0 build/stm32f4xx_it.o
 .text.Error_Handler
                0x0000000000000000        0x2 build/stm32f4xx_it.o
 .text          0x0000000000000000        0x0 build/system_stm32f4xx.o
 .data          0x0000000000000000        0x0 build/system_stm32f4xx.o
 .bss           0x0000000000000000        0x0 build/system_stm32f4xx.o
 .text.SystemCoreClockUpdate
                0x0000000000000000       0xa0 build/system_stm32f4xx.o
 .text          0x0000000000000000        0x0 build/drv_gpio.o
 .data          0x0000000000000000        0x0 build/drv_gpio.o
 .bss           0x0000000000000000        0x0 build/drv_gpio.o
 .text          0x0000000000000000        0x0 build/drv_i2c.o
 .data          0x0000000000000000        0x0 build/drv_i2c.o
 .bss           0x0000000000000000        0x0 build/drv_i2c.o
 .text          0x0000000000000000        0x0 build/drv_usart.o
 .data          0x0000000000000000        0x0 build/drv_usart.o
 .bss           0x0000000000000000        0x0 build/drv_usart.o
 .text          0x0000000000000000        0x0 build/drv_pwm.o
 .data          0x0000000000000000        0x0 build/drv_pwm.o
 .bss           0x0000000000000000        0x0 build/drv_pwm.o
 .text          0x0000000000000000        0x0 build/pin.o
 .data          0x0000000000000000        0x0 build/pin.o
 .bss           0x0000000000000000        0x0 build/pin.o
 .text.rt_pin_attach_irq
                0x0000000000000000       0x28 build/pin.o
 .text.rt_pin_detach_irq
                0x0000000000000000       0x1c build/pin.o
 .text.rt_pin_irq_enable
                0x0000000000000000       0x1c build/pin.o
 .text          0x0000000000000000        0x0 build/rt_drv_pwm.o
 .data          0x0000000000000000        0x0 build/rt_drv_pwm.o
 .bss           0x0000000000000000        0x0 build/rt_drv_pwm.o
 .text          0x0000000000000000        0x0 build/i2c-bit-ops.o
 .data          0x0000000000000000        0x0 build/i2c-bit-ops.o
 .bss           0x0000000000000000        0x0 build/i2c-bit-ops.o
 .text          0x0000000000000000        0x0 build/i2c_core.o
 .data          0x0000000000000000        0x0 build/i2c_core.o
 .bss           0x0000000000000000        0x0 build/i2c_core.o
 .text.rt_i2c_bus_device_find
                0x0000000000000000       0x1a build/i2c_core.o
 .text          0x0000000000000000        0x0 build/i2c_dev.o
 .data          0x0000000000000000        0x0 build/i2c_dev.o
 .bss           0x0000000000000000        0x0 build/i2c_dev.o
 .text          0x0000000000000000        0x0 build/stm32f4xx_hal_tim.o
 .data          0x0000000000000000        0x0 build/stm32f4xx_hal_tim.o
 .bss           0x0000000000000000        0x0 build/stm32f4xx_hal_tim.o
 .text.TIM_TI1_ConfigInputStage
                0x0000000000000000       0x26 build/stm32f4xx_hal_tim.o
 .text.TIM_TI2_SetConfig
                0x0000000000000000       0x34 build/stm32f4xx_hal_tim.o
 .text.TIM_TI2_ConfigInputStage
                0x0000000000000000       0x28 build/stm32f4xx_hal_tim.o
 .text.TIM_TI3_SetConfig
                0x0000000000000000       0x32 build/stm32f4xx_hal_tim.o
 .text.TIM_TI4_SetConfig
                0x0000000000000000       0x34 build/stm32f4xx_hal_tim.o
 .text.TIM_ITRx_SetConfig
                0x0000000000000000       0x10 build/stm32f4xx_hal_tim.o
 .text.HAL_TIM_Base_MspInit
                0x0000000000000000        0x2 build/stm32f4xx_hal_tim.o
 .text.HAL_TIM_Base_MspDeInit
                0x0000000000000000        0x2 build/stm32f4xx_hal_tim.o
 .text.HAL_TIM_Base_DeInit
                0x0000000000000000       0x3a build/stm32f4xx_hal_tim.o
 .text.HAL_TIM_Base_Start
                0x0000000000000000       0x24 build/stm32f4xx_hal_tim.o
 .text.HAL_TIM_Base_Stop
                0x0000000000000000       0x2e build/stm32f4xx_hal_tim.o
 .text.HAL_TIM_Base_Start_IT
                0x0000000000000000       0x22 build/stm32f4xx_hal_tim.o
 .text.HAL_TIM_Base_Stop_IT
                0x0000000000000000       0x2c build/stm32f4xx_hal_tim.o
 .text.HAL_TIM_Base_Start_DMA
                0x0000000000000000       0x84 build/stm32f4xx_hal_tim.o
 .text.HAL_TIM_Base_Stop_DMA
                0x0000000000000000       0x3c build/stm32f4xx_hal_tim.o
 .text.HAL_TIM_OC_MspInit
                0x0000000000000000        0x2 build/stm32f4xx_hal_tim.o
 .text.HAL_TIM_OC_MspDeInit
                0x0000000000000000        0x2 build/stm32f4xx_hal_tim.o
 .text.HAL_TIM_OC_DeInit
                0x0000000000000000       0x3a build/stm32f4xx_hal_tim.o
 .text.HAL_TIM_PWM_MspInit
                0x0000000000000000        0x2 build/stm32f4xx_hal_tim.o
 .text.HAL_TIM_PWM_MspDeInit
                0x0000000000000000        0x2 build/stm32f4xx_hal_tim.o
 .text.HAL_TIM_PWM_DeInit
                0x0000000000000000       0x3a build/stm32f4xx_hal_tim.o
 .text.HAL_TIM_IC_MspInit
                0x0000000000000000        0x2 build/stm32f4xx_hal_tim.o
 .text.HAL_TIM_IC_MspDeInit
                0x0000000000000000        0x2 build/stm32f4xx_hal_tim.o
 .text.HAL_TIM_IC_DeInit
                0x0000000000000000       0x3a build/stm32f4xx_hal_tim.o
 .text.HAL_TIM_OnePulse_MspInit
                0x0000000000000000        0x2 build/stm32f4xx_hal_tim.o
 .text.HAL_TIM_OnePulse_MspDeInit
                0x0000000000000000        0x2 build/stm32f4xx_hal_tim.o
 .text.HAL_TIM_OnePulse_DeInit
                0x0000000000000000       0x3a build/stm32f4xx_hal_tim.o
 .text.HAL_TIM_Encoder_MspInit
                0x0000000000000000        0x2 build/stm32f4xx_hal_tim.o
 .text.HAL_TIM_Encoder_MspDeInit
                0x0000000000000000        0x2 build/stm32f4xx_hal_tim.o
 .text.HAL_TIM_Encoder_DeInit
                0x0000000000000000       0x3a build/stm32f4xx_hal_tim.o
 .text.HAL_TIM_DMABurst_WriteStart
                0x0000000000000000      0x1e0 build/stm32f4xx_hal_tim.o
 .text.HAL_TIM_DMABurst_WriteStop
                0x0000000000000000       0x7a build/stm32f4xx_hal_tim.o
 .text.HAL_TIM_DMABurst_ReadStart
                0x0000000000000000      0x1e0 build/stm32f4xx_hal_tim.o
 .text.HAL_TIM_DMABurst_ReadStop
                0x0000000000000000       0x7a build/stm32f4xx_hal_tim.o
 .text.HAL_TIM_ConfigTI1Input
                0x0000000000000000       0x10 build/stm32f4xx_hal_tim.o
 .text.HAL_TIM_ReadCapturedValue
                0x0000000000000000       0x32 build/stm32f4xx_hal_tim.o
 .text.HAL_TIM_PeriodElapsedCallback
                0x0000000000000000        0x2 build/stm32f4xx_hal_tim.o
 .text.TIM_DMAPeriodElapsedCplt
                0x0000000000000000       0x10 build/stm32f4xx_hal_tim.o
 .text.HAL_TIM_PeriodElapsedHalfCpltCallback
                0x0000000000000000        0x2 build/stm32f4xx_hal_tim.o
 .text.TIM_DMAPeriodElapsedHalfCplt
                0x0000000000000000       0x10 build/stm32f4xx_hal_tim.o
 .text.HAL_TIM_OC_DelayElapsedCallback
                0x0000000000000000        0x2 build/stm32f4xx_hal_tim.o
 .text.HAL_TIM_IC_CaptureCallback
                0x0000000000000000        0x2 build/stm32f4xx_hal_tim.o
 .text.TIM_DMACaptureCplt
                0x0000000000000000       0x46 build/stm32f4xx_hal_tim.o
 .text.HAL_TIM_IC_CaptureHalfCpltCallback
                0x0000000000000000        0x2 build/stm32f4xx_hal_tim.o
 .text.TIM_DMACaptureHalfCplt
                0x0000000000000000       0x46 build/stm32f4xx_hal_tim.o
 .text.HAL_TIM_PWM_PulseFinishedCallback
                0x0000000000000000        0x2 build/stm32f4xx_hal_tim.o
 .text.TIM_DMADelayPulseCplt
                0x0000000000000000       0x46 build/stm32f4xx_hal_tim.o
 .text.HAL_TIM_PWM_PulseFinishedHalfCpltCallback
                0x0000000000000000        0x2 build/stm32f4xx_hal_tim.o
 .text.TIM_DMADelayPulseHalfCplt
                0x0000000000000000       0x46 build/stm32f4xx_hal_tim.o
 .text.HAL_TIM_TriggerCallback
                0x0000000000000000        0x2 build/stm32f4xx_hal_tim.o
 .text.HAL_TIM_IRQHandler
                0x0000000000000000      0x17a build/stm32f4xx_hal_tim.o
 .text.TIM_DMATriggerCplt
                0x0000000000000000       0x10 build/stm32f4xx_hal_tim.o
 .text.HAL_TIM_TriggerHalfCpltCallback
                0x0000000000000000        0x2 build/stm32f4xx_hal_tim.o
 .text.TIM_DMATriggerHalfCplt
                0x0000000000000000       0x10 build/stm32f4xx_hal_tim.o
 .text.HAL_TIM_ErrorCallback
                0x0000000000000000        0x2 build/stm32f4xx_hal_tim.o
 .text.TIM_DMAError
                0x0000000000000000       0x10 build/stm32f4xx_hal_tim.o
 .text.HAL_TIM_Base_GetState
                0x0000000000000000        0x6 build/stm32f4xx_hal_tim.o
 .text.HAL_TIM_OC_GetState
                0x0000000000000000        0x6 build/stm32f4xx_hal_tim.o
 .text.HAL_TIM_PWM_GetState
                0x0000000000000000        0x6 build/stm32f4xx_hal_tim.o
 .text.HAL_TIM_IC_GetState
                0x0000000000000000        0x6 build/stm32f4xx_hal_tim.o
 .text.HAL_TIM_OnePulse_GetState
                0x0000000000000000        0x6 build/stm32f4xx_hal_tim.o
 .text.HAL_TIM_Encoder_GetState
                0x0000000000000000        0x6 build/stm32f4xx_hal_tim.o
 .text.HAL_TIM_Base_Init
                0x0000000000000000       0x32 build/stm32f4xx_hal_tim.o
 .text.HAL_TIM_OC_Init
                0x0000000000000000       0x32 build/stm32f4xx_hal_tim.o
 .text.HAL_TIM_IC_Init
                0x0000000000000000       0x32 build/stm32f4xx_hal_tim.o
 .text.HAL_TIM_OnePulse_Init
                0x0000000000000000       0x46 build/stm32f4xx_hal_tim.o
 .text.HAL_TIM_Encoder_Init
                0x0000000000000000       0x9c build/stm32f4xx_hal_tim.o
 .text.HAL_TIM_OC_ConfigChannel
                0x0000000000000000       0x5e build/stm32f4xx_hal_tim.o
 .text.TIM_TI1_SetConfig
                0x0000000000000000       0x9c build/stm32f4xx_hal_tim.o
 .text.HAL_TIM_IC_ConfigChannel
                0x0000000000000000       0xc0 build/stm32f4xx_hal_tim.o
 .text.HAL_TIM_OnePulse_ConfigChannel
                0x0000000000000000       0xf2 build/stm32f4xx_hal_tim.o
 .text.TIM_ETR_SetConfig
                0x0000000000000000       0x18 build/stm32f4xx_hal_tim.o
 .text.HAL_TIM_ConfigOCrefClear
                0x0000000000000000       0xe4 build/stm32f4xx_hal_tim.o
 .text.HAL_TIM_ConfigClockSource
                0x0000000000000000       0xda build/stm32f4xx_hal_tim.o
 .text.TIM_SlaveTimer_SetConfig
                0x0000000000000000       0x8a build/stm32f4xx_hal_tim.o
 .text.HAL_TIM_SlaveConfigSynchro
                0x0000000000000000       0x58 build/stm32f4xx_hal_tim.o
 .text.HAL_TIM_SlaveConfigSynchro_IT
                0x0000000000000000       0x58 build/stm32f4xx_hal_tim.o
 .text.HAL_TIM_OC_Start
                0x0000000000000000       0x4c build/stm32f4xx_hal_tim.o
 .text.HAL_TIM_OC_Stop
                0x0000000000000000       0x6c build/stm32f4xx_hal_tim.o
 .text.HAL_TIM_OC_Start_IT
                0x0000000000000000       0x90 build/stm32f4xx_hal_tim.o
 .text.HAL_TIM_OC_Stop_IT
                0x0000000000000000       0xb0 build/stm32f4xx_hal_tim.o
 .text.HAL_TIM_OC_Start_DMA
                0x0000000000000000      0x168 build/stm32f4xx_hal_tim.o
 .text.HAL_TIM_OC_Stop_DMA
                0x0000000000000000       0xd0 build/stm32f4xx_hal_tim.o
 .text.HAL_TIM_PWM_Start_IT
                0x0000000000000000       0x90 build/stm32f4xx_hal_tim.o
 .text.HAL_TIM_PWM_Stop_IT
                0x0000000000000000       0xb0 build/stm32f4xx_hal_tim.o
 .text.HAL_TIM_PWM_Start_DMA
                0x0000000000000000      0x168 build/stm32f4xx_hal_tim.o
 .text.HAL_TIM_PWM_Stop_DMA
                0x0000000000000000       0xd0 build/stm32f4xx_hal_tim.o
 .text.HAL_TIM_IC_Start
                0x0000000000000000       0x24 build/stm32f4xx_hal_tim.o
 .text.HAL_TIM_IC_Stop
                0x0000000000000000       0x2e build/stm32f4xx_hal_tim.o
 .text.HAL_TIM_IC_Start_IT
                0x0000000000000000       0x68 build/stm32f4xx_hal_tim.o
 .text.HAL_TIM_IC_Stop_IT
                0x0000000000000000       0x72 build/stm32f4xx_hal_tim.o
 .text.HAL_TIM_IC_Start_DMA
                0x0000000000000000      0x134 build/stm32f4xx_hal_tim.o
 .text.HAL_TIM_IC_Stop_DMA
                0x0000000000000000       0x94 build/stm32f4xx_hal_tim.o
 .text.HAL_TIM_OnePulse_Start
                0x0000000000000000       0x44 build/stm32f4xx_hal_tim.o
 .text.HAL_TIM_OnePulse_Stop
                0x0000000000000000       0x78 build/stm32f4xx_hal_tim.o
 .text.HAL_TIM_OnePulse_Start_IT
                0x0000000000000000       0x58 build/stm32f4xx_hal_tim.o
 .text.HAL_TIM_OnePulse_Stop_IT
                0x0000000000000000       0x8c build/stm32f4xx_hal_tim.o
 .text.HAL_TIM_Encoder_Start
                0x0000000000000000       0x44 build/stm32f4xx_hal_tim.o
 .text.HAL_TIM_Encoder_Stop
                0x0000000000000000       0x58 build/stm32f4xx_hal_tim.o
 .text.HAL_TIM_Encoder_Start_IT
                0x0000000000000000       0x6c build/stm32f4xx_hal_tim.o
 .text.HAL_TIM_Encoder_Stop_IT
                0x0000000000000000       0x86 build/stm32f4xx_hal_tim.o
 .text.HAL_TIM_Encoder_Start_DMA
                0x0000000000000000      0x164 build/stm32f4xx_hal_tim.o
 .text.HAL_TIM_Encoder_Stop_DMA
                0x0000000000000000       0xa0 build/stm32f4xx_hal_tim.o
 .text          0x0000000000000000        0x0 build/stm32f4xx_hal_tim_ex.o
 .data          0x0000000000000000        0x0 build/stm32f4xx_hal_tim_ex.o
 .bss           0x0000000000000000        0x0 build/stm32f4xx_hal_tim_ex.o
 .text.TIM_CCxNChannelCmd
                0x0000000000000000       0x22 build/stm32f4xx_hal_tim_ex.o
 .text.HAL_TIMEx_HallSensor_MspInit
                0x0000000000000000        0x2 build/stm32f4xx_hal_tim_ex.o
 .text.HAL_TIMEx_HallSensor_Init
                0x0000000000000000       0xbe build/stm32f4xx_hal_tim_ex.o
 .text.HAL_TIMEx_HallSensor_MspDeInit
                0x0000000000000000        0x2 build/stm32f4xx_hal_tim_ex.o
 .text.HAL_TIMEx_HallSensor_DeInit
                0x0000000000000000       0x3a build/stm32f4xx_hal_tim_ex.o
 .text.HAL_TIMEx_HallSensor_Start
                0x0000000000000000       0x26 build/stm32f4xx_hal_tim_ex.o
 .text.HAL_TIMEx_HallSensor_Stop
                0x0000000000000000       0x30 build/stm32f4xx_hal_tim_ex.o
 .text.HAL_TIMEx_HallSensor_Start_IT
                0x0000000000000000       0x30 build/stm32f4xx_hal_tim_ex.o
 .text.HAL_TIMEx_HallSensor_Stop_IT
                0x0000000000000000       0x3a build/stm32f4xx_hal_tim_ex.o
 .text.HAL_TIMEx_HallSensor_Start_DMA
                0x0000000000000000       0x90 build/stm32f4xx_hal_tim_ex.o
 .text.HAL_TIMEx_HallSensor_Stop_DMA
                0x0000000000000000       0x40 build/stm32f4xx_hal_tim_ex.o
 .text.HAL_TIMEx_OCN_Start
                0x0000000000000000       0x2e build/stm32f4xx_hal_tim_ex.o
 .text.HAL_TIMEx_OCN_Stop
                0x0000000000000000       0x4c build/stm32f4xx_hal_tim_ex.o
 .text.HAL_TIMEx_OCN_Start_IT
                0x0000000000000000       0x66 build/stm32f4xx_hal_tim_ex.o
 .text.HAL_TIMEx_OCN_Stop_IT
                0x0000000000000000       0x90 build/stm32f4xx_hal_tim_ex.o
 .text.HAL_TIMEx_OCN_Start_DMA
                0x0000000000000000      0x10c build/stm32f4xx_hal_tim_ex.o
 .text.HAL_TIMEx_OCN_Stop_DMA
                0x0000000000000000       0x96 build/stm32f4xx_hal_tim_ex.o
 .text.HAL_TIMEx_PWMN_Start
                0x0000000000000000       0x2e build/stm32f4xx_hal_tim_ex.o
 .text.HAL_TIMEx_PWMN_Stop
                0x0000000000000000       0x4c build/stm32f4xx_hal_tim_ex.o
 .text.HAL_TIMEx_PWMN_Start_IT
                0x0000000000000000       0x66 build/stm32f4xx_hal_tim_ex.o
 .text.HAL_TIMEx_PWMN_Stop_IT
                0x0000000000000000       0x90 build/stm32f4xx_hal_tim_ex.o
 .text.HAL_TIMEx_PWMN_Start_DMA
                0x0000000000000000      0x10c build/stm32f4xx_hal_tim_ex.o
 .text.HAL_TIMEx_PWMN_Stop_DMA
                0x0000000000000000       0x96 build/stm32f4xx_hal_tim_ex.o
 .text.HAL_TIMEx_OnePulseN_Start
                0x0000000000000000       0x1a build/stm32f4xx_hal_tim_ex.o
 .text.HAL_TIMEx_OnePulseN_Stop
                0x0000000000000000       0x4c build/stm32f4xx_hal_tim_ex.o
 .text.HAL_TIMEx_OnePulseN_Start_IT
                0x0000000000000000       0x2e build/stm32f4xx_hal_tim_ex.o
 .text.HAL_TIMEx_OnePulseN_Stop_IT
                0x0000000000000000       0x60 build/stm32f4xx_hal_tim_ex.o
 .text.HAL_TIMEx_ConfigCommutEvent
                0x0000000000000000       0x72 build/stm32f4xx_hal_tim_ex.o
 .text.HAL_TIMEx_ConfigCommutEvent_IT
                0x0000000000000000       0x72 build/stm32f4xx_hal_tim_ex.o
 .text.HAL_TIMEx_ConfigCommutEvent_DMA
                0x0000000000000000       0x90 build/stm32f4xx_hal_tim_ex.o
 .text.HAL_TIMEx_ConfigBreakDeadTime
                0x0000000000000000       0x52 build/stm32f4xx_hal_tim_ex.o
 .text.HAL_TIMEx_RemapConfig
                0x0000000000000000       0x1a build/stm32f4xx_hal_tim_ex.o
 .text.HAL_TIMEx_CommutCallback
                0x0000000000000000        0x2 build/stm32f4xx_hal_tim_ex.o
 .text.TIMEx_DMACommutationCplt
                0x0000000000000000       0x10 build/stm32f4xx_hal_tim_ex.o
 .text.HAL_TIMEx_CommutHalfCpltCallback
                0x0000000000000000        0x2 build/stm32f4xx_hal_tim_ex.o
 .text.TIMEx_DMACommutationHalfCplt
                0x0000000000000000       0x10 build/stm32f4xx_hal_tim_ex.o
 .text.HAL_TIMEx_BreakCallback
                0x0000000000000000        0x2 build/stm32f4xx_hal_tim_ex.o
 .text.HAL_TIMEx_HallSensor_GetState
                0x0000000000000000        0x6 build/stm32f4xx_hal_tim_ex.o
 .text          0x0000000000000000        0x0 build/stm32f4xx_hal_rcc.o
 .data          0x0000000000000000        0x0 build/stm32f4xx_hal_rcc.o
 .bss           0x0000000000000000        0x0 build/stm32f4xx_hal_rcc.o
 .text.HAL_RCC_DeInit
                0x0000000000000000        0x4 build/stm32f4xx_hal_rcc.o
 .text.HAL_RCC_MCOConfig
                0x0000000000000000       0x9c build/stm32f4xx_hal_rcc.o
 .text.HAL_RCC_EnableCSS
                0x0000000000000000        0xc build/stm32f4xx_hal_rcc.o
 .text.HAL_RCC_DisableCSS
                0x0000000000000000        0xc build/stm32f4xx_hal_rcc.o
 .text.HAL_RCC_GetOscConfig
                0x0000000000000000       0xcc build/stm32f4xx_hal_rcc.o
 .text.HAL_RCC_GetClockConfig
                0x0000000000000000       0x3c build/stm32f4xx_hal_rcc.o
 .text.HAL_RCC_CSSCallback
                0x0000000000000000        0x2 build/stm32f4xx_hal_rcc.o
 .text.HAL_RCC_NMI_IRQHandler
                0x0000000000000000       0x24 build/stm32f4xx_hal_rcc.o
 .text          0x0000000000000000        0x0 build/stm32f4xx_hal_rcc_ex.o
 .data          0x0000000000000000        0x0 build/stm32f4xx_hal_rcc_ex.o
 .bss           0x0000000000000000        0x0 build/stm32f4xx_hal_rcc_ex.o
 .text.HAL_RCCEx_PeriphCLKConfig
                0x0000000000000000      0x288 build/stm32f4xx_hal_rcc_ex.o
 .text.HAL_RCCEx_GetPeriphCLKConfig
                0x0000000000000000       0x90 build/stm32f4xx_hal_rcc_ex.o
 .text.HAL_RCCEx_GetPeriphCLKFreq
                0x0000000000000000       0x74 build/stm32f4xx_hal_rcc_ex.o
 .text.HAL_RCCEx_EnablePLLI2S
                0x0000000000000000       0x70 build/stm32f4xx_hal_rcc_ex.o
 .text.HAL_RCCEx_DisablePLLI2S
                0x0000000000000000       0x34 build/stm32f4xx_hal_rcc_ex.o
 .text.HAL_RCCEx_EnablePLLSAI
                0x0000000000000000       0x70 build/stm32f4xx_hal_rcc_ex.o
 .text.HAL_RCCEx_DisablePLLSAI
                0x0000000000000000       0x34 build/stm32f4xx_hal_rcc_ex.o
 .text.HAL_RCC_DeInit
                0x0000000000000000      0x180 build/stm32f4xx_hal_rcc_ex.o
 .debug_info    0x0000000000000000      0x8d5 build/stm32f4xx_hal_rcc_ex.o
 .debug_abbrev  0x0000000000000000      0x193 build/stm32f4xx_hal_rcc_ex.o
 .debug_loc     0x0000000000000000      0x485 build/stm32f4xx_hal_rcc_ex.o
 .debug_aranges
                0x0000000000000000       0x58 build/stm32f4xx_hal_rcc_ex.o
 .debug_ranges  0x0000000000000000       0x48 build/stm32f4xx_hal_rcc_ex.o
 .debug_line    0x0000000000000000      0x304 build/stm32f4xx_hal_rcc_ex.o
 .debug_str     0x0000000000000000      0x635 build/stm32f4xx_hal_rcc_ex.o
 .comment       0x0000000000000000       0x80 build/stm32f4xx_hal_rcc_ex.o
 .debug_frame   0x0000000000000000       0xf0 build/stm32f4xx_hal_rcc_ex.o
 .ARM.attributes
                0x0000000000000000       0x39 build/stm32f4xx_hal_rcc_ex.o
 .text          0x0000000000000000        0x0 build/stm32f4xx_hal_rtc.o
 .data          0x0000000000000000        0x0 build/stm32f4xx_hal_rtc.o
 .bss           0x0000000000000000        0x0 build/stm32f4xx_hal_rtc.o
 .text.HAL_RTC_MspInit
                0x0000000000000000        0x2 build/stm32f4xx_hal_rtc.o
 .text.HAL_RTC_MspDeInit
                0x0000000000000000        0x2 build/stm32f4xx_hal_rtc.o
 .text.HAL_RTC_DeactivateAlarm
                0x0000000000000000       0xb8 build/stm32f4xx_hal_rtc.o
 .text.HAL_RTC_AlarmAEventCallback
                0x0000000000000000        0x2 build/stm32f4xx_hal_rtc.o
 .text.HAL_RTC_AlarmIRQHandler
                0x0000000000000000       0x60 build/stm32f4xx_hal_rtc.o
 .text.HAL_RTC_PollForAlarmAEvent
                0x0000000000000000       0x40 build/stm32f4xx_hal_rtc.o
 .text.HAL_RTC_WaitForSynchro
                0x0000000000000000       0x32 build/stm32f4xx_hal_rtc.o
 .text.HAL_RTC_GetState
                0x0000000000000000        0x4 build/stm32f4xx_hal_rtc.o
 .text.RTC_EnterInitMode
                0x0000000000000000       0x3c build/stm32f4xx_hal_rtc.o
 .text.HAL_RTC_Init
                0x0000000000000000       0xc4 build/stm32f4xx_hal_rtc.o
 .text.HAL_RTC_DeInit
                0x0000000000000000       0xdc build/stm32f4xx_hal_rtc.o
 .text.RTC_ByteToBcd2
                0x0000000000000000       0x16 build/stm32f4xx_hal_rtc.o
 .text.HAL_RTC_SetTime
                0x0000000000000000       0xfe build/stm32f4xx_hal_rtc.o
 .text.HAL_RTC_SetDate
                0x0000000000000000       0xda build/stm32f4xx_hal_rtc.o
 .text.HAL_RTC_SetAlarm
                0x0000000000000000      0x160 build/stm32f4xx_hal_rtc.o
 .text.HAL_RTC_SetAlarm_IT
                0x0000000000000000      0x1a0 build/stm32f4xx_hal_rtc.o
 .text.RTC_Bcd2ToByte
                0x0000000000000000       0x12 build/stm32f4xx_hal_rtc.o
 .text.HAL_RTC_GetTime
                0x0000000000000000       0x56 build/stm32f4xx_hal_rtc.o
 .text.HAL_RTC_GetDate
                0x0000000000000000       0x42 build/stm32f4xx_hal_rtc.o
 .text.HAL_RTC_GetAlarm
                0x0000000000000000       0x80 build/stm32f4xx_hal_rtc.o
 .debug_info    0x0000000000000000      0xf8f build/stm32f4xx_hal_rtc.o
 .debug_abbrev  0x0000000000000000      0x22e build/stm32f4xx_hal_rtc.o
 .debug_loc     0x0000000000000000      0xd07 build/stm32f4xx_hal_rtc.o
 .debug_aranges
                0x0000000000000000       0xb8 build/stm32f4xx_hal_rtc.o
 .debug_ranges  0x0000000000000000       0xa8 build/stm32f4xx_hal_rtc.o
 .debug_line    0x0000000000000000      0x563 build/stm32f4xx_hal_rtc.o
 .debug_str     0x0000000000000000      0x802 build/stm32f4xx_hal_rtc.o
 .comment       0x0000000000000000       0x80 build/stm32f4xx_hal_rtc.o
 .debug_frame   0x0000000000000000      0x250 build/stm32f4xx_hal_rtc.o
 .ARM.attributes
                0x0000000000000000       0x39 build/stm32f4xx_hal_rtc.o
 .text          0x0000000000000000        0x0 build/stm32f4xx_hal_flash.o
 .data          0x0000000000000000        0x0 build/stm32f4xx_hal_flash.o
 .bss           0x0000000000000000        0x0 build/stm32f4xx_hal_flash.o
 .text.FLASH_Program_DoubleWord
                0x0000000000000000       0x30 build/stm32f4xx_hal_flash.o
 .text.FLASH_Program_Word
                0x0000000000000000       0x24 build/stm32f4xx_hal_flash.o
 .text.FLASH_Program_HalfWord
                0x0000000000000000       0x24 build/stm32f4xx_hal_flash.o
 .text.FLASH_Program_Byte
                0x0000000000000000       0x20 build/stm32f4xx_hal_flash.o
 .text.FLASH_SetErrorCode
                0x0000000000000000       0xa8 build/stm32f4xx_hal_flash.o
 .text.HAL_FLASH_Program_IT
                0x0000000000000000       0x70 build/stm32f4xx_hal_flash.o
 .text.HAL_FLASH_EndOfOperationCallback
                0x0000000000000000        0x2 build/stm32f4xx_hal_flash.o
 .text.HAL_FLASH_OperationErrorCallback
                0x0000000000000000        0x2 build/stm32f4xx_hal_flash.o
 .text.HAL_FLASH_IRQHandler
                0x0000000000000000       0xf8 build/stm32f4xx_hal_flash.o
 .text.HAL_FLASH_Unlock
                0x0000000000000000       0x30 build/stm32f4xx_hal_flash.o
 .text.HAL_FLASH_Lock
                0x0000000000000000       0x14 build/stm32f4xx_hal_flash.o
 .text.HAL_FLASH_OB_Unlock
                0x0000000000000000       0x28 build/stm32f4xx_hal_flash.o
 .text.HAL_FLASH_OB_Lock
                0x0000000000000000       0x14 build/stm32f4xx_hal_flash.o
 .text.HAL_FLASH_GetError
                0x0000000000000000        0xc build/stm32f4xx_hal_flash.o
 .text.FLASH_WaitForLastOperation
                0x0000000000000000       0x64 build/stm32f4xx_hal_flash.o
 .text.HAL_FLASH_Program
                0x0000000000000000       0x84 build/stm32f4xx_hal_flash.o
 .text.HAL_FLASH_OB_Launch
                0x0000000000000000       0x1c build/stm32f4xx_hal_flash.o
 .debug_info    0x0000000000000000      0x83e build/stm32f4xx_hal_flash.o
 .debug_abbrev  0x0000000000000000      0x2b4 build/stm32f4xx_hal_flash.o
 .debug_loc     0x0000000000000000      0x3ab build/stm32f4xx_hal_flash.o
 .debug_aranges
                0x0000000000000000       0xa0 build/stm32f4xx_hal_flash.o
 .debug_ranges  0x0000000000000000       0x90 build/stm32f4xx_hal_flash.o
 .debug_line    0x0000000000000000      0x3b1 build/stm32f4xx_hal_flash.o
 .debug_str     0x0000000000000000      0x617 build/stm32f4xx_hal_flash.o
 .comment       0x0000000000000000       0x80 build/stm32f4xx_hal_flash.o
 .debug_frame   0x0000000000000000      0x17c build/stm32f4xx_hal_flash.o
 .ARM.attributes
                0x0000000000000000       0x39 build/stm32f4xx_hal_flash.o
 COMMON         0x0000000000000000       0x20 build/stm32f4xx_hal_flash.o
 .text          0x0000000000000000        0x0 build/stm32f4xx_hal_flash_ex.o
 .data          0x0000000000000000        0x0 build/stm32f4xx_hal_flash_ex.o
 .bss           0x0000000000000000        0x0 build/stm32f4xx_hal_flash_ex.o
 .text.FLASH_MassErase
                0x0000000000000000       0x4c build/stm32f4xx_hal_flash_ex.o
 .text.FLASH_OB_BOR_LevelConfig
                0x0000000000000000       0x18 build/stm32f4xx_hal_flash_ex.o
 .text.FLASH_OB_GetUser
                0x0000000000000000       0x10 build/stm32f4xx_hal_flash_ex.o
 .text.FLASH_OB_GetWRP
                0x0000000000000000        0xc build/stm32f4xx_hal_flash_ex.o
 .text.FLASH_OB_GetRDP
                0x0000000000000000       0x24 build/stm32f4xx_hal_flash_ex.o
 .text.FLASH_OB_GetBOR
                0x0000000000000000       0x10 build/stm32f4xx_hal_flash_ex.o
 .text.FLASH_OB_EnableWRP
                0x0000000000000000       0x8c build/stm32f4xx_hal_flash_ex.o
 .text.FLASH_OB_DisableWRP
                0x0000000000000000       0x94 build/stm32f4xx_hal_flash_ex.o
 .text.FLASH_OB_RDP_LevelConfig
                0x0000000000000000       0x1c build/stm32f4xx_hal_flash_ex.o
 .text.FLASH_OB_UserConfig
                0x0000000000000000       0x2c build/stm32f4xx_hal_flash_ex.o
 .text.FLASH_OB_EnablePCROP
                0x0000000000000000       0x64 build/stm32f4xx_hal_flash_ex.o
 .text.FLASH_OB_DisablePCROP
                0x0000000000000000       0x64 build/stm32f4xx_hal_flash_ex.o
 .text.FLASH_OB_BootConfig
                0x0000000000000000       0x28 build/stm32f4xx_hal_flash_ex.o
 .text.HAL_FLASHEx_OBProgram
                0x0000000000000000       0x84 build/stm32f4xx_hal_flash_ex.o
 .text.HAL_FLASHEx_OBGetConfig
                0x0000000000000000       0x22 build/stm32f4xx_hal_flash_ex.o
 .text.HAL_FLASHEx_AdvOBProgram
                0x0000000000000000       0x3e build/stm32f4xx_hal_flash_ex.o
 .text.HAL_FLASHEx_AdvOBGetConfig
                0x0000000000000000       0x20 build/stm32f4xx_hal_flash_ex.o
 .text.HAL_FLASHEx_OB_SelectPCROP
                0x0000000000000000       0x14 build/stm32f4xx_hal_flash_ex.o
 .text.HAL_FLASHEx_OB_DeSelectPCROP
                0x0000000000000000       0x14 build/stm32f4xx_hal_flash_ex.o
 .text.HAL_FLASHEx_OB_GetBank2WRP
                0x0000000000000000        0xc build/stm32f4xx_hal_flash_ex.o
 .text.FLASH_Erase_Sector
                0x0000000000000000       0x58 build/stm32f4xx_hal_flash_ex.o
 .text.HAL_FLASHEx_Erase_IT
                0x0000000000000000       0x6c build/stm32f4xx_hal_flash_ex.o
 .text.FLASH_FlushCaches
                0x0000000000000000       0x60 build/stm32f4xx_hal_flash_ex.o
 .text.HAL_FLASHEx_Erase
                0x0000000000000000       0x98 build/stm32f4xx_hal_flash_ex.o
 .debug_info    0x0000000000000000      0xbc6 build/stm32f4xx_hal_flash_ex.o
 .debug_abbrev  0x0000000000000000      0x2b2 build/stm32f4xx_hal_flash_ex.o
 .debug_loc     0x0000000000000000      0xa29 build/stm32f4xx_hal_flash_ex.o
 .debug_aranges
                0x0000000000000000       0xd8 build/stm32f4xx_hal_flash_ex.o
 .debug_ranges  0x0000000000000000       0xc8 build/stm32f4xx_hal_flash_ex.o
 .debug_line    0x0000000000000000      0x4a3 build/stm32f4xx_hal_flash_ex.o
 .debug_str     0x0000000000000000      0x79e build/stm32f4xx_hal_flash_ex.o
 .comment       0x0000000000000000       0x80 build/stm32f4xx_hal_flash_ex.o
 .debug_frame   0x0000000000000000      0x244 build/stm32f4xx_hal_flash_ex.o
 .ARM.attributes
                0x0000000000000000       0x39 build/stm32f4xx_hal_flash_ex.o
 .text          0x0000000000000000        0x0 build/stm32f4xx_hal_flash_ramfunc.o
 .data          0x0000000000000000        0x0 build/stm32f4xx_hal_flash_ramfunc.o
 .bss           0x0000000000000000        0x0 build/stm32f4xx_hal_flash_ramfunc.o
 .debug_info    0x0000000000000000      0x179 build/stm32f4xx_hal_flash_ramfunc.o
 .debug_abbrev  0x0000000000000000       0x8d build/stm32f4xx_hal_flash_ramfunc.o
 .debug_aranges
                0x0000000000000000       0x18 build/stm32f4xx_hal_flash_ramfunc.o
 .debug_line    0x0000000000000000      0x112 build/stm32f4xx_hal_flash_ramfunc.o
 .debug_str     0x0000000000000000      0x2ad build/stm32f4xx_hal_flash_ramfunc.o
 .comment       0x0000000000000000       0x80 build/stm32f4xx_hal_flash_ramfunc.o
 .ARM.attributes
                0x0000000000000000       0x39 build/stm32f4xx_hal_flash_ramfunc.o
 .text          0x0000000000000000        0x0 build/stm32f4xx_hal_gpio.o
 .data          0x0000000000000000        0x0 build/stm32f4xx_hal_gpio.o
 .bss           0x0000000000000000        0x0 build/stm32f4xx_hal_gpio.o
 .text.HAL_GPIO_TogglePin
                0x0000000000000000       0x12 build/stm32f4xx_hal_gpio.o
 .text.HAL_GPIO_LockPin
                0x0000000000000000       0x2e build/stm32f4xx_hal_gpio.o
 .text.HAL_GPIO_EXTI_Callback
                0x0000000000000000        0x2 build/stm32f4xx_hal_gpio.o
 .text          0x0000000000000000        0x0 build/stm32f4xx_hal_dma.o
 .data          0x0000000000000000        0x0 build/stm32f4xx_hal_dma.o
 .bss           0x0000000000000000        0x0 build/stm32f4xx_hal_dma.o
 .text.HAL_DMA_Start
                0x0000000000000000       0x48 build/stm32f4xx_hal_dma.o
 .text.HAL_DMA_Abort
                0x0000000000000000       0x94 build/stm32f4xx_hal_dma.o
 .text.HAL_DMA_PollForTransfer
                0x0000000000000000      0x126 build/stm32f4xx_hal_dma.o
 .text.HAL_DMA_IRQHandler
                0x0000000000000000      0x1dc build/stm32f4xx_hal_dma.o
 .text.HAL_DMA_RegisterCallback
                0x0000000000000000       0x5e build/stm32f4xx_hal_dma.o
 .text.HAL_DMA_UnRegisterCallback
                0x0000000000000000       0x70 build/stm32f4xx_hal_dma.o
 .text.HAL_DMA_GetState
                0x0000000000000000        0x6 build/stm32f4xx_hal_dma.o
 .text.HAL_DMA_GetError
                0x0000000000000000        0x4 build/stm32f4xx_hal_dma.o
 .text          0x0000000000000000        0x0 build/stm32f4xx_hal_pwr.o
 .data          0x0000000000000000        0x0 build/stm32f4xx_hal_pwr.o
 .bss           0x0000000000000000        0x0 build/stm32f4xx_hal_pwr.o
 .text.HAL_PWR_DeInit
                0x0000000000000000       0x18 build/stm32f4xx_hal_pwr.o
 .text.HAL_PWR_EnableBkUpAccess
                0x0000000000000000        0xc build/stm32f4xx_hal_pwr.o
 .text.HAL_PWR_DisableBkUpAccess
                0x0000000000000000        0xc build/stm32f4xx_hal_pwr.o
 .text.HAL_PWR_ConfigPVD
                0x0000000000000000       0x84 build/stm32f4xx_hal_pwr.o
 .text.HAL_PWR_EnablePVD
                0x0000000000000000        0xc build/stm32f4xx_hal_pwr.o
 .text.HAL_PWR_DisablePVD
                0x0000000000000000        0xc build/stm32f4xx_hal_pwr.o
 .text.HAL_PWR_EnableWakeUpPin
                0x0000000000000000       0x10 build/stm32f4xx_hal_pwr.o
 .text.HAL_PWR_DisableWakeUpPin
                0x0000000000000000       0x10 build/stm32f4xx_hal_pwr.o
 .text.HAL_PWR_EnterSLEEPMode
                0x0000000000000000       0x20 build/stm32f4xx_hal_pwr.o
 .text.HAL_PWR_EnterSTOPMode
                0x0000000000000000       0x38 build/stm32f4xx_hal_pwr.o
 .text.HAL_PWR_EnterSTANDBYMode
                0x0000000000000000       0x20 build/stm32f4xx_hal_pwr.o
 .text.HAL_PWR_PVDCallback
                0x0000000000000000        0x2 build/stm32f4xx_hal_pwr.o
 .text.HAL_PWR_PVD_IRQHandler
                0x0000000000000000       0x20 build/stm32f4xx_hal_pwr.o
 .text.HAL_PWR_EnableSleepOnExit
                0x0000000000000000       0x10 build/stm32f4xx_hal_pwr.o
 .text.HAL_PWR_DisableSleepOnExit
                0x0000000000000000       0x10 build/stm32f4xx_hal_pwr.o
 .text.HAL_PWR_EnableSEVOnPend
                0x0000000000000000       0x10 build/stm32f4xx_hal_pwr.o
 .text.HAL_PWR_DisableSEVOnPend
                0x0000000000000000       0x10 build/stm32f4xx_hal_pwr.o
 .debug_info    0x0000000000000000      0x868 build/stm32f4xx_hal_pwr.o
 .debug_abbrev  0x0000000000000000      0x1af build/stm32f4xx_hal_pwr.o
 .debug_loc     0x0000000000000000       0x83 build/stm32f4xx_hal_pwr.o
 .debug_aranges
                0x0000000000000000       0xa0 build/stm32f4xx_hal_pwr.o
 .debug_ranges  0x0000000000000000       0x90 build/stm32f4xx_hal_pwr.o
 .debug_line    0x0000000000000000      0x2ae build/stm32f4xx_hal_pwr.o
 .debug_str     0x0000000000000000      0x617 build/stm32f4xx_hal_pwr.o
 .comment       0x0000000000000000       0x80 build/stm32f4xx_hal_pwr.o
 .debug_frame   0x0000000000000000      0x12c build/stm32f4xx_hal_pwr.o
 .ARM.attributes
                0x0000000000000000       0x39 build/stm32f4xx_hal_pwr.o
 .text          0x0000000000000000        0x0 build/stm32f4xx_hal_pwr_ex.o
 .data          0x0000000000000000        0x0 build/stm32f4xx_hal_pwr_ex.o
 .bss           0x0000000000000000        0x0 build/stm32f4xx_hal_pwr_ex.o
 .text.HAL_PWREx_EnableBkUpReg
                0x0000000000000000       0x34 build/stm32f4xx_hal_pwr_ex.o
 .text.HAL_PWREx_DisableBkUpReg
                0x0000000000000000       0x34 build/stm32f4xx_hal_pwr_ex.o
 .text.HAL_PWREx_EnableFlashPowerDown
                0x0000000000000000        0xc build/stm32f4xx_hal_pwr_ex.o
 .text.HAL_PWREx_DisableFlashPowerDown
                0x0000000000000000        0xc build/stm32f4xx_hal_pwr_ex.o
 .text.HAL_PWREx_GetVoltageRange
                0x0000000000000000       0x10 build/stm32f4xx_hal_pwr_ex.o
 .text.HAL_PWREx_ControlVoltageScaling
                0x0000000000000000       0xc0 build/stm32f4xx_hal_pwr_ex.o
 .text.HAL_PWREx_DisableOverDrive
                0x0000000000000000       0x7c build/stm32f4xx_hal_pwr_ex.o
 .text.HAL_PWREx_EnterUnderDriveSTOPMode
                0x0000000000000000       0x6c build/stm32f4xx_hal_pwr_ex.o
 .text          0x0000000000000000        0x0 build/stm32f4xx_hal_cortex.o
 .data          0x0000000000000000        0x0 build/stm32f4xx_hal_cortex.o
 .bss           0x0000000000000000        0x0 build/stm32f4xx_hal_cortex.o
 .text.HAL_NVIC_SystemReset
                0x0000000000000000       0x24 build/stm32f4xx_hal_cortex.o
 .text.HAL_MPU_Disable
                0x0000000000000000       0x20 build/stm32f4xx_hal_cortex.o
 .text.HAL_MPU_Enable
                0x0000000000000000       0x24 build/stm32f4xx_hal_cortex.o
 .text.HAL_MPU_ConfigRegion
                0x0000000000000000       0x54 build/stm32f4xx_hal_cortex.o
 .text.HAL_NVIC_GetPriorityGrouping
                0x0000000000000000       0x10 build/stm32f4xx_hal_cortex.o
 .text.HAL_NVIC_GetPriority
                0x0000000000000000       0x5c build/stm32f4xx_hal_cortex.o
 .text.HAL_NVIC_SetPendingIRQ
                0x0000000000000000       0x1c build/stm32f4xx_hal_cortex.o
 .text.HAL_NVIC_GetPendingIRQ
                0x0000000000000000       0x1c build/stm32f4xx_hal_cortex.o
 .text.HAL_NVIC_ClearPendingIRQ
                0x0000000000000000       0x1c build/stm32f4xx_hal_cortex.o
 .text.HAL_NVIC_GetActive
                0x0000000000000000       0x1c build/stm32f4xx_hal_cortex.o
 .text.HAL_SYSTICK_Callback
                0x0000000000000000        0x2 build/stm32f4xx_hal_cortex.o
 .text.HAL_SYSTICK_IRQHandler
                0x0000000000000000        0x8 build/stm32f4xx_hal_cortex.o
 .text          0x0000000000000000        0x0 build/stm32f4xx_hal.o
 .data          0x0000000000000000        0x0 build/stm32f4xx_hal.o
 .bss           0x0000000000000000        0x0 build/stm32f4xx_hal.o
 .text.HAL_MspInit
                0x0000000000000000        0x2 build/stm32f4xx_hal.o
 .text.HAL_MspDeInit
                0x0000000000000000        0x2 build/stm32f4xx_hal.o
 .text.HAL_DeInit
                0x0000000000000000       0x2c build/stm32f4xx_hal.o
 .text.HAL_IncTick
                0x0000000000000000       0x18 build/stm32f4xx_hal.o
 .text.HAL_GetTickPrio
                0x0000000000000000        0xc build/stm32f4xx_hal.o
 .text.HAL_SetTickFreq
                0x0000000000000000       0x2c build/stm32f4xx_hal.o
 .text.HAL_GetTickFreq
                0x0000000000000000        0xc build/stm32f4xx_hal.o
 .text.HAL_Delay
                0x0000000000000000       0x28 build/stm32f4xx_hal.o
 .text.HAL_SuspendTick
                0x0000000000000000       0x10 build/stm32f4xx_hal.o
 .text.HAL_ResumeTick
                0x0000000000000000       0x10 build/stm32f4xx_hal.o
 .text.HAL_GetHalVersion
                0x0000000000000000        0x8 build/stm32f4xx_hal.o
 .text.HAL_GetREVID
                0x0000000000000000        0xc build/stm32f4xx_hal.o
 .text.HAL_GetDEVID
                0x0000000000000000       0x10 build/stm32f4xx_hal.o
 .text.HAL_DBGMCU_EnableDBGSleepMode
                0x0000000000000000       0x10 build/stm32f4xx_hal.o
 .text.HAL_DBGMCU_DisableDBGSleepMode
                0x0000000000000000       0x10 build/stm32f4xx_hal.o
 .text.HAL_DBGMCU_EnableDBGStopMode
                0x0000000000000000       0x10 build/stm32f4xx_hal.o
 .text.HAL_DBGMCU_DisableDBGStopMode
                0x0000000000000000       0x10 build/stm32f4xx_hal.o
 .text.HAL_DBGMCU_EnableDBGStandbyMode
                0x0000000000000000       0x10 build/stm32f4xx_hal.o
 .text.HAL_DBGMCU_DisableDBGStandbyMode
                0x0000000000000000       0x10 build/stm32f4xx_hal.o
 .text.HAL_EnableCompensationCell
                0x0000000000000000        0xc build/stm32f4xx_hal.o
 .text.HAL_DisableCompensationCell
                0x0000000000000000        0xc build/stm32f4xx_hal.o
 .text.HAL_GetUIDw0
                0x0000000000000000        0xc build/stm32f4xx_hal.o
 .text.HAL_GetUIDw1
                0x0000000000000000        0xc build/stm32f4xx_hal.o
 .text.HAL_GetUIDw2
                0x0000000000000000        0xc build/stm32f4xx_hal.o
 .text.HAL_EnableMemorySwappingBank
                0x0000000000000000        0xc build/stm32f4xx_hal.o
 .text.HAL_DisableMemorySwappingBank
                0x0000000000000000        0xc build/stm32f4xx_hal.o
 .text          0x0000000000000000        0x0 build/stm32f4xx_hal_sram.o
 .data          0x0000000000000000        0x0 build/stm32f4xx_hal_sram.o
 .bss           0x0000000000000000        0x0 build/stm32f4xx_hal_sram.o
 .text.HAL_SRAM_DMA_XferCpltCallback
                0x0000000000000000        0x2 build/stm32f4xx_hal_sram.o
 .text.HAL_SRAM_DMA_XferErrorCallback
                0x0000000000000000        0x2 build/stm32f4xx_hal_sram.o
 .text.HAL_SRAM_MspInit
                0x0000000000000000        0x2 build/stm32f4xx_hal_sram.o
 .text.HAL_SRAM_MspDeInit
                0x0000000000000000        0x2 build/stm32f4xx_hal_sram.o
 .text.HAL_SRAM_DeInit
                0x0000000000000000       0x1e build/stm32f4xx_hal_sram.o
 .text.HAL_SRAM_Read_8b
                0x0000000000000000       0x3e build/stm32f4xx_hal_sram.o
 .text.HAL_SRAM_Write_8b
                0x0000000000000000       0x4c build/stm32f4xx_hal_sram.o
 .text.HAL_SRAM_Read_16b
                0x0000000000000000       0x3e build/stm32f4xx_hal_sram.o
 .text.HAL_SRAM_Write_16b
                0x0000000000000000       0x4c build/stm32f4xx_hal_sram.o
 .text.HAL_SRAM_Read_32b
                0x0000000000000000       0x3e build/stm32f4xx_hal_sram.o
 .text.HAL_SRAM_Write_32b
                0x0000000000000000       0x4c build/stm32f4xx_hal_sram.o
 .text.HAL_SRAM_Read_DMA
                0x0000000000000000       0x44 build/stm32f4xx_hal_sram.o
 .text.HAL_SRAM_Write_DMA
                0x0000000000000000       0x58 build/stm32f4xx_hal_sram.o
 .text.HAL_SRAM_WriteOperation_Enable
                0x0000000000000000       0x2a build/stm32f4xx_hal_sram.o
 .text.HAL_SRAM_WriteOperation_Disable
                0x0000000000000000       0x32 build/stm32f4xx_hal_sram.o
 .text.HAL_SRAM_GetState
                0x0000000000000000        0x6 build/stm32f4xx_hal_sram.o
 .text          0x0000000000000000        0x0 build/stm32f4xx_ll_fmc.o
 .data          0x0000000000000000        0x0 build/stm32f4xx_ll_fmc.o
 .bss           0x0000000000000000        0x0 build/stm32f4xx_ll_fmc.o
 .text.FMC_NORSRAM_DeInit
                0x0000000000000000       0x38 build/stm32f4xx_ll_fmc.o
 .text.FMC_NORSRAM_WriteOperation_Enable
                0x0000000000000000       0x10 build/stm32f4xx_ll_fmc.o
 .text.FMC_NORSRAM_WriteOperation_Disable
                0x0000000000000000       0x10 build/stm32f4xx_ll_fmc.o
 .text.FMC_NAND_Init
                0x0000000000000000       0x48 build/stm32f4xx_ll_fmc.o
 .text.FMC_NAND_CommonSpace_Timing_Init
                0x0000000000000000       0x32 build/stm32f4xx_ll_fmc.o
 .text.FMC_NAND_AttributeSpace_Timing_Init
                0x0000000000000000       0x32 build/stm32f4xx_ll_fmc.o
 .text.FMC_NAND_DeInit
                0x0000000000000000       0x40 build/stm32f4xx_ll_fmc.o
 .text.FMC_NAND_ECC_Enable
                0x0000000000000000       0x1a build/stm32f4xx_ll_fmc.o
 .text.FMC_NAND_ECC_Disable
                0x0000000000000000       0x1a build/stm32f4xx_ll_fmc.o
 .text.FMC_NAND_GetECC
                0x0000000000000000       0x6c build/stm32f4xx_ll_fmc.o
 .text.FMC_PCCARD_Init
                0x0000000000000000       0x2a build/stm32f4xx_ll_fmc.o
 .text.FMC_PCCARD_CommonSpace_Timing_Init
                0x0000000000000000       0x1c build/stm32f4xx_ll_fmc.o
 .text.FMC_PCCARD_AttributeSpace_Timing_Init
                0x0000000000000000       0x1c build/stm32f4xx_ll_fmc.o
 .text.FMC_PCCARD_IOSpace_Timing_Init
                0x0000000000000000       0x1c build/stm32f4xx_ll_fmc.o
 .text.FMC_PCCARD_DeInit
                0x0000000000000000       0x1e build/stm32f4xx_ll_fmc.o
 .text.FMC_SDRAM_Init
                0x0000000000000000       0x78 build/stm32f4xx_ll_fmc.o
 .text.FMC_SDRAM_Timing_Init
                0x0000000000000000       0x96 build/stm32f4xx_ll_fmc.o
 .text.FMC_SDRAM_DeInit
                0x0000000000000000       0x1e build/stm32f4xx_ll_fmc.o
 .text.FMC_SDRAM_WriteProtection_Enable
                0x0000000000000000       0x10 build/stm32f4xx_ll_fmc.o
 .text.FMC_SDRAM_WriteProtection_Disable
                0x0000000000000000       0x10 build/stm32f4xx_ll_fmc.o
 .text.FMC_SDRAM_SendCommand
                0x0000000000000000       0x54 build/stm32f4xx_ll_fmc.o
 .text.FMC_SDRAM_ProgramRefreshRate
                0x0000000000000000        0xc build/stm32f4xx_ll_fmc.o
 .text.FMC_SDRAM_SetAutoRefreshNumber
                0x0000000000000000        0xc build/stm32f4xx_ll_fmc.o
 .text.FMC_SDRAM_GetModeStatus
                0x0000000000000000       0x14 build/stm32f4xx_ll_fmc.o
 .text          0x0000000000000000        0x0 build/stm32f4xx_hal_uart.o
 .data          0x0000000000000000        0x0 build/stm32f4xx_hal_uart.o
 .bss           0x0000000000000000        0x0 build/stm32f4xx_hal_uart.o
 .text.UART_WaitOnFlagUntilTimeout
                0x0000000000000000       0x64 build/stm32f4xx_hal_uart.o
 .text.HAL_UART_MspInit
                0x0000000000000000        0x2 build/stm32f4xx_hal_uart.o
 .text.HAL_HalfDuplex_Init
                0x0000000000000000       0x6a build/stm32f4xx_hal_uart.o
 .text.HAL_LIN_Init
                0x0000000000000000       0x80 build/stm32f4xx_hal_uart.o
 .text.HAL_MultiProcessor_Init
                0x0000000000000000       0x8a build/stm32f4xx_hal_uart.o
 .text.HAL_UART_MspDeInit
                0x0000000000000000        0x2 build/stm32f4xx_hal_uart.o
 .text.HAL_UART_DeInit
                0x0000000000000000       0x30 build/stm32f4xx_hal_uart.o
 .text.HAL_UART_Transmit
                0x0000000000000000       0xe4 build/stm32f4xx_hal_uart.o
 .text.HAL_UART_Receive
                0x0000000000000000       0xea build/stm32f4xx_hal_uart.o
 .text.HAL_UART_Transmit_IT
                0x0000000000000000       0x48 build/stm32f4xx_hal_uart.o
 .text.HAL_UART_Receive_IT
                0x0000000000000000       0x5c build/stm32f4xx_hal_uart.o
 .text.HAL_UART_DMAPause
                0x0000000000000000       0x70 build/stm32f4xx_hal_uart.o
 .text.HAL_UART_DMAResume
                0x0000000000000000       0x76 build/stm32f4xx_hal_uart.o
 .text.HAL_UART_DMAStop
                0x0000000000000000       0x64 build/stm32f4xx_hal_uart.o
 .text.HAL_UART_Abort
                0x0000000000000000       0x94 build/stm32f4xx_hal_uart.o
 .text.HAL_UART_AbortTransmit
                0x0000000000000000       0x4e build/stm32f4xx_hal_uart.o
 .text.HAL_UART_AbortReceive
                0x0000000000000000       0x58 build/stm32f4xx_hal_uart.o
 .text.HAL_UART_TxCpltCallback
                0x0000000000000000        0x2 build/stm32f4xx_hal_uart.o
 .text.HAL_UART_RxCpltCallback
                0x0000000000000000        0x2 build/stm32f4xx_hal_uart.o
 .text.HAL_UART_RxHalfCpltCallback
                0x0000000000000000        0x2 build/stm32f4xx_hal_uart.o
 .text.HAL_UART_ErrorCallback
                0x0000000000000000        0x2 build/stm32f4xx_hal_uart.o
 .text.HAL_UART_AbortCpltCallback
                0x0000000000000000        0x2 build/stm32f4xx_hal_uart.o
 .text.HAL_UART_Abort_IT
                0x0000000000000000       0xc8 build/stm32f4xx_hal_uart.o
 .text.UART_DMARxAbortCallback
                0x0000000000000000       0x2c build/stm32f4xx_hal_uart.o
 .text.UART_DMATxAbortCallback
                0x0000000000000000       0x2c build/stm32f4xx_hal_uart.o
 .text.HAL_UART_AbortTransmitCpltCallback
                0x0000000000000000        0x2 build/stm32f4xx_hal_uart.o
 .text.HAL_UART_AbortTransmit_IT
                0x0000000000000000       0x60 build/stm32f4xx_hal_uart.o
 .text.UART_DMATxOnlyAbortCallback
                0x0000000000000000       0x14 build/stm32f4xx_hal_uart.o
 .text.HAL_UART_AbortReceiveCpltCallback
                0x0000000000000000        0x2 build/stm32f4xx_hal_uart.o
 .text.HAL_UART_AbortReceive_IT
                0x0000000000000000       0x6c build/stm32f4xx_hal_uart.o
 .text.UART_DMARxOnlyAbortCallback
                0x0000000000000000       0x14 build/stm32f4xx_hal_uart.o
 .text.HAL_LIN_SendBreak
                0x0000000000000000       0x32 build/stm32f4xx_hal_uart.o
 .text.HAL_MultiProcessor_EnterMuteMode
                0x0000000000000000       0x32 build/stm32f4xx_hal_uart.o
 .text.HAL_MultiProcessor_ExitMuteMode
                0x0000000000000000       0x32 build/stm32f4xx_hal_uart.o
 .text.HAL_HalfDuplex_EnableTransmitter
                0x0000000000000000       0x36 build/stm32f4xx_hal_uart.o
 .text.HAL_HalfDuplex_EnableReceiver
                0x0000000000000000       0x36 build/stm32f4xx_hal_uart.o
 .text.HAL_UART_GetState
                0x0000000000000000        0xc build/stm32f4xx_hal_uart.o
 .text.HAL_UART_GetError
                0x0000000000000000        0x4 build/stm32f4xx_hal_uart.o
 .data          0x0000000000000000        0x0 build/context_gcc.o
 .bss           0x0000000000000000        0x0 build/context_gcc.o
 .text          0x0000000000000000       0x14 build/startup_stm32f429xx.o
 .data          0x0000000000000000        0x0 build/startup_stm32f429xx.o
 .bss           0x0000000000000000        0x0 build/startup_stm32f429xx.o
 .text          0x0000000000000000        0x0 /opt/gcc-arm-none-eabi-6-2017-q2-update/bin/../lib/gcc/arm-none-eabi/6.3.1/../../../../arm-none-eabi/lib/thumb/v7e-m/fpv4-sp/hard/libc_nano.a(lib_a-atoi.o)
 .data          0x0000000000000000        0x0 /opt/gcc-arm-none-eabi-6-2017-q2-update/bin/../lib/gcc/arm-none-eabi/6.3.1/../../../../arm-none-eabi/lib/thumb/v7e-m/fpv4-sp/hard/libc_nano.a(lib_a-atoi.o)
 .bss           0x0000000000000000        0x0 /opt/gcc-arm-none-eabi-6-2017-q2-update/bin/../lib/gcc/arm-none-eabi/6.3.1/../../../../arm-none-eabi/lib/thumb/v7e-m/fpv4-sp/hard/libc_nano.a(lib_a-atoi.o)
 .text._atoi_r  0x0000000000000000        0x8 /opt/gcc-arm-none-eabi-6-2017-q2-update/bin/../lib/gcc/arm-none-eabi/6.3.1/../../../../arm-none-eabi/lib/thumb/v7e-m/fpv4-sp/hard/libc_nano.a(lib_a-atoi.o)
 .text          0x0000000000000000        0x0 /opt/gcc-arm-none-eabi-6-2017-q2-update/bin/../lib/gcc/arm-none-eabi/6.3.1/../../../../arm-none-eabi/lib/thumb/v7e-m/fpv4-sp/hard/libc_nano.a(lib_a-exit.o)
 .data          0x0000000000000000        0x0 /opt/gcc-arm-none-eabi-6-2017-q2-update/bin/../lib/gcc/arm-none-eabi/6.3.1/../../../../arm-none-eabi/lib/thumb/v7e-m/fpv4-sp/hard/libc_nano.a(lib_a-exit.o)
 .bss           0x0000000000000000        0x0 /opt/gcc-arm-none-eabi-6-2017-q2-update/bin/../lib/gcc/arm-none-eabi/6.3.1/../../../../arm-none-eabi/lib/thumb/v7e-m/fpv4-sp/hard/libc_nano.a(lib_a-exit.o)
 .text.exit     0x0000000000000000       0x28 /opt/gcc-arm-none-eabi-6-2017-q2-update/bin/../lib/gcc/arm-none-eabi/6.3.1/../../../../arm-none-eabi/lib/thumb/v7e-m/fpv4-sp/hard/libc_nano.a(lib_a-exit.o)
 .debug_frame   0x0000000000000000       0x28 /opt/gcc-arm-none-eabi-6-2017-q2-update/bin/../lib/gcc/arm-none-eabi/6.3.1/../../../../arm-none-eabi/lib/thumb/v7e-m/fpv4-sp/hard/libc_nano.a(lib_a-exit.o)
 .ARM.attributes
                0x0000000000000000       0x34 /opt/gcc-arm-none-eabi-6-2017-q2-update/bin/../lib/gcc/arm-none-eabi/6.3.1/../../../../arm-none-eabi/lib/thumb/v7e-m/fpv4-sp/hard/libc_nano.a(lib_a-exit.o)
 .text          0x0000000000000000        0x0 /opt/gcc-arm-none-eabi-6-2017-q2-update/bin/../lib/gcc/arm-none-eabi/6.3.1/../../../../arm-none-eabi/lib/thumb/v7e-m/fpv4-sp/hard/libc_nano.a(lib_a-impure.o)
 .data          0x0000000000000000        0x0 /opt/gcc-arm-none-eabi-6-2017-q2-update/bin/../lib/gcc/arm-none-eabi/6.3.1/../../../../arm-none-eabi/lib/thumb/v7e-m/fpv4-sp/hard/libc_nano.a(lib_a-impure.o)
 .bss           0x0000000000000000        0x0 /opt/gcc-arm-none-eabi-6-2017-q2-update/bin/../lib/gcc/arm-none-eabi/6.3.1/../../../../arm-none-eabi/lib/thumb/v7e-m/fpv4-sp/hard/libc_nano.a(lib_a-impure.o)
 .rodata._global_impure_ptr
                0x0000000000000000        0x4 /opt/gcc-arm-none-eabi-6-2017-q2-update/bin/../lib/gcc/arm-none-eabi/6.3.1/../../../../arm-none-eabi/lib/thumb/v7e-m/fpv4-sp/hard/libc_nano.a(lib_a-impure.o)
 .text          0x0000000000000000        0x0 /opt/gcc-arm-none-eabi-6-2017-q2-update/bin/../lib/gcc/arm-none-eabi/6.3.1/../../../../arm-none-eabi/lib/thumb/v7e-m/fpv4-sp/hard/libc_nano.a(lib_a-init.o)
 .data          0x0000000000000000        0x0 /opt/gcc-arm-none-eabi-6-2017-q2-update/bin/../lib/gcc/arm-none-eabi/6.3.1/../../../../arm-none-eabi/lib/thumb/v7e-m/fpv4-sp/hard/libc_nano.a(lib_a-init.o)
 .bss           0x0000000000000000        0x0 /opt/gcc-arm-none-eabi-6-2017-q2-update/bin/../lib/gcc/arm-none-eabi/6.3.1/../../../../arm-none-eabi/lib/thumb/v7e-m/fpv4-sp/hard/libc_nano.a(lib_a-init.o)
 .text.__libc_init_array
                0x0000000000000000       0x48 /opt/gcc-arm-none-eabi-6-2017-q2-update/bin/../lib/gcc/arm-none-eabi/6.3.1/../../../../arm-none-eabi/lib/thumb/v7e-m/fpv4-sp/hard/libc_nano.a(lib_a-init.o)
 .debug_frame   0x0000000000000000       0x2c /opt/gcc-arm-none-eabi-6-2017-q2-update/bin/../lib/gcc/arm-none-eabi/6.3.1/../../../../arm-none-eabi/lib/thumb/v7e-m/fpv4-sp/hard/libc_nano.a(lib_a-init.o)
 .ARM.attributes
                0x0000000000000000       0x34 /opt/gcc-arm-none-eabi-6-2017-q2-update/bin/../lib/gcc/arm-none-eabi/6.3.1/../../../../arm-none-eabi/lib/thumb/v7e-m/fpv4-sp/hard/libc_nano.a(lib_a-init.o)
 .text          0x0000000000000000        0x0 /opt/gcc-arm-none-eabi-6-2017-q2-update/bin/../lib/gcc/arm-none-eabi/6.3.1/../../../../arm-none-eabi/lib/thumb/v7e-m/fpv4-sp/hard/libc_nano.a(lib_a-memcmp.o)
 .data          0x0000000000000000        0x0 /opt/gcc-arm-none-eabi-6-2017-q2-update/bin/../lib/gcc/arm-none-eabi/6.3.1/../../../../arm-none-eabi/lib/thumb/v7e-m/fpv4-sp/hard/libc_nano.a(lib_a-memcmp.o)
 .bss           0x0000000000000000        0x0 /opt/gcc-arm-none-eabi-6-2017-q2-update/bin/../lib/gcc/arm-none-eabi/6.3.1/../../../../arm-none-eabi/lib/thumb/v7e-m/fpv4-sp/hard/libc_nano.a(lib_a-memcmp.o)
 .text          0x0000000000000000        0x0 /opt/gcc-arm-none-eabi-6-2017-q2-update/bin/../lib/gcc/arm-none-eabi/6.3.1/../../../../arm-none-eabi/lib/thumb/v7e-m/fpv4-sp/hard/libc_nano.a(lib_a-memcpy-stub.o)
 .data          0x0000000000000000        0x0 /opt/gcc-arm-none-eabi-6-2017-q2-update/bin/../lib/gcc/arm-none-eabi/6.3.1/../../../../arm-none-eabi/lib/thumb/v7e-m/fpv4-sp/hard/libc_nano.a(lib_a-memcpy-stub.o)
 .bss           0x0000000000000000        0x0 /opt/gcc-arm-none-eabi-6-2017-q2-update/bin/../lib/gcc/arm-none-eabi/6.3.1/../../../../arm-none-eabi/lib/thumb/v7e-m/fpv4-sp/hard/libc_nano.a(lib_a-memcpy-stub.o)
 .text          0x0000000000000000        0x0 /opt/gcc-arm-none-eabi-6-2017-q2-update/bin/../lib/gcc/arm-none-eabi/6.3.1/../../../../arm-none-eabi/lib/thumb/v7e-m/fpv4-sp/hard/libc_nano.a(lib_a-memset.o)
 .data          0x0000000000000000        0x0 /opt/gcc-arm-none-eabi-6-2017-q2-update/bin/../lib/gcc/arm-none-eabi/6.3.1/../../../../arm-none-eabi/lib/thumb/v7e-m/fpv4-sp/hard/libc_nano.a(lib_a-memset.o)
 .bss           0x0000000000000000        0x0 /opt/gcc-arm-none-eabi-6-2017-q2-update/bin/../lib/gcc/arm-none-eabi/6.3.1/../../../../arm-none-eabi/lib/thumb/v7e-m/fpv4-sp/hard/libc_nano.a(lib_a-memset.o)
 .text          0x0000000000000000       0x14 /opt/gcc-arm-none-eabi-6-2017-q2-update/bin/../lib/gcc/arm-none-eabi/6.3.1/../../../../arm-none-eabi/lib/thumb/v7e-m/fpv4-sp/hard/libc_nano.a(lib_a-strcmp.o)
 .data          0x0000000000000000        0x0 /opt/gcc-arm-none-eabi-6-2017-q2-update/bin/../lib/gcc/arm-none-eabi/6.3.1/../../../../arm-none-eabi/lib/thumb/v7e-m/fpv4-sp/hard/libc_nano.a(lib_a-strcmp.o)
 .bss           0x0000000000000000        0x0 /opt/gcc-arm-none-eabi-6-2017-q2-update/bin/../lib/gcc/arm-none-eabi/6.3.1/../../../../arm-none-eabi/lib/thumb/v7e-m/fpv4-sp/hard/libc_nano.a(lib_a-strcmp.o)
 .debug_frame   0x0000000000000000       0x20 /opt/gcc-arm-none-eabi-6-2017-q2-update/bin/../lib/gcc/arm-none-eabi/6.3.1/../../../../arm-none-eabi/lib/thumb/v7e-m/fpv4-sp/hard/libc_nano.a(lib_a-strcmp.o)
 .ARM.attributes
                0x0000000000000000       0x20 /opt/gcc-arm-none-eabi-6-2017-q2-update/bin/../lib/gcc/arm-none-eabi/6.3.1/../../../../arm-none-eabi/lib/thumb/v7e-m/fpv4-sp/hard/libc_nano.a(lib_a-strcmp.o)
 .text          0x0000000000000000        0x0 /opt/gcc-arm-none-eabi-6-2017-q2-update/bin/../lib/gcc/arm-none-eabi/6.3.1/../../../../arm-none-eabi/lib/thumb/v7e-m/fpv4-sp/hard/libc_nano.a(lib_a-strcpy.o)
 .data          0x0000000000000000        0x0 /opt/gcc-arm-none-eabi-6-2017-q2-update/bin/../lib/gcc/arm-none-eabi/6.3.1/../../../../arm-none-eabi/lib/thumb/v7e-m/fpv4-sp/hard/libc_nano.a(lib_a-strcpy.o)
 .bss           0x0000000000000000        0x0 /opt/gcc-arm-none-eabi-6-2017-q2-update/bin/../lib/gcc/arm-none-eabi/6.3.1/../../../../arm-none-eabi/lib/thumb/v7e-m/fpv4-sp/hard/libc_nano.a(lib_a-strcpy.o)
 .text.strcpy   0x0000000000000000       0x10 /opt/gcc-arm-none-eabi-6-2017-q2-update/bin/../lib/gcc/arm-none-eabi/6.3.1/../../../../arm-none-eabi/lib/thumb/v7e-m/fpv4-sp/hard/libc_nano.a(lib_a-strcpy.o)
 .debug_frame   0x0000000000000000       0x20 /opt/gcc-arm-none-eabi-6-2017-q2-update/bin/../lib/gcc/arm-none-eabi/6.3.1/../../../../arm-none-eabi/lib/thumb/v7e-m/fpv4-sp/hard/libc_nano.a(lib_a-strcpy.o)
 .ARM.attributes
                0x0000000000000000       0x34 /opt/gcc-arm-none-eabi-6-2017-q2-update/bin/../lib/gcc/arm-none-eabi/6.3.1/../../../../arm-none-eabi/lib/thumb/v7e-m/fpv4-sp/hard/libc_nano.a(lib_a-strcpy.o)
 .data          0x0000000000000000        0x0 /opt/gcc-arm-none-eabi-6-2017-q2-update/bin/../lib/gcc/arm-none-eabi/6.3.1/../../../../arm-none-eabi/lib/thumb/v7e-m/fpv4-sp/hard/libc_nano.a(lib_a-strlen.o)
 .bss           0x0000000000000000        0x0 /opt/gcc-arm-none-eabi-6-2017-q2-update/bin/../lib/gcc/arm-none-eabi/6.3.1/../../../../arm-none-eabi/lib/thumb/v7e-m/fpv4-sp/hard/libc_nano.a(lib_a-strlen.o)
 .text          0x0000000000000000        0x0 /opt/gcc-arm-none-eabi-6-2017-q2-update/bin/../lib/gcc/arm-none-eabi/6.3.1/../../../../arm-none-eabi/lib/thumb/v7e-m/fpv4-sp/hard/libc_nano.a(lib_a-strncmp.o)
 .data          0x0000000000000000        0x0 /opt/gcc-arm-none-eabi-6-2017-q2-update/bin/../lib/gcc/arm-none-eabi/6.3.1/../../../../arm-none-eabi/lib/thumb/v7e-m/fpv4-sp/hard/libc_nano.a(lib_a-strncmp.o)
 .bss           0x0000000000000000        0x0 /opt/gcc-arm-none-eabi-6-2017-q2-update/bin/../lib/gcc/arm-none-eabi/6.3.1/../../../../arm-none-eabi/lib/thumb/v7e-m/fpv4-sp/hard/libc_nano.a(lib_a-strncmp.o)
 .text          0x0000000000000000        0x0 /opt/gcc-arm-none-eabi-6-2017-q2-update/bin/../lib/gcc/arm-none-eabi/6.3.1/../../../../arm-none-eabi/lib/thumb/v7e-m/fpv4-sp/hard/libc_nano.a(lib_a-strncpy.o)
 .data          0x0000000000000000        0x0 /opt/gcc-arm-none-eabi-6-2017-q2-update/bin/../lib/gcc/arm-none-eabi/6.3.1/../../../../arm-none-eabi/lib/thumb/v7e-m/fpv4-sp/hard/libc_nano.a(lib_a-strncpy.o)
 .bss           0x0000000000000000        0x0 /opt/gcc-arm-none-eabi-6-2017-q2-update/bin/../lib/gcc/arm-none-eabi/6.3.1/../../../../arm-none-eabi/lib/thumb/v7e-m/fpv4-sp/hard/libc_nano.a(lib_a-strncpy.o)
 .text          0x0000000000000000        0x0 /opt/gcc-arm-none-eabi-6-2017-q2-update/bin/../lib/gcc/arm-none-eabi/6.3.1/../../../../arm-none-eabi/lib/thumb/v7e-m/fpv4-sp/hard/libc_nano.a(lib_a-strtol.o)
 .data          0x0000000000000000        0x0 /opt/gcc-arm-none-eabi-6-2017-q2-update/bin/../lib/gcc/arm-none-eabi/6.3.1/../../../../arm-none-eabi/lib/thumb/v7e-m/fpv4-sp/hard/libc_nano.a(lib_a-strtol.o)
 .bss           0x0000000000000000        0x0 /opt/gcc-arm-none-eabi-6-2017-q2-update/bin/../lib/gcc/arm-none-eabi/6.3.1/../../../../arm-none-eabi/lib/thumb/v7e-m/fpv4-sp/hard/libc_nano.a(lib_a-strtol.o)
 .text._strtol_r
                0x0000000000000000       0x24 /opt/gcc-arm-none-eabi-6-2017-q2-update/bin/../lib/gcc/arm-none-eabi/6.3.1/../../../../arm-none-eabi/lib/thumb/v7e-m/fpv4-sp/hard/libc_nano.a(lib_a-strtol.o)
 .text.strtol_l
                0x0000000000000000       0x1c /opt/gcc-arm-none-eabi-6-2017-q2-update/bin/../lib/gcc/arm-none-eabi/6.3.1/../../../../arm-none-eabi/lib/thumb/v7e-m/fpv4-sp/hard/libc_nano.a(lib_a-strtol.o)
 .text          0x0000000000000000        0x0 /opt/gcc-arm-none-eabi-6-2017-q2-update/bin/../lib/gcc/arm-none-eabi/6.3.1/../../../../arm-none-eabi/lib/thumb/v7e-m/fpv4-sp/hard/libc_nano.a(lib_a-locale.o)
 .data          0x0000000000000000        0x0 /opt/gcc-arm-none-eabi-6-2017-q2-update/bin/../lib/gcc/arm-none-eabi/6.3.1/../../../../arm-none-eabi/lib/thumb/v7e-m/fpv4-sp/hard/libc_nano.a(lib_a-locale.o)
 .bss           0x0000000000000000        0x0 /opt/gcc-arm-none-eabi-6-2017-q2-update/bin/../lib/gcc/arm-none-eabi/6.3.1/../../../../arm-none-eabi/lib/thumb/v7e-m/fpv4-sp/hard/libc_nano.a(lib_a-locale.o)
 .text._setlocale_r
                0x0000000000000000       0x38 /opt/gcc-arm-none-eabi-6-2017-q2-update/bin/../lib/gcc/arm-none-eabi/6.3.1/../../../../arm-none-eabi/lib/thumb/v7e-m/fpv4-sp/hard/libc_nano.a(lib_a-locale.o)
 .text.__locale_mb_cur_max
                0x0000000000000000       0x1c /opt/gcc-arm-none-eabi-6-2017-q2-update/bin/../lib/gcc/arm-none-eabi/6.3.1/../../../../arm-none-eabi/lib/thumb/v7e-m/fpv4-sp/hard/libc_nano.a(lib_a-locale.o)
 .text.__locale_ctype_ptr
                0x0000000000000000       0x1c /opt/gcc-arm-none-eabi-6-2017-q2-update/bin/../lib/gcc/arm-none-eabi/6.3.1/../../../../arm-none-eabi/lib/thumb/v7e-m/fpv4-sp/hard/libc_nano.a(lib_a-locale.o)
 .text.setlocale
                0x0000000000000000       0x10 /opt/gcc-arm-none-eabi-6-2017-q2-update/bin/../lib/gcc/arm-none-eabi/6.3.1/../../../../arm-none-eabi/lib/thumb/v7e-m/fpv4-sp/hard/libc_nano.a(lib_a-locale.o)
 .bss._PathLocale
                0x0000000000000000        0x4 /opt/gcc-arm-none-eabi-6-2017-q2-update/bin/../lib/gcc/arm-none-eabi/6.3.1/../../../../arm-none-eabi/lib/thumb/v7e-m/fpv4-sp/hard/libc_nano.a(lib_a-locale.o)
 .text          0x0000000000000000        0x0 /opt/gcc-arm-none-eabi-6-2017-q2-update/bin/../lib/gcc/arm-none-eabi/6.3.1/../../../../arm-none-eabi/lib/thumb/v7e-m/fpv4-sp/hard/libc_nano.a(lib_a-mbtowc_r.o)
 .data          0x0000000000000000        0x0 /opt/gcc-arm-none-eabi-6-2017-q2-update/bin/../lib/gcc/arm-none-eabi/6.3.1/../../../../arm-none-eabi/lib/thumb/v7e-m/fpv4-sp/hard/libc_nano.a(lib_a-mbtowc_r.o)
 .bss           0x0000000000000000        0x0 /opt/gcc-arm-none-eabi-6-2017-q2-update/bin/../lib/gcc/arm-none-eabi/6.3.1/../../../../arm-none-eabi/lib/thumb/v7e-m/fpv4-sp/hard/libc_nano.a(lib_a-mbtowc_r.o)
 .text._mbtowc_r
                0x0000000000000000       0x24 /opt/gcc-arm-none-eabi-6-2017-q2-update/bin/../lib/gcc/arm-none-eabi/6.3.1/../../../../arm-none-eabi/lib/thumb/v7e-m/fpv4-sp/hard/libc_nano.a(lib_a-mbtowc_r.o)
 .text          0x0000000000000000        0x0 /opt/gcc-arm-none-eabi-6-2017-q2-update/bin/../lib/gcc/arm-none-eabi/6.3.1/../../../../arm-none-eabi/lib/thumb/v7e-m/fpv4-sp/hard/libc_nano.a(lib_a-wctomb_r.o)
 .data          0x0000000000000000        0x0 /opt/gcc-arm-none-eabi-6-2017-q2-update/bin/../lib/gcc/arm-none-eabi/6.3.1/../../../../arm-none-eabi/lib/thumb/v7e-m/fpv4-sp/hard/libc_nano.a(lib_a-wctomb_r.o)
 .bss           0x0000000000000000        0x0 /opt/gcc-arm-none-eabi-6-2017-q2-update/bin/../lib/gcc/arm-none-eabi/6.3.1/../../../../arm-none-eabi/lib/thumb/v7e-m/fpv4-sp/hard/libc_nano.a(lib_a-wctomb_r.o)
 .text._wctomb_r
                0x0000000000000000       0x24 /opt/gcc-arm-none-eabi-6-2017-q2-update/bin/../lib/gcc/arm-none-eabi/6.3.1/../../../../arm-none-eabi/lib/thumb/v7e-m/fpv4-sp/hard/libc_nano.a(lib_a-wctomb_r.o)
 .text          0x0000000000000000        0x0 /opt/gcc-arm-none-eabi-6-2017-q2-update/bin/../lib/gcc/arm-none-eabi/6.3.1/../../../../arm-none-eabi/lib/thumb/v7e-m/fpv4-sp/hard/libc_nano.a(lib_a-ctype_.o)
 .data          0x0000000000000000        0x0 /opt/gcc-arm-none-eabi-6-2017-q2-update/bin/../lib/gcc/arm-none-eabi/6.3.1/../../../../arm-none-eabi/lib/thumb/v7e-m/fpv4-sp/hard/libc_nano.a(lib_a-ctype_.o)
 .bss           0x0000000000000000        0x0 /opt/gcc-arm-none-eabi-6-2017-q2-update/bin/../lib/gcc/arm-none-eabi/6.3.1/../../../../arm-none-eabi/lib/thumb/v7e-m/fpv4-sp/hard/libc_nano.a(lib_a-ctype_.o)
 .text          0x0000000000000000        0x0 /opt/gcc-arm-none-eabi-6-2017-q2-update/bin/../lib/gcc/arm-none-eabi/6.3.1/../../../../arm-none-eabi/lib/thumb/v7e-m/fpv4-sp/hard/libnosys.a(_exit.o)
 .data          0x0000000000000000        0x0 /opt/gcc-arm-none-eabi-6-2017-q2-update/bin/../lib/gcc/arm-none-eabi/6.3.1/../../../../arm-none-eabi/lib/thumb/v7e-m/fpv4-sp/hard/libnosys.a(_exit.o)
 .bss           0x0000000000000000        0x0 /opt/gcc-arm-none-eabi-6-2017-q2-update/bin/../lib/gcc/arm-none-eabi/6.3.1/../../../../arm-none-eabi/lib/thumb/v7e-m/fpv4-sp/hard/libnosys.a(_exit.o)
 .text._exit    0x0000000000000000        0x4 /opt/gcc-arm-none-eabi-6-2017-q2-update/bin/../lib/gcc/arm-none-eabi/6.3.1/../../../../arm-none-eabi/lib/thumb/v7e-m/fpv4-sp/hard/libnosys.a(_exit.o)
 .debug_frame   0x0000000000000000       0x20 /opt/gcc-arm-none-eabi-6-2017-q2-update/bin/../lib/gcc/arm-none-eabi/6.3.1/../../../../arm-none-eabi/lib/thumb/v7e-m/fpv4-sp/hard/libnosys.a(_exit.o)
 .ARM.attributes
                0x0000000000000000       0x34 /opt/gcc-arm-none-eabi-6-2017-q2-update/bin/../lib/gcc/arm-none-eabi/6.3.1/../../../../arm-none-eabi/lib/thumb/v7e-m/fpv4-sp/hard/libnosys.a(_exit.o)
 .data          0x0000000000000000        0x0 /opt/gcc-arm-none-eabi-6-2017-q2-update/bin/../lib/gcc/arm-none-eabi/6.3.1/thumb/v7e-m/fpv4-sp/hard/libgcc.a(_aeabi_uldivmod.o)
 .bss           0x0000000000000000        0x0 /opt/gcc-arm-none-eabi-6-2017-q2-update/bin/../lib/gcc/arm-none-eabi/6.3.1/thumb/v7e-m/fpv4-sp/hard/libgcc.a(_aeabi_uldivmod.o)
 .data          0x0000000000000000        0x0 /opt/gcc-arm-none-eabi-6-2017-q2-update/bin/../lib/gcc/arm-none-eabi/6.3.1/thumb/v7e-m/fpv4-sp/hard/libgcc.a(_udivmoddi4.o)
 .bss           0x0000000000000000        0x0 /opt/gcc-arm-none-eabi-6-2017-q2-update/bin/../lib/gcc/arm-none-eabi/6.3.1/thumb/v7e-m/fpv4-sp/hard/libgcc.a(_udivmoddi4.o)
 .ARM.extab     0x0000000000000000        0x0 /opt/gcc-arm-none-eabi-6-2017-q2-update/bin/../lib/gcc/arm-none-eabi/6.3.1/thumb/v7e-m/fpv4-sp/hard/libgcc.a(_udivmoddi4.o)
 .data          0x0000000000000000        0x0 /opt/gcc-arm-none-eabi-6-2017-q2-update/bin/../lib/gcc/arm-none-eabi/6.3.1/thumb/v7e-m/fpv4-sp/hard/libgcc.a(_dvmd_tls.o)
 .bss           0x0000000000000000        0x0 /opt/gcc-arm-none-eabi-6-2017-q2-update/bin/../lib/gcc/arm-none-eabi/6.3.1/thumb/v7e-m/fpv4-sp/hard/libgcc.a(_dvmd_tls.o)
 .text          0x0000000000000000        0x0 /opt/gcc-arm-none-eabi-6-2017-q2-update/bin/../lib/gcc/arm-none-eabi/6.3.1/thumb/v7e-m/fpv4-sp/hard/crtend.o
 .data          0x0000000000000000        0x0 /opt/gcc-arm-none-eabi-6-2017-q2-update/bin/../lib/gcc/arm-none-eabi/6.3.1/thumb/v7e-m/fpv4-sp/hard/crtend.o
 .bss           0x0000000000000000        0x0 /opt/gcc-arm-none-eabi-6-2017-q2-update/bin/../lib/gcc/arm-none-eabi/6.3.1/thumb/v7e-m/fpv4-sp/hard/crtend.o
 .eh_frame      0x0000000000000000        0x4 /opt/gcc-arm-none-eabi-6-2017-q2-update/bin/../lib/gcc/arm-none-eabi/6.3.1/thumb/v7e-m/fpv4-sp/hard/crtend.o
 .jcr           0x0000000000000000        0x4 /opt/gcc-arm-none-eabi-6-2017-q2-update/bin/../lib/gcc/arm-none-eabi/6.3.1/thumb/v7e-m/fpv4-sp/hard/crtend.o
 .ARM.attributes
                0x0000000000000000       0x34 /opt/gcc-arm-none-eabi-6-2017-q2-update/bin/../lib/gcc/arm-none-eabi/6.3.1/thumb/v7e-m/fpv4-sp/hard/crtend.o
 .text          0x0000000000000000        0x0 /opt/gcc-arm-none-eabi-6-2017-q2-update/bin/../lib/gcc/arm-none-eabi/6.3.1/thumb/v7e-m/fpv4-sp/hard/crtn.o
 .data          0x0000000000000000        0x0 /opt/gcc-arm-none-eabi-6-2017-q2-update/bin/../lib/gcc/arm-none-eabi/6.3.1/thumb/v7e-m/fpv4-sp/hard/crtn.o
 .bss           0x0000000000000000        0x0 /opt/gcc-arm-none-eabi-6-2017-q2-update/bin/../lib/gcc/arm-none-eabi/6.3.1/thumb/v7e-m/fpv4-sp/hard/crtn.o
 .init          0x0000000000000000        0x8 /opt/gcc-arm-none-eabi-6-2017-q2-update/bin/../lib/gcc/arm-none-eabi/6.3.1/thumb/v7e-m/fpv4-sp/hard/crtn.o
 .fini          0x0000000000000000        0x8 /opt/gcc-arm-none-eabi-6-2017-q2-update/bin/../lib/gcc/arm-none-eabi/6.3.1/thumb/v7e-m/fpv4-sp/hard/crtn.o
 .ARM.attributes
                0x0000000000000000       0x22 /opt/gcc-arm-none-eabi-6-2017-q2-update/bin/../lib/gcc/arm-none-eabi/6.3.1/thumb/v7e-m/fpv4-sp/hard/crtn.o

Memory Configuration

Name             Origin             Length             Attributes
CODE             0x0000000008000000 0x0000000000100000 xr
RAM1             0x0000000020000000 0x0000000000030000 rw
RAM2             0x0000000010000000 0x0000000000010000 rw
*default*        0x0000000000000000 0xffffffffffffffff

Linker script and memory map

LOAD /opt/gcc-arm-none-eabi-6-2017-q2-update/bin/../lib/gcc/arm-none-eabi/6.3.1/thumb/v7e-m/fpv4-sp/hard/crti.o
LOAD /opt/gcc-arm-none-eabi-6-2017-q2-update/bin/../lib/gcc/arm-none-eabi/6.3.1/thumb/v7e-m/fpv4-sp/hard/crtbegin.o
LOAD /opt/gcc-arm-none-eabi-6-2017-q2-update/bin/../lib/gcc/arm-none-eabi/6.3.1/../../../../arm-none-eabi/lib/thumb/v7e-m/fpv4-sp/hard/crt0.o
LOAD build/board.o
LOAD build/beep.o
LOAD build/button.o
LOAD build/decode.o
LOAD build/key.o
LOAD build/font.o
LOAD build/ili9341.o
LOAD build/led.o
LOAD build/pcf8574.o
LOAD build/pcf8574_sample.o
LOAD build/player.o
LOAD build/serial.o
LOAD build/completion.o
LOAD build/dataqueue.o
LOAD build/pipe.o
LOAD build/ringblk_buf.o
LOAD build/ringbuffer.o
LOAD build/waitqueue.o
LOAD build/workqueue.o
LOAD build/cmd.o
LOAD build/finsh_compiler.o
LOAD build/finsh_error.o
LOAD build/finsh_heap.o
LOAD build/finsh_init.o
LOAD build/finsh_node.o
LOAD build/finsh_ops.o
LOAD build/finsh_parser.o
LOAD build/finsh_token.o
LOAD build/finsh_var.o
LOAD build/finsh_vm.o
LOAD build/msh.o
LOAD build/msh_file.o
LOAD build/shell.o
LOAD build/symbol.o
LOAD build/cpuport.o
LOAD build/clock.o
LOAD build/components.o
LOAD build/cpu.o
LOAD build/device.o
LOAD build/idle.o
LOAD build/ipc.o
LOAD build/irq.o
LOAD build/kservice.o
LOAD build/mem.o
LOAD build/memheap.o
LOAD build/mempool.o
LOAD build/object.o
LOAD build/scheduler.o
LOAD build/signal.o
LOAD build/slab.o
LOAD build/thread.o
LOAD build/timer.o
LOAD build/delay.o
LOAD build/sys.o
LOAD build/main.o
LOAD build/stm32f4xx_hal_msp.o
LOAD build/stm32f4xx_it.o
LOAD build/system_stm32f4xx.o
LOAD build/drv_gpio.o
LOAD build/drv_i2c.o
LOAD build/drv_usart.o
LOAD build/drv_pwm.o
LOAD build/pin.o
LOAD build/rt_drv_pwm.o
LOAD build/i2c-bit-ops.o
LOAD build/i2c_core.o
LOAD build/i2c_dev.o
LOAD build/stm32f4xx_hal_tim.o
LOAD build/stm32f4xx_hal_tim_ex.o
LOAD build/stm32f4xx_hal_rcc.o
LOAD build/stm32f4xx_hal_rcc_ex.o
LOAD build/stm32f4xx_hal_rtc.o
LOAD build/stm32f4xx_hal_flash.o
LOAD build/stm32f4xx_hal_flash_ex.o
LOAD build/stm32f4xx_hal_flash_ramfunc.o
LOAD build/stm32f4xx_hal_gpio.o
LOAD build/stm32f4xx_hal_dma.o
LOAD build/stm32f4xx_hal_pwr.o
LOAD build/stm32f4xx_hal_pwr_ex.o
LOAD build/stm32f4xx_hal_cortex.o
LOAD build/stm32f4xx_hal.o
LOAD build/stm32f4xx_hal_sram.o
LOAD build/stm32f4xx_ll_fmc.o
LOAD build/stm32f4xx_hal_uart.o
LOAD build/context_gcc.o
LOAD build/startup_stm32f429xx.o
LOAD /opt/gcc-arm-none-eabi-6-2017-q2-update/bin/../lib/gcc/arm-none-eabi/6.3.1/../../../../arm-none-eabi/lib/thumb/v7e-m/fpv4-sp/hard/libc_nano.a
LOAD /opt/gcc-arm-none-eabi-6-2017-q2-update/bin/../lib/gcc/arm-none-eabi/6.3.1/../../../../arm-none-eabi/lib/thumb/v7e-m/fpv4-sp/hard/libm.a
LOAD /opt/gcc-arm-none-eabi-6-2017-q2-update/bin/../lib/gcc/arm-none-eabi/6.3.1/../../../../arm-none-eabi/lib/thumb/v7e-m/fpv4-sp/hard/libnosys.a
START GROUP
LOAD /opt/gcc-arm-none-eabi-6-2017-q2-update/bin/../lib/gcc/arm-none-eabi/6.3.1/thumb/v7e-m/fpv4-sp/hard/libgcc.a
LOAD /opt/gcc-arm-none-eabi-6-2017-q2-update/bin/../lib/gcc/arm-none-eabi/6.3.1/../../../../arm-none-eabi/lib/thumb/v7e-m/fpv4-sp/hard/libc_nano.a
END GROUP
START GROUP
LOAD /opt/gcc-arm-none-eabi-6-2017-q2-update/bin/../lib/gcc/arm-none-eabi/6.3.1/thumb/v7e-m/fpv4-sp/hard/libgcc.a
LOAD /opt/gcc-arm-none-eabi-6-2017-q2-update/bin/../lib/gcc/arm-none-eabi/6.3.1/../../../../arm-none-eabi/lib/thumb/v7e-m/fpv4-sp/hard/libc_nano.a
END GROUP
LOAD /opt/gcc-arm-none-eabi-6-2017-q2-update/bin/../lib/gcc/arm-none-eabi/6.3.1/thumb/v7e-m/fpv4-sp/hard/crtend.o
LOAD /opt/gcc-arm-none-eabi-6-2017-q2-update/bin/../lib/gcc/arm-none-eabi/6.3.1/thumb/v7e-m/fpv4-sp/hard/crtn.o
                0x0000000000000200                _system_stack_size = 0x200

.text           0x0000000008000000    0x10028
                0x0000000008000000                . = ALIGN (0x4)
                0x0000000008000000                _stext = .
 *(.isr_vector)
 .isr_vector    0x0000000008000000      0x1ac build/startup_stm32f429xx.o
                0x0000000008000000                g_pfnVectors
                0x00000000080001ac                . = ALIGN (0x4)
 *(.text)
 .text          0x00000000080001ac       0x6c /opt/gcc-arm-none-eabi-6-2017-q2-update/bin/../lib/gcc/arm-none-eabi/6.3.1/thumb/v7e-m/fpv4-sp/hard/crtbegin.o
 .text          0x0000000008000218      0x138 build/context_gcc.o
                0x0000000008000218                rt_hw_interrupt_disable
                0x0000000008000220                rt_hw_interrupt_enable
                0x0000000008000226                rt_hw_context_switch_interrupt
                0x0000000008000226                rt_hw_context_switch
                0x0000000008000246                PendSV_Handler
                0x00000000080002b2                rt_hw_context_switch_to
                0x00000000080002fa                rt_hw_interrupt_thread_switch
                0x00000000080002fe                HardFault_Handler
 .text          0x0000000008000350       0x10 /opt/gcc-arm-none-eabi-6-2017-q2-update/bin/../lib/gcc/arm-none-eabi/6.3.1/../../../../arm-none-eabi/lib/thumb/v7e-m/fpv4-sp/hard/libc_nano.a(lib_a-strlen.o)
                0x0000000008000350                strlen
 .text          0x0000000008000360       0x30 /opt/gcc-arm-none-eabi-6-2017-q2-update/bin/../lib/gcc/arm-none-eabi/6.3.1/thumb/v7e-m/fpv4-sp/hard/libgcc.a(_aeabi_uldivmod.o)
                0x0000000008000360                __aeabi_uldivmod
 .text          0x0000000008000390      0x2dc /opt/gcc-arm-none-eabi-6-2017-q2-update/bin/../lib/gcc/arm-none-eabi/6.3.1/thumb/v7e-m/fpv4-sp/hard/libgcc.a(_udivmoddi4.o)
                0x0000000008000390                __udivmoddi4
 .text          0x000000000800066c        0x4 /opt/gcc-arm-none-eabi-6-2017-q2-update/bin/../lib/gcc/arm-none-eabi/6.3.1/thumb/v7e-m/fpv4-sp/hard/libgcc.a(_dvmd_tls.o)
                0x000000000800066c                __aeabi_ldiv0
                0x000000000800066c                __aeabi_idiv0
 *(.text.*)
 .text.rt_heap_begin_get
                0x0000000008000670        0x8 build/board.o
                0x0000000008000670                rt_heap_begin_get
 .text.rt_heap_end_get
                0x0000000008000678        0x8 build/board.o
                0x0000000008000678                rt_heap_end_get
 .text.SystemClock_Config
                0x0000000008000680       0x98 build/board.o
                0x0000000008000680                SystemClock_Config
 .text.rt_hw_board_init
                0x0000000008000718       0x50 build/board.o
                0x0000000008000718                rt_hw_board_init
 .text.SysTick_Handler
                0x0000000008000768       0x10 build/board.o
                0x0000000008000768                SysTick_Handler
 .text.rt_hw_console_output
                0x0000000008000778       0x44 build/board.o
                0x0000000008000778                rt_hw_console_output
 .text.HAL_UART_MspInit
                0x00000000080007bc       0x74 build/board.o
                0x00000000080007bc                HAL_UART_MspInit
 .text.HAL_TIM_PWM_MspInit
                0x0000000008000830       0x30 build/board.o
                0x0000000008000830                HAL_TIM_PWM_MspInit
 .text.HAL_TIM_MspPostInit
                0x0000000008000860       0x54 build/board.o
                0x0000000008000860                HAL_TIM_MspPostInit
 .text.beep_init
                0x00000000080008b4       0x20 build/beep.o
                0x00000000080008b4                beep_init
 .text.beep_on  0x00000000080008d4       0x14 build/beep.o
                0x00000000080008d4                beep_on
 .text.beep_off
                0x00000000080008e8       0x14 build/beep.o
                0x00000000080008e8                beep_off
 .text.beep_set
                0x00000000080008fc       0x30 build/beep.o
                0x00000000080008fc                beep_set
 .text.my_button_scan
                0x000000000800092c       0xe4 build/button.o
 .text.my_button_register
                0x0000000008000a10       0x38 build/button.o
                0x0000000008000a10                my_button_register
 .text.my_button_start
                0x0000000008000a48       0x44 build/button.o
                0x0000000008000a48                my_button_start
 .text.beep_song_decode_new_freq
                0x0000000008000a8c       0x60 build/decode.o
 .text.beep_song_decode
                0x0000000008000aec       0xf0 build/decode.o
 .text.beep_song_get_len
                0x0000000008000bdc       0x14 build/decode.o
                0x0000000008000bdc                beep_song_get_len
 .text.beep_song_get_name
                0x0000000008000bf0       0x14 build/decode.o
                0x0000000008000bf0                beep_song_get_name
 .text.beep_song_get_data
                0x0000000008000c04       0x22 build/decode.o
                0x0000000008000c04                beep_song_get_data
 .text.beep_song_decode_init
                0x0000000008000c26        0xe build/decode.o
                0x0000000008000c26                beep_song_decode_init
 .text.beep_key_press_long
                0x0000000008000c34       0x64 build/key.o
 .text.beep_key_press_short
                0x0000000008000c98       0x58 build/key.o
 .text.btn_cb   0x0000000008000cf0       0x1e build/key.o
                0x0000000008000cf0                btn_cb
 *fill*         0x0000000008000d0e        0x2 00000000
 .text.key_init
                0x0000000008000d10       0x58 build/key.o
                0x0000000008000d10                key_init
 .text.LCD_WR_REG
                0x0000000008000d68       0x24 build/ili9341.o
                0x0000000008000d68                LCD_WR_REG
 .text.LCD_WR_DATA
                0x0000000008000d8c       0x24 build/ili9341.o
                0x0000000008000d8c                LCD_WR_DATA
 .text.LCD_RD_DATA
                0x0000000008000db0       0x1c build/ili9341.o
                0x0000000008000db0                LCD_RD_DATA
 .text.LCD_WriteReg
                0x0000000008000dcc        0xc build/ili9341.o
                0x0000000008000dcc                LCD_WriteReg
 .text.LCD_WriteRAM_Prepare
                0x0000000008000dd8       0x14 build/ili9341.o
                0x0000000008000dd8                LCD_WriteRAM_Prepare
 .text.LCD_SetCursor
                0x0000000008000dec       0x34 build/ili9341.o
                0x0000000008000dec                LCD_SetCursor
 .text.LCD_Scan_Dir
                0x0000000008000e20       0x3e build/ili9341.o
                0x0000000008000e20                LCD_Scan_Dir
 *fill*         0x0000000008000e5e        0x2 00000000
 .text.LCD_Fast_DrawPoint
                0x0000000008000e60       0x44 build/ili9341.o
                0x0000000008000e60                LCD_Fast_DrawPoint
 .text.LCD_Display_Dir
                0x0000000008000ea4       0x4c build/ili9341.o
                0x0000000008000ea4                LCD_Display_Dir
 .text.HAL_SRAM_MspInit
                0x0000000008000ef0       0x84 build/ili9341.o
                0x0000000008000ef0                HAL_SRAM_MspInit
 .text.LCD_Clear
                0x0000000008000f74       0x34 build/ili9341.o
                0x0000000008000f74                LCD_Clear
 .text.LCD_Init
                0x0000000008000fa8      0x310 build/ili9341.o
                0x0000000008000fa8                LCD_Init
 .text.LCD_ShowChar
                0x00000000080012b8      0x108 build/ili9341.o
                0x00000000080012b8                LCD_ShowChar
 .text.LCD_Pow  0x00000000080013c0       0x16 build/ili9341.o
                0x00000000080013c0                LCD_Pow
 *fill*         0x00000000080013d6        0x2 00000000
 .text.LCD_ShowxNum
                0x00000000080013d8       0xb8 build/ili9341.o
                0x00000000080013d8                LCD_ShowxNum
 .text.LCD_ShowString
                0x0000000008001490       0x5a build/ili9341.o
                0x0000000008001490                LCD_ShowString
 .text.led_on   0x00000000080014ea        0xe build/led.o
                0x00000000080014ea                led_on
 .text.led_off  0x00000000080014f8        0xe build/led.o
                0x00000000080014f8                led_off
 .text.led_init
                0x0000000008001506       0x12 build/led.o
                0x0000000008001506                led_init
 .text.led_toggle
                0x0000000008001518       0x18 build/led.o
                0x0000000008001518                led_toggle
 .text.pcf8574_port_read
                0x0000000008001530       0x1c build/pcf8574.o
                0x0000000008001530                pcf8574_port_read
 .text.pcf8574_port_write
                0x000000000800154c       0x1a build/pcf8574.o
                0x000000000800154c                pcf8574_port_write
 .text.pcf8574_pin_read
                0x0000000008001566       0x18 build/pcf8574.o
                0x0000000008001566                pcf8574_pin_read
 .text.pcf8574_pin_write
                0x000000000800157e       0x2a build/pcf8574.o
                0x000000000800157e                pcf8574_pin_write
 .text.pcf8574_init
                0x00000000080015a8       0x90 build/pcf8574.o
                0x00000000080015a8                pcf8574_init
 .text.pcf8574_deinit
                0x0000000008001638        0x8 build/pcf8574.o
                0x0000000008001638                pcf8574_deinit
 .text.pcf8574_sample
                0x0000000008001640       0x68 build/pcf8574_sample.o
                0x0000000008001640                pcf8574_sample
 .text.player_play
                0x00000000080016a8       0x22 build/player.o
                0x00000000080016a8                player_play
 .text.player_stop
                0x00000000080016ca       0x1c build/player.o
                0x00000000080016ca                player_stop
 .text.player_last
                0x00000000080016e6       0x4e build/player.o
                0x00000000080016e6                player_last
 .text.player_next
                0x0000000008001734       0x58 build/player.o
                0x0000000008001734                player_next
 .text.player_control
                0x000000000800178c       0x54 build/player.o
                0x000000000800178c                player_control
 .text.player_add_song
                0x00000000080017e0       0x2a build/player.o
                0x00000000080017e0                player_add_song
 *fill*         0x000000000800180a        0x2 00000000
 .text.player_show
                0x000000000800180c      0x110 build/player.o
                0x000000000800180c                player_show
 .text.player_entry
                0x000000000800191c       0x7a build/player.o
 *fill*         0x0000000008001996        0x2 00000000
 .text.player_start
                0x0000000008001998       0xb0 build/player.o
                0x0000000008001998                player_start
 .text._serial_check_buffer_size
                0x0000000008001a48       0x14 build/serial.o
 .text._serial_fifo_calc_recved_len
                0x0000000008001a5c       0x2e build/serial.o
 .text.rt_dma_calc_recved_len
                0x0000000008001a8a        0x8 build/serial.o
 .text.rt_dma_recv_update_get_index
                0x0000000008001a92       0x2a build/serial.o
 .text.rt_dma_recv_update_put_index
                0x0000000008001abc       0x66 build/serial.o
 .text.rt_serial_init
                0x0000000008001b22       0x1a build/serial.o
 .text.rt_serial_control
                0x0000000008001b3c       0x72 build/serial.o
 .text.rt_serial_write
                0x0000000008001bae       0xd0 build/serial.o
 *fill*         0x0000000008001c7e        0x2 00000000
 .text.rt_serial_read
                0x0000000008001c80      0x148 build/serial.o
 .text.rt_serial_close
                0x0000000008001dc8       0xbc build/serial.o
 .text.rt_serial_open
                0x0000000008001e84      0x1ec build/serial.o
 .text.rt_hw_serial_register
                0x0000000008002070       0x1c build/serial.o
                0x0000000008002070                rt_hw_serial_register
 .text.rt_hw_serial_isr
                0x000000000800208c      0x13c build/serial.o
                0x000000000800208c                rt_hw_serial_isr
 .text.rt_completion_init
                0x00000000080021c8       0x1a build/completion.o
                0x00000000080021c8                rt_completion_init
 .text.rt_completion_wait
                0x00000000080021e2       0x80 build/completion.o
                0x00000000080021e2                rt_completion_wait
 .text.rt_completion_done
                0x0000000008002262       0x38 build/completion.o
                0x0000000008002262                rt_completion_done
 .text.rt_data_queue_init
                0x000000000800229a       0x34 build/dataqueue.o
                0x000000000800229a                rt_data_queue_init
 .text.rt_data_queue_push
                0x00000000080022ce       0xe8 build/dataqueue.o
                0x00000000080022ce                rt_data_queue_push
 .text.rt_data_queue_pop
                0x00000000080023b6      0x10a build/dataqueue.o
                0x00000000080023b6                rt_data_queue_pop
 .text.rt_data_queue_peak
                0x00000000080024c0       0x52 build/dataqueue.o
                0x00000000080024c0                rt_data_queue_peak
 *fill*         0x0000000008002512        0x2 00000000
 .text.hello    0x0000000008002514       0x10 build/cmd.o
                0x0000000008002514                hello
 .text.show_wait_queue
                0x0000000008002524       0x30 build/cmd.o
 .text.version  0x0000000008002554        0xa build/cmd.o
                0x0000000008002554                version
 .text.list_get_next
                0x000000000800255e       0x6a build/cmd.o
 .text.list_find_init
                0x00000000080025c8       0x20 build/cmd.o
 .text.list_thread
                0x00000000080025e8      0x14c build/cmd.o
                0x00000000080025e8                list_thread
 .text.list_sem
                0x0000000008002734      0x100 build/cmd.o
                0x0000000008002734                list_sem
 .text.list_event
                0x0000000008002834       0xf0 build/cmd.o
                0x0000000008002834                list_event
 .text.list_mutex
                0x0000000008002924       0xc4 build/cmd.o
                0x0000000008002924                list_mutex
 .text.list_msgqueue
                0x00000000080029e8      0x100 build/cmd.o
                0x00000000080029e8                list_msgqueue
 .text.list_device
                0x0000000008002ae8       0xbc build/cmd.o
                0x0000000008002ae8                list_device
 .text.list_timer
                0x0000000008002ba4       0xd8 build/cmd.o
                0x0000000008002ba4                list_timer
 .text.list     0x0000000008002c7c       0x4c build/cmd.o
                0x0000000008002c7c                list
 .text.str_common
                0x0000000008002cc8       0x26 build/msh.o
 *fill*         0x0000000008002cee        0x2 00000000
 .text.msh_split
                0x0000000008002cf0       0xb8 build/msh.o
 .text.msh_help
                0x0000000008002da8       0x58 build/msh.o
                0x0000000008002da8                msh_help
 .text.msh_get_cmd
                0x0000000008002e00       0x50 build/msh.o
 .text.cmd_ps   0x0000000008002e50        0xa build/msh.o
                0x0000000008002e50                cmd_ps
 .text.cmd_free
                0x0000000008002e5a        0xa build/msh.o
                0x0000000008002e5a                cmd_free
 .text._msh_exec_cmd
                0x0000000008002e64       0x5e build/msh.o
 .text.msh_is_used
                0x0000000008002ec2        0x4 build/msh.o
                0x0000000008002ec2                msh_is_used
 *fill*         0x0000000008002ec6        0x2 00000000
 .text.msh_exec
                0x0000000008002ec8       0x54 build/msh.o
                0x0000000008002ec8                msh_exec
 .text.msh_auto_complete
                0x0000000008002f1c       0xa0 build/msh.o
                0x0000000008002f1c                msh_auto_complete
 .text.finsh_rx_ind
                0x0000000008002fbc       0x14 build/shell.o
 .text.finsh_getchar
                0x0000000008002fd0       0x40 build/shell.o
 .text.shell_push_history
                0x0000000008003010       0xce build/shell.o
 *fill*         0x00000000080030de        0x2 00000000
 .text.finsh_get_prompt
                0x00000000080030e0       0x7c build/shell.o
                0x00000000080030e0                finsh_get_prompt
 .text.shell_handle_history
                0x000000000800315c       0x28 build/shell.o
 .text.shell_auto_complete
                0x0000000008003184       0x34 build/shell.o
 .text.finsh_set_prompt_mode
                0x00000000080031b8       0x18 build/shell.o
                0x00000000080031b8                finsh_set_prompt_mode
 .text.finsh_set_device
                0x00000000080031d0       0x7c build/shell.o
                0x00000000080031d0                finsh_set_device
 .text.finsh_thread_entry
                0x000000000800324c      0x384 build/shell.o
                0x000000000800324c                finsh_thread_entry
 .text.finsh_system_function_init
                0x00000000080035d0       0x14 build/shell.o
                0x00000000080035d0                finsh_system_function_init
 .text.finsh_system_var_init
                0x00000000080035e4       0x14 build/shell.o
                0x00000000080035e4                finsh_system_var_init
 .text.finsh_system_init
                0x00000000080035f8       0x94 build/shell.o
                0x00000000080035f8                finsh_system_init
 .text.bus_fault_track
                0x000000000800368c       0xb4 build/cpuport.o
 .text.mem_manage_fault_track
                0x0000000008003740       0xa0 build/cpuport.o
 .text.usage_fault_track
                0x00000000080037e0       0xb0 build/cpuport.o
 .text.hard_fault_track
                0x0000000008003890       0x70 build/cpuport.o
 .text.rt_hw_stack_init
                0x0000000008003900       0x50 build/cpuport.o
                0x0000000008003900                rt_hw_stack_init
 .text.rt_hw_hard_fault_exception
                0x0000000008003950      0x11c build/cpuport.o
                0x0000000008003950                rt_hw_hard_fault_exception
 .text.__rt_ffs
                0x0000000008003a6c       0x12 build/cpuport.o
                0x0000000008003a6c                __rt_ffs
 *fill*         0x0000000008003a7e        0x2 00000000
 .text.rt_tick_get
                0x0000000008003a80        0xc build/clock.o
                0x0000000008003a80                rt_tick_get
 .text.rt_tick_increase
                0x0000000008003a8c       0x38 build/clock.o
                0x0000000008003a8c                rt_tick_increase
 .text.rt_tick_from_millisecond
                0x0000000008003ac4       0x40 build/clock.o
                0x0000000008003ac4                rt_tick_from_millisecond
 .text.rti_start
                0x0000000008003b04        0x4 build/components.o
 .text.rti_board_start
                0x0000000008003b08        0x4 build/components.o
 .text.rti_board_end
                0x0000000008003b0c        0x4 build/components.o
 .text.rti_end  0x0000000008003b10        0x4 build/components.o
 .text.rt_components_board_init
                0x0000000008003b14       0x1c build/components.o
                0x0000000008003b14                rt_components_board_init
 .text.rt_components_init
                0x0000000008003b30       0x1c build/components.o
                0x0000000008003b30                rt_components_init
 .text.main_thread_entry
                0x0000000008003b4c        0xc build/components.o
                0x0000000008003b4c                main_thread_entry
 .text.rt_application_init
                0x0000000008003b58       0x2c build/components.o
                0x0000000008003b58                rt_application_init
 .text.rtthread_startup
                0x0000000008003b84       0x2a build/components.o
                0x0000000008003b84                rtthread_startup
 .text.entry    0x0000000008003bae        0xa build/components.o
                0x0000000008003bae                entry
 .text.rt_device_find
                0x0000000008003bb8       0x56 build/device.o
                0x0000000008003bb8                rt_device_find
 .text.rt_device_register
                0x0000000008003c0e       0x32 build/device.o
                0x0000000008003c0e                rt_device_register
 .text.rt_device_open
                0x0000000008003c40       0x84 build/device.o
                0x0000000008003c40                rt_device_open
 .text.rt_device_close
                0x0000000008003cc4       0x36 build/device.o
                0x0000000008003cc4                rt_device_close
 .text.rt_device_read
                0x0000000008003cfa       0x28 build/device.o
                0x0000000008003cfa                rt_device_read
 .text.rt_device_write
                0x0000000008003d22       0x28 build/device.o
                0x0000000008003d22                rt_device_write
 .text.rt_device_control
                0x0000000008003d4a       0x12 build/device.o
                0x0000000008003d4a                rt_device_control
 .text.rt_device_set_rx_indicate
                0x0000000008003d5c        0x6 build/device.o
                0x0000000008003d5c                rt_device_set_rx_indicate
 *fill*         0x0000000008003d62        0x2 00000000
 .text.rt_thread_idle_excute
                0x0000000008003d64       0x88 build/idle.o
                0x0000000008003d64                rt_thread_idle_excute
 .text.rt_thread_idle_entry
                0x0000000008003dec       0x24 build/idle.o
 .text.rt_thread_idle_init
                0x0000000008003e10       0x54 build/idle.o
                0x0000000008003e10                rt_thread_idle_init
 .text.rt_sem_init
                0x0000000008003e64       0x20 build/ipc.o
                0x0000000008003e64                rt_sem_init
 .text.rt_sem_create
                0x0000000008003e84       0x22 build/ipc.o
                0x0000000008003e84                rt_sem_create
 .text.rt_sem_delete
                0x0000000008003ea6       0x34 build/ipc.o
                0x0000000008003ea6                rt_sem_delete
 *fill*         0x0000000008003eda        0x2 00000000
 .text.rt_sem_take
                0x0000000008003edc       0xec build/ipc.o
                0x0000000008003edc                rt_sem_take
 .text.rt_sem_release
                0x0000000008003fc8       0x44 build/ipc.o
                0x0000000008003fc8                rt_sem_release
 .text.rt_mutex_init
                0x000000000800400c       0x28 build/ipc.o
                0x000000000800400c                rt_mutex_init
 .text.rt_mutex_take
                0x0000000008004034      0x138 build/ipc.o
                0x0000000008004034                rt_mutex_take
 .text.rt_mutex_release
                0x000000000800416c       0xa0 build/ipc.o
                0x000000000800416c                rt_mutex_release
 .text.rt_interrupt_enter
                0x000000000800420c       0x2c build/irq.o
                0x000000000800420c                rt_interrupt_enter
 .text.rt_interrupt_leave
                0x0000000008004238       0x2c build/irq.o
                0x0000000008004238                rt_interrupt_leave
 .text.rt_interrupt_get_nest
                0x0000000008004264       0x18 build/irq.o
                0x0000000008004264                rt_interrupt_get_nest
 .text.print_number
                0x000000000800427c      0x170 build/kservice.o
 .text.rt_set_errno
                0x00000000080043ec       0x24 build/kservice.o
                0x00000000080043ec                rt_set_errno
 .text.rt_memset
                0x0000000008004410       0x52 build/kservice.o
                0x0000000008004410                rt_memset
 .text.rt_memcpy
                0x0000000008004462       0x5e build/kservice.o
                0x0000000008004462                rt_memcpy
 .text.rt_memmove
                0x00000000080044c0       0x40 build/kservice.o
                0x00000000080044c0                rt_memmove
 .text.rt_strncpy
                0x0000000008004500       0x2a build/kservice.o
                0x0000000008004500                rt_strncpy
 .text.rt_strncmp
                0x000000000800452a       0x28 build/kservice.o
                0x000000000800452a                rt_strncmp
 .text.rt_strlen
                0x0000000008004552       0x10 build/kservice.o
                0x0000000008004552                rt_strlen
 *fill*         0x0000000008004562        0x2 00000000
 .text.rt_vsnprintf
                0x0000000008004564      0x370 build/kservice.o
                0x0000000008004564                rt_vsnprintf
 .text.rt_vsprintf
                0x00000000080048d4       0x10 build/kservice.o
                0x00000000080048d4                rt_vsprintf
 .text.rt_sprintf
                0x00000000080048e4       0x1c build/kservice.o
                0x00000000080048e4                rt_sprintf
 .text.rt_console_get_device
                0x0000000008004900        0xc build/kservice.o
                0x0000000008004900                rt_console_get_device
 .text.rt_console_set_device
                0x000000000800490c       0x2c build/kservice.o
                0x000000000800490c                rt_console_set_device
 .text.rt_kprintf
                0x0000000008004938       0x58 build/kservice.o
                0x0000000008004938                rt_kprintf
 .text.rt_show_version
                0x0000000008004990       0x40 build/kservice.o
                0x0000000008004990                rt_show_version
 .text.plug_holes
                0x00000000080049d0       0x68 build/mem.o
 .text.list_mem
                0x0000000008004a38       0x3c build/mem.o
                0x0000000008004a38                list_mem
 .text.rt_system_heap_init
                0x0000000008004a74       0x80 build/mem.o
                0x0000000008004a74                rt_system_heap_init
 .text.rt_malloc
                0x0000000008004af4      0x130 build/mem.o
                0x0000000008004af4                rt_malloc
 .text.rt_calloc
                0x0000000008004c24       0x1c build/mem.o
                0x0000000008004c24                rt_calloc
 .text.rt_free  0x0000000008004c40       0xb4 build/mem.o
                0x0000000008004c40                rt_free
 .text.rt_object_get_information
                0x0000000008004cf4       0x24 build/object.o
                0x0000000008004cf4                rt_object_get_information
 .text.rt_object_init
                0x0000000008004d18       0x60 build/object.o
                0x0000000008004d18                rt_object_init
 .text.rt_object_detach
                0x0000000008004d78       0x34 build/object.o
                0x0000000008004d78                rt_object_detach
 .text.rt_object_allocate
                0x0000000008004dac       0x60 build/object.o
                0x0000000008004dac                rt_object_allocate
 .text.rt_object_delete
                0x0000000008004e0c       0x38 build/object.o
                0x0000000008004e0c                rt_object_delete
 .text.rt_object_is_systemobject
                0x0000000008004e44       0x10 build/object.o
                0x0000000008004e44                rt_object_is_systemobject
 .text._get_highest_priority_thread
                0x0000000008004e54       0x24 build/scheduler.o
 .text._rt_scheduler_stack_check
                0x0000000008004e78       0x48 build/scheduler.o
 .text.rt_system_scheduler_init
                0x0000000008004ec0       0x38 build/scheduler.o
                0x0000000008004ec0                rt_system_scheduler_init
 .text.rt_schedule_insert_thread
                0x0000000008004ef8       0x68 build/scheduler.o
                0x0000000008004ef8                rt_schedule_insert_thread
 .text.rt_schedule_remove_thread
                0x0000000008004f60       0x4c build/scheduler.o
                0x0000000008004f60                rt_schedule_remove_thread
 .text.rt_system_scheduler_start
                0x0000000008004fac       0x2c build/scheduler.o
                0x0000000008004fac                rt_system_scheduler_start
 .text.rt_schedule
                0x0000000008004fd8      0x104 build/scheduler.o
                0x0000000008004fd8                rt_schedule
 .text.rt_enter_critical
                0x00000000080050dc       0x18 build/scheduler.o
                0x00000000080050dc                rt_enter_critical
 .text.rt_exit_critical
                0x00000000080050f4       0x3c build/scheduler.o
                0x00000000080050f4                rt_exit_critical
 .text._rt_thread_init
                0x0000000008005130       0x84 build/thread.o
 .text.rt_thread_timeout
                0x00000000080051b4       0x26 build/thread.o
                0x00000000080051b4                rt_thread_timeout
 .text.rt_thread_init
                0x00000000080051da       0x36 build/thread.o
                0x00000000080051da                rt_thread_init
 .text.rt_thread_self
                0x0000000008005210        0xc build/thread.o
                0x0000000008005210                rt_thread_self
 .text.rt_thread_exit
                0x000000000800521c       0x5c build/thread.o
                0x000000000800521c                rt_thread_exit
 .text.rt_thread_create
                0x0000000008005278       0x52 build/thread.o
                0x0000000008005278                rt_thread_create
 *fill*         0x00000000080052ca        0x2 00000000
 .text.rt_thread_delete
                0x00000000080052cc       0x44 build/thread.o
                0x00000000080052cc                rt_thread_delete
 .text.rt_thread_yield
                0x0000000008005310        0xa build/thread.o
                0x0000000008005310                rt_thread_yield
 *fill*         0x000000000800531a        0x2 00000000
 .text.rt_thread_suspend
                0x000000000800531c       0x5c build/thread.o
                0x000000000800531c                rt_thread_suspend
 .text.rt_thread_sleep
                0x0000000008005378       0x4e build/thread.o
                0x0000000008005378                rt_thread_sleep
 .text.rt_thread_delay
                0x00000000080053c6        0x8 build/thread.o
                0x00000000080053c6                rt_thread_delay
 .text.rt_thread_mdelay
                0x00000000080053ce        0xc build/thread.o
                0x00000000080053ce                rt_thread_mdelay
 *fill*         0x00000000080053da        0x2 00000000
 .text.rt_thread_resume
                0x00000000080053dc       0x5c build/thread.o
                0x00000000080053dc                rt_thread_resume
 .text.rt_thread_startup
                0x0000000008005438       0x28 build/thread.o
                0x0000000008005438                rt_thread_startup
 .text.rt_thread_control
                0x0000000008005460       0x62 build/thread.o
                0x0000000008005460                rt_thread_control
 .text._rt_timer_init
                0x00000000080054c2       0x32 build/timer.o
 .text.rt_timer_init
                0x00000000080054f4       0x28 build/timer.o
                0x00000000080054f4                rt_timer_init
 .text.rt_timer_detach
                0x000000000800551c       0x38 build/timer.o
                0x000000000800551c                rt_timer_detach
 .text.rt_timer_create
                0x0000000008005554       0x30 build/timer.o
                0x0000000008005554                rt_timer_create
 .text.rt_timer_start
                0x0000000008005584       0xd0 build/timer.o
                0x0000000008005584                rt_timer_start
 .text.rt_timer_stop
                0x0000000008005654       0x54 build/timer.o
                0x0000000008005654                rt_timer_stop
 .text.rt_timer_control
                0x00000000080056a8       0x2e build/timer.o
                0x00000000080056a8                rt_timer_control
 *fill*         0x00000000080056d6        0x2 00000000
 .text.rt_timer_check
                0x00000000080056d8       0xbc build/timer.o
                0x00000000080056d8                rt_timer_check
 .text.rt_system_timer_init
                0x0000000008005794       0x1c build/timer.o
                0x0000000008005794                rt_system_timer_init
 .text.rt_system_timer_thread_init
                0x00000000080057b0        0x2 build/timer.o
                0x00000000080057b0                rt_system_timer_thread_init
 .text.delay_osschedlock
                0x00000000080057b2        0x8 build/delay.o
                0x00000000080057b2                delay_osschedlock
 .text.delay_osschedunlock
                0x00000000080057ba        0x8 build/delay.o
                0x00000000080057ba                delay_osschedunlock
 .text.delay_ostimedly
                0x00000000080057c2        0x8 build/delay.o
                0x00000000080057c2                delay_ostimedly
 *fill*         0x00000000080057ca        0x2 00000000
 .text.delay_init
                0x00000000080057cc       0x40 build/delay.o
                0x00000000080057cc                delay_init
 .text.delay_us
                0x000000000800580c       0x44 build/delay.o
                0x000000000800580c                delay_us
 .text.delay_ms
                0x0000000008005850       0x4c build/delay.o
                0x0000000008005850                delay_ms
 .text.audio_control
                0x000000000800589c       0x14 build/main.o
                0x000000000800589c                audio_control
 .text.decode_read
                0x00000000080058b0        0xc build/main.o
                0x00000000080058b0                decode_read
 .text.audio_write
                0x00000000080058bc       0x30 build/main.o
                0x00000000080058bc                audio_write
 .text.decode_control
                0x00000000080058ec       0x1e build/main.o
                0x00000000080058ec                decode_control
 .text.audio_init
                0x000000000800590a        0xe build/main.o
                0x000000000800590a                audio_init
 .text.audio_open
                0x0000000008005918        0xe build/main.o
                0x0000000008005918                audio_open
 .text.audio_close
                0x0000000008005926        0xe build/main.o
                0x0000000008005926                audio_close
 .text.player_init
                0x0000000008005934       0xb0 build/main.o
                0x0000000008005934                player_init
 .text.main     0x00000000080059e4        0xe build/main.o
                0x00000000080059e4                main
 .text.HAL_MspInit
                0x00000000080059f2        0x2 build/stm32f4xx_hal_msp.o
                0x00000000080059f2                HAL_MspInit
 .text.NMI_Handler
                0x00000000080059f4        0x2 build/stm32f4xx_it.o
                0x00000000080059f4                NMI_Handler
 .text.MemManage_Handler
                0x00000000080059f6        0x2 build/stm32f4xx_it.o
                0x00000000080059f6                MemManage_Handler
 .text.BusFault_Handler
                0x00000000080059f8        0x2 build/stm32f4xx_it.o
                0x00000000080059f8                BusFault_Handler
 .text.UsageFault_Handler
                0x00000000080059fa        0x2 build/stm32f4xx_it.o
                0x00000000080059fa                UsageFault_Handler
 .text.SVC_Handler
                0x00000000080059fc        0x2 build/stm32f4xx_it.o
                0x00000000080059fc                SVC_Handler
 .text.DebugMon_Handler
                0x00000000080059fe        0x2 build/stm32f4xx_it.o
                0x00000000080059fe                DebugMon_Handler
 .text.SystemInit
                0x0000000008005a00       0x4c build/system_stm32f4xx.o
                0x0000000008005a00                SystemInit
 .text.get_pin  0x0000000008005a4c       0x30 build/drv_gpio.o
 .text.stm32_pin_dettach_irq
                0x0000000008005a7c       0x70 build/drv_gpio.o
 .text.stm32_pin_attach_irq
                0x0000000008005aec       0xb0 build/drv_gpio.o
 .text.stm32_pin_mode
                0x0000000008005b9c       0x5c build/drv_gpio.o
 .text.stm32_pin_irq_enable
                0x0000000008005bf8      0x188 build/drv_gpio.o
 .text.stm32_pin_read
                0x0000000008005d80       0x18 build/drv_gpio.o
 .text.stm32_pin_write
                0x0000000008005d98       0x18 build/drv_gpio.o
 .text.HAL_GPIO_EXTI_Callback
                0x0000000008005db0       0x34 build/drv_gpio.o
                0x0000000008005db0                HAL_GPIO_EXTI_Callback
 .text.EXTI0_IRQHandler
                0x0000000008005de4       0x12 build/drv_gpio.o
                0x0000000008005de4                EXTI0_IRQHandler
 .text.EXTI1_IRQHandler
                0x0000000008005df6       0x12 build/drv_gpio.o
                0x0000000008005df6                EXTI1_IRQHandler
 .text.EXTI2_IRQHandler
                0x0000000008005e08       0x12 build/drv_gpio.o
                0x0000000008005e08                EXTI2_IRQHandler
 .text.EXTI3_IRQHandler
                0x0000000008005e1a       0x12 build/drv_gpio.o
                0x0000000008005e1a                EXTI3_IRQHandler
 .text.EXTI4_IRQHandler
                0x0000000008005e2c       0x12 build/drv_gpio.o
                0x0000000008005e2c                EXTI4_IRQHandler
 .text.EXTI9_5_IRQHandler
                0x0000000008005e3e       0x2e build/drv_gpio.o
                0x0000000008005e3e                EXTI9_5_IRQHandler
 .text.EXTI15_10_IRQHandler
                0x0000000008005e6c       0x3c build/drv_gpio.o
                0x0000000008005e6c                EXTI15_10_IRQHandler
 .text.rt_hw_pin_init
                0x0000000008005ea8      0x100 build/drv_gpio.o
                0x0000000008005ea8                rt_hw_pin_init
 .text.stm32_set_sda
                0x0000000008005fa8       0x18 build/drv_i2c.o
 .text.stm32_set_scl
                0x0000000008005fc0       0x18 build/drv_i2c.o
 .text.stm32_get_sda
                0x0000000008005fd8       0x18 build/drv_i2c.o
 .text.stm32_get_scl
                0x0000000008005ff0       0x18 build/drv_i2c.o
 .text.stm32_udelay
                0x0000000008006008       0x40 build/drv_i2c.o
 .text.stm32_i2c_gpio_init
                0x0000000008006048       0x88 build/drv_i2c.o
 .text.stm32_i2c_bus_unlock
                0x00000000080060d0       0x78 build/drv_i2c.o
 .text.hw_i2c_init
                0x0000000008006148       0x44 build/drv_i2c.o
                0x0000000008006148                hw_i2c_init
 .text.stm32_putc
                0x000000000800618c       0x28 build/drv_usart.o
 .text.stm32_getc
                0x00000000080061b4       0x1a build/drv_usart.o
 *fill*         0x00000000080061ce        0x2 00000000
 .text.stm32_uart_get_dma_config
                0x00000000080061d0       0x10 build/drv_usart.o
 .text.dma_isr  0x00000000080061e0       0x54 build/drv_usart.o
 .text.uart_isr
                0x0000000008006234      0x15e build/drv_usart.o
 .text.stm32_dma_transmit
                0x0000000008006392       0x26 build/drv_usart.o
 .text.stm32_dma_config
                0x00000000080063b8      0x118 build/drv_usart.o
 .text.stm32_control
                0x00000000080064d0       0x74 build/drv_usart.o
 .text.stm32_configure
                0x0000000008006544       0xbc build/drv_usart.o
 .text.USART1_IRQHandler
                0x0000000008006600       0x18 build/drv_usart.o
                0x0000000008006600                USART1_IRQHandler
 .text.HAL_UART_ErrorCallback
                0x0000000008006618        0x2 build/drv_usart.o
                0x0000000008006618                HAL_UART_ErrorCallback
 .text.HAL_UART_RxCpltCallback
                0x000000000800661a        0xc build/drv_usart.o
                0x000000000800661a                HAL_UART_RxCpltCallback
 .text.HAL_UART_RxHalfCpltCallback
                0x0000000008006626        0xc build/drv_usart.o
                0x0000000008006626                HAL_UART_RxHalfCpltCallback
 .text.HAL_UART_TxCpltCallback
                0x0000000008006632        0xe build/drv_usart.o
                0x0000000008006632                HAL_UART_TxCpltCallback
 .text.rt_hw_usart_init
                0x0000000008006640       0x7c build/drv_usart.o
                0x0000000008006640                rt_hw_usart_init
 .text.pwm_get_channel
                0x00000000080066bc       0x14 build/drv_pwm.o
 .text.drv_pwm_enable
                0x00000000080066d0       0x1c build/drv_pwm.o
 .text.drv_pwm_get
                0x00000000080066ec      0x100 build/drv_pwm.o
 .text.drv_pwm_set
                0x00000000080067ec      0x10c build/drv_pwm.o
 .text.drv_pwm_control
                0x00000000080068f8       0x3c build/drv_pwm.o
 .text.stm32_hw_pwm_init
                0x0000000008006934       0xe8 build/drv_pwm.o
 .text.stm32_pwm_init
                0x0000000008006a1c       0x50 build/drv_pwm.o
 .text._pin_read
                0x0000000008006a6c       0x22 build/pin.o
 .text._pin_write
                0x0000000008006a8e       0x22 build/pin.o
 .text._pin_control
                0x0000000008006ab0       0x1a build/pin.o
 *fill*         0x0000000008006aca        0x2 00000000
 .text.rt_pin_mode
                0x0000000008006acc       0x18 build/pin.o
                0x0000000008006acc                rt_pin_mode
 .text.rt_pin_write
                0x0000000008006ae4       0x18 build/pin.o
                0x0000000008006ae4                rt_pin_write
 .text.rt_pin_read
                0x0000000008006afc       0x14 build/pin.o
                0x0000000008006afc                rt_pin_read
 .text.rt_device_pin_register
                0x0000000008006b10       0x2c build/pin.o
                0x0000000008006b10                rt_device_pin_register
 .text._pwm_control
                0x0000000008006b3c       0x10 build/rt_drv_pwm.o
 .text._pwm_read
                0x0000000008006b4c       0x30 build/rt_drv_pwm.o
 .text._pwm_write
                0x0000000008006b7c       0x44 build/rt_drv_pwm.o
 .text.rt_pwm_enable
                0x0000000008006bc0       0x24 build/rt_drv_pwm.o
                0x0000000008006bc0                rt_pwm_enable
 .text.rt_pwm_set
                0x0000000008006be4       0x1e build/rt_drv_pwm.o
                0x0000000008006be4                rt_pwm_set
 *fill*         0x0000000008006c02        0x2 00000000
 .text.pwm_enable
                0x0000000008006c04       0x38 build/rt_drv_pwm.o
 .text.pwm_set  0x0000000008006c3c       0x4c build/rt_drv_pwm.o
 .text.rt_device_pwm_register
                0x0000000008006c88       0x30 build/rt_drv_pwm.o
                0x0000000008006c88                rt_device_pwm_register
 .text.rt_pwm_disable
                0x0000000008006cb8       0x24 build/rt_drv_pwm.o
                0x0000000008006cb8                rt_pwm_disable
 .text.pwm_disable
                0x0000000008006cdc       0x38 build/rt_drv_pwm.o
 .text.i2c_start
                0x0000000008006d14       0x20 build/i2c-bit-ops.o
 .text.SCL_H    0x0000000008006d34       0x48 build/i2c-bit-ops.o
 .text.i2c_restart
                0x0000000008006d7c       0x38 build/i2c-bit-ops.o
 .text.i2c_writeb
                0x0000000008006db4       0x8c build/i2c-bit-ops.o
 .text.i2c_send_bytes
                0x0000000008006e40       0x44 build/i2c-bit-ops.o
 .text.i2c_readb
                0x0000000008006e84       0x5a build/i2c-bit-ops.o
 .text.i2c_send_ack_or_nack
                0x0000000008006ede       0x36 build/i2c-bit-ops.o
 .text.i2c_recv_bytes
                0x0000000008006f14       0x40 build/i2c-bit-ops.o
 .text.i2c_stop
                0x0000000008006f54       0x36 build/i2c-bit-ops.o
 .text.i2c_send_address
                0x0000000008006f8a       0x42 build/i2c-bit-ops.o
 .text.i2c_bit_send_address
                0x0000000008006fcc       0xc8 build/i2c-bit-ops.o
 .text.i2c_bit_xfer
                0x0000000008007094       0x9a build/i2c-bit-ops.o
 *fill*         0x000000000800712e        0x2 00000000
 .text.rt_i2c_bit_add_bus
                0x0000000008007130       0x10 build/i2c-bit-ops.o
                0x0000000008007130                rt_i2c_bit_add_bus
 .text.rt_i2c_core_init
                0x0000000008007140        0x4 build/i2c_core.o
                0x0000000008007140                rt_i2c_core_init
 .text.rt_i2c_bus_device_register
                0x0000000008007144       0x28 build/i2c_core.o
                0x0000000008007144                rt_i2c_bus_device_register
 .text.rt_i2c_transfer
                0x000000000800716c       0x38 build/i2c_core.o
                0x000000000800716c                rt_i2c_transfer
 .text.rt_i2c_master_send
                0x00000000080071a4       0x26 build/i2c_core.o
                0x00000000080071a4                rt_i2c_master_send
 .text.rt_i2c_master_recv
                0x00000000080071ca       0x2a build/i2c_core.o
                0x00000000080071ca                rt_i2c_master_recv
 .text.i2c_bus_device_control
                0x00000000080071f4       0x4a build/i2c_dev.o
 .text.i2c_bus_device_write
                0x000000000800723e       0x18 build/i2c_dev.o
 .text.i2c_bus_device_read
                0x0000000008007256       0x18 build/i2c_dev.o
 *fill*         0x000000000800726e        0x2 00000000
 .text.rt_i2c_bus_device_device_init
                0x0000000008007270       0x1c build/i2c_dev.o
                0x0000000008007270                rt_i2c_bus_device_device_init
 .text.TIM_OC1_SetConfig
                0x000000000800728c       0x6c build/stm32f4xx_hal_tim.o
 .text.TIM_OC3_SetConfig
                0x00000000080072f8       0x74 build/stm32f4xx_hal_tim.o
 .text.TIM_OC4_SetConfig
                0x000000000800736c       0x50 build/stm32f4xx_hal_tim.o
 .text.HAL_TIM_GenerateEvent
                0x00000000080073bc       0x26 build/stm32f4xx_hal_tim.o
                0x00000000080073bc                HAL_TIM_GenerateEvent
 *fill*         0x00000000080073e2        0x2 00000000
 .text.TIM_Base_SetConfig
                0x00000000080073e4       0xcc build/stm32f4xx_hal_tim.o
                0x00000000080073e4                TIM_Base_SetConfig
 .text.HAL_TIM_PWM_Init
                0x00000000080074b0       0x32 build/stm32f4xx_hal_tim.o
                0x00000000080074b0                HAL_TIM_PWM_Init
 *fill*         0x00000000080074e2        0x2 00000000
 .text.TIM_OC2_SetConfig
                0x00000000080074e4       0x74 build/stm32f4xx_hal_tim.o
                0x00000000080074e4                TIM_OC2_SetConfig
 .text.HAL_TIM_PWM_ConfigChannel
                0x0000000008007558       0xdc build/stm32f4xx_hal_tim.o
                0x0000000008007558                HAL_TIM_PWM_ConfigChannel
 .text.TIM_CCxChannelCmd
                0x0000000008007634       0x22 build/stm32f4xx_hal_tim.o
                0x0000000008007634                TIM_CCxChannelCmd
 *fill*         0x0000000008007656        0x2 00000000
 .text.HAL_TIM_PWM_Start
                0x0000000008007658       0x4c build/stm32f4xx_hal_tim.o
                0x0000000008007658                HAL_TIM_PWM_Start
 .text.HAL_TIM_PWM_Stop
                0x00000000080076a4       0x70 build/stm32f4xx_hal_tim.o
                0x00000000080076a4                HAL_TIM_PWM_Stop
 .text.HAL_TIMEx_MasterConfigSynchronization
                0x0000000008007714       0x88 build/stm32f4xx_hal_tim_ex.o
                0x0000000008007714                HAL_TIMEx_MasterConfigSynchronization
 .text.HAL_RCC_OscConfig
                0x000000000800779c      0x3ec build/stm32f4xx_hal_rcc.o
                0x000000000800779c                HAL_RCC_OscConfig
 .text.HAL_RCC_GetSysClockFreq
                0x0000000008007b88       0xa4 build/stm32f4xx_hal_rcc.o
                0x0000000008007b88                HAL_RCC_GetSysClockFreq
 .text.HAL_RCC_ClockConfig
                0x0000000008007c2c      0x160 build/stm32f4xx_hal_rcc.o
                0x0000000008007c2c                HAL_RCC_ClockConfig
 .text.HAL_RCC_GetHCLKFreq
                0x0000000008007d8c        0xc build/stm32f4xx_hal_rcc.o
                0x0000000008007d8c                HAL_RCC_GetHCLKFreq
 .text.HAL_RCC_GetPCLK1Freq
                0x0000000008007d98       0x20 build/stm32f4xx_hal_rcc.o
                0x0000000008007d98                HAL_RCC_GetPCLK1Freq
 .text.HAL_RCC_GetPCLK2Freq
                0x0000000008007db8       0x20 build/stm32f4xx_hal_rcc.o
                0x0000000008007db8                HAL_RCC_GetPCLK2Freq
 .text.HAL_GPIO_Init
                0x0000000008007dd8      0x1f4 build/stm32f4xx_hal_gpio.o
                0x0000000008007dd8                HAL_GPIO_Init
 .text.HAL_GPIO_DeInit
                0x0000000008007fcc      0x150 build/stm32f4xx_hal_gpio.o
                0x0000000008007fcc                HAL_GPIO_DeInit
 .text.HAL_GPIO_ReadPin
                0x000000000800811c        0xe build/stm32f4xx_hal_gpio.o
                0x000000000800811c                HAL_GPIO_ReadPin
 .text.HAL_GPIO_WritePin
                0x000000000800812a        0xc build/stm32f4xx_hal_gpio.o
                0x000000000800812a                HAL_GPIO_WritePin
 *fill*         0x0000000008008136        0x2 00000000
 .text.HAL_GPIO_EXTI_IRQHandler
                0x0000000008008138       0x1c build/stm32f4xx_hal_gpio.o
                0x0000000008008138                HAL_GPIO_EXTI_IRQHandler
 .text.DMA_SetConfig
                0x0000000008008154       0x2c build/stm32f4xx_hal_dma.o
 .text.DMA_CalcBaseAndBitshift
                0x0000000008008180       0x3c build/stm32f4xx_hal_dma.o
 .text.DMA_CheckFifoParam
                0x00000000080081bc       0x8e build/stm32f4xx_hal_dma.o
 *fill*         0x000000000800824a        0x2 00000000
 .text.HAL_DMA_Init
                0x000000000800824c       0xd0 build/stm32f4xx_hal_dma.o
                0x000000000800824c                HAL_DMA_Init
 .text.HAL_DMA_DeInit
                0x000000000800831c       0x66 build/stm32f4xx_hal_dma.o
                0x000000000800831c                HAL_DMA_DeInit
 .text.HAL_DMA_Start_IT
                0x0000000008008382       0x6a build/stm32f4xx_hal_dma.o
                0x0000000008008382                HAL_DMA_Start_IT
 .text.HAL_DMA_Abort_IT
                0x00000000080083ec       0x26 build/stm32f4xx_hal_dma.o
                0x00000000080083ec                HAL_DMA_Abort_IT
 *fill*         0x0000000008008412        0x2 00000000
 .text.HAL_PWREx_EnableOverDrive
                0x0000000008008414       0x80 build/stm32f4xx_hal_pwr_ex.o
                0x0000000008008414                HAL_PWREx_EnableOverDrive
 .text.HAL_NVIC_SetPriorityGrouping
                0x0000000008008494       0x24 build/stm32f4xx_hal_cortex.o
                0x0000000008008494                HAL_NVIC_SetPriorityGrouping
 .text.HAL_NVIC_SetPriority
                0x00000000080084b8       0x64 build/stm32f4xx_hal_cortex.o
                0x00000000080084b8                HAL_NVIC_SetPriority
 .text.HAL_NVIC_EnableIRQ
                0x000000000800851c       0x18 build/stm32f4xx_hal_cortex.o
                0x000000000800851c                HAL_NVIC_EnableIRQ
 .text.HAL_NVIC_DisableIRQ
                0x0000000008008534       0x1c build/stm32f4xx_hal_cortex.o
                0x0000000008008534                HAL_NVIC_DisableIRQ
 .text.HAL_SYSTICK_Config
                0x0000000008008550       0x2c build/stm32f4xx_hal_cortex.o
                0x0000000008008550                HAL_SYSTICK_Config
 .text.HAL_SYSTICK_CLKSourceConfig
                0x000000000800857c       0x20 build/stm32f4xx_hal_cortex.o
                0x000000000800857c                HAL_SYSTICK_CLKSourceConfig
 .text.HAL_InitTick
                0x000000000800859c       0x4c build/stm32f4xx_hal.o
                0x000000000800859c                HAL_InitTick
 .text.HAL_Init
                0x00000000080085e8       0x34 build/stm32f4xx_hal.o
                0x00000000080085e8                HAL_Init
 .text.HAL_GetTick
                0x000000000800861c        0xc build/stm32f4xx_hal.o
                0x000000000800861c                HAL_GetTick
 .text.HAL_SRAM_Init
                0x0000000008008628       0x52 build/stm32f4xx_hal_sram.o
                0x0000000008008628                HAL_SRAM_Init
 *fill*         0x000000000800867a        0x2 00000000
 .text.FMC_NORSRAM_Init
                0x000000000800867c       0x74 build/stm32f4xx_ll_fmc.o
                0x000000000800867c                FMC_NORSRAM_Init
 .text.FMC_NORSRAM_Timing_Init
                0x00000000080086f0       0x58 build/stm32f4xx_ll_fmc.o
                0x00000000080086f0                FMC_NORSRAM_Timing_Init
 .text.FMC_NORSRAM_Extended_Timing_Init
                0x0000000008008748       0x44 build/stm32f4xx_ll_fmc.o
                0x0000000008008748                FMC_NORSRAM_Extended_Timing_Init
 .text.UART_EndTxTransfer
                0x000000000800878c       0x12 build/stm32f4xx_hal_uart.o
 .text.UART_EndRxTransfer
                0x000000000800879e       0x1c build/stm32f4xx_hal_uart.o
 .text.UART_Transmit_IT
                0x00000000080087ba       0x6a build/stm32f4xx_hal_uart.o
 .text.UART_SetConfig
                0x0000000008008824      0x1d4 build/stm32f4xx_hal_uart.o
 .text.HAL_UART_Init
                0x00000000080089f8       0x5e build/stm32f4xx_hal_uart.o
                0x00000000080089f8                HAL_UART_Init
 *fill*         0x0000000008008a56        0x2 00000000
 .text.HAL_UART_Transmit_DMA
                0x0000000008008a58       0x8c build/stm32f4xx_hal_uart.o
                0x0000000008008a58                HAL_UART_Transmit_DMA
 .text.HAL_UART_Receive_DMA
                0x0000000008008ae4       0xa8 build/stm32f4xx_hal_uart.o
                0x0000000008008ae4                HAL_UART_Receive_DMA
 .text.UART_DMATransmitCplt
                0x0000000008008b8c       0x30 build/stm32f4xx_hal_uart.o
 .text.UART_EndTransmit_IT
                0x0000000008008bbc       0x1a build/stm32f4xx_hal_uart.o
 .text.HAL_UART_TxHalfCpltCallback
                0x0000000008008bd6        0x2 build/stm32f4xx_hal_uart.o
                0x0000000008008bd6                HAL_UART_TxHalfCpltCallback
 .text.UART_DMATxHalfCplt
                0x0000000008008bd8        0xa build/stm32f4xx_hal_uart.o
 .text.UART_DMAReceiveCplt
                0x0000000008008be2       0x3e build/stm32f4xx_hal_uart.o
 .text.UART_Receive_IT
                0x0000000008008c20       0x9e build/stm32f4xx_hal_uart.o
 .text.UART_DMARxHalfCplt
                0x0000000008008cbe        0xa build/stm32f4xx_hal_uart.o
 .text.UART_DMAError
                0x0000000008008cc8       0x58 build/stm32f4xx_hal_uart.o
 .text.HAL_UART_IRQHandler
                0x0000000008008d20      0x128 build/stm32f4xx_hal_uart.o
                0x0000000008008d20                HAL_UART_IRQHandler
 .text.UART_DMAAbortOnError
                0x0000000008008e48       0x10 build/stm32f4xx_hal_uart.o
 .text.Reset_Handler
                0x0000000008008e58       0x4c build/startup_stm32f429xx.o
                0x0000000008008e58                Reset_Handler
 .text.Default_Handler
                0x0000000008008ea4        0x2 build/startup_stm32f429xx.o
                0x0000000008008ea4                RTC_Alarm_IRQHandler
                0x0000000008008ea4                HASH_RNG_IRQHandler
                0x0000000008008ea4                TIM8_CC_IRQHandler
                0x0000000008008ea4                UART8_IRQHandler
                0x0000000008008ea4                SPI4_IRQHandler
                0x0000000008008ea4                TIM1_CC_IRQHandler
                0x0000000008008ea4                DMA2_Stream5_IRQHandler
                0x0000000008008ea4                DMA1_Stream5_IRQHandler
                0x0000000008008ea4                PVD_IRQHandler
                0x0000000008008ea4                SDIO_IRQHandler
                0x0000000008008ea4                TAMP_STAMP_IRQHandler
                0x0000000008008ea4                CAN2_RX1_IRQHandler
                0x0000000008008ea4                TIM8_TRG_COM_TIM14_IRQHandler
                0x0000000008008ea4                TIM1_UP_TIM10_IRQHandler
                0x0000000008008ea4                TIM8_UP_TIM13_IRQHandler
                0x0000000008008ea4                I2C3_ER_IRQHandler
                0x0000000008008ea4                I2C2_EV_IRQHandler
                0x0000000008008ea4                DMA1_Stream2_IRQHandler
                0x0000000008008ea4                CAN1_RX0_IRQHandler
                0x0000000008008ea4                FPU_IRQHandler
                0x0000000008008ea4                OTG_HS_WKUP_IRQHandler
                0x0000000008008ea4                LTDC_ER_IRQHandler
                0x0000000008008ea4                CAN2_SCE_IRQHandler
                0x0000000008008ea4                DMA2_Stream2_IRQHandler
                0x0000000008008ea4                SPI1_IRQHandler
                0x0000000008008ea4                TIM6_DAC_IRQHandler
                0x0000000008008ea4                TIM1_BRK_TIM9_IRQHandler
                0x0000000008008ea4                DCMI_IRQHandler
                0x0000000008008ea4                CAN2_RX0_IRQHandler
                0x0000000008008ea4                DMA2_Stream3_IRQHandler
                0x0000000008008ea4                USART6_IRQHandler
                0x0000000008008ea4                USART3_IRQHandler
                0x0000000008008ea4                CAN1_RX1_IRQHandler
                0x0000000008008ea4                UART5_IRQHandler
                0x0000000008008ea4                DMA2_Stream0_IRQHandler
                0x0000000008008ea4                TIM4_IRQHandler
                0x0000000008008ea4                I2C1_EV_IRQHandler
                0x0000000008008ea4                DMA1_Stream6_IRQHandler
                0x0000000008008ea4                DMA1_Stream1_IRQHandler
                0x0000000008008ea4                UART4_IRQHandler
                0x0000000008008ea4                TIM3_IRQHandler
                0x0000000008008ea4                RCC_IRQHandler
                0x0000000008008ea4                TIM8_BRK_TIM12_IRQHandler
                0x0000000008008ea4                Default_Handler
                0x0000000008008ea4                ADC_IRQHandler
                0x0000000008008ea4                DMA1_Stream7_IRQHandler
                0x0000000008008ea4                SPI5_IRQHandler
                0x0000000008008ea4                TIM7_IRQHandler
                0x0000000008008ea4                CAN2_TX_IRQHandler
                0x0000000008008ea4                TIM5_IRQHandler
                0x0000000008008ea4                DMA2_Stream7_IRQHandler
                0x0000000008008ea4                I2C3_EV_IRQHandler
                0x0000000008008ea4                RTC_WKUP_IRQHandler
                0x0000000008008ea4                LTDC_IRQHandler
                0x0000000008008ea4                ETH_WKUP_IRQHandler
                0x0000000008008ea4                SPI2_IRQHandler
                0x0000000008008ea4                OTG_HS_EP1_IN_IRQHandler
                0x0000000008008ea4                DMA1_Stream0_IRQHandler
                0x0000000008008ea4                CAN1_TX_IRQHandler
                0x0000000008008ea4                ETH_IRQHandler
                0x0000000008008ea4                OTG_HS_EP1_OUT_IRQHandler
                0x0000000008008ea4                WWDG_IRQHandler
                0x0000000008008ea4                SPI6_IRQHandler
                0x0000000008008ea4                TIM2_IRQHandler
                0x0000000008008ea4                OTG_FS_WKUP_IRQHandler
                0x0000000008008ea4                TIM1_TRG_COM_TIM11_IRQHandler
                0x0000000008008ea4                OTG_HS_IRQHandler
                0x0000000008008ea4                DMA2D_IRQHandler
                0x0000000008008ea4                UART7_IRQHandler
                0x0000000008008ea4                USART2_IRQHandler
                0x0000000008008ea4                I2C2_ER_IRQHandler
                0x0000000008008ea4                DMA2_Stream1_IRQHandler
                0x0000000008008ea4                CAN1_SCE_IRQHandler
                0x0000000008008ea4                FLASH_IRQHandler
                0x0000000008008ea4                DMA2_Stream4_IRQHandler
                0x0000000008008ea4                OTG_FS_IRQHandler
                0x0000000008008ea4                SPI3_IRQHandler
                0x0000000008008ea4                DMA1_Stream4_IRQHandler
                0x0000000008008ea4                I2C1_ER_IRQHandler
                0x0000000008008ea4                FMC_IRQHandler
                0x0000000008008ea4                DMA2_Stream6_IRQHandler
                0x0000000008008ea4                SAI1_IRQHandler
                0x0000000008008ea4                DMA1_Stream3_IRQHandler
 .text.atoi     0x0000000008008ea6        0x8 /opt/gcc-arm-none-eabi-6-2017-q2-update/bin/../lib/gcc/arm-none-eabi/6.3.1/../../../../arm-none-eabi/lib/thumb/v7e-m/fpv4-sp/hard/libc_nano.a(lib_a-atoi.o)
                0x0000000008008ea6                atoi
 .text.memcmp   0x0000000008008eae       0x1e /opt/gcc-arm-none-eabi-6-2017-q2-update/bin/../lib/gcc/arm-none-eabi/6.3.1/../../../../arm-none-eabi/lib/thumb/v7e-m/fpv4-sp/hard/libc_nano.a(lib_a-memcmp.o)
                0x0000000008008eae                memcmp
 .text.memcpy   0x0000000008008ecc       0x16 /opt/gcc-arm-none-eabi-6-2017-q2-update/bin/../lib/gcc/arm-none-eabi/6.3.1/../../../../arm-none-eabi/lib/thumb/v7e-m/fpv4-sp/hard/libc_nano.a(lib_a-memcpy-stub.o)
                0x0000000008008ecc                memcpy
 .text.memset   0x0000000008008ee2       0x10 /opt/gcc-arm-none-eabi-6-2017-q2-update/bin/../lib/gcc/arm-none-eabi/6.3.1/../../../../arm-none-eabi/lib/thumb/v7e-m/fpv4-sp/hard/libc_nano.a(lib_a-memset.o)
                0x0000000008008ee2                memset
 .text.strncmp  0x0000000008008ef2       0x24 /opt/gcc-arm-none-eabi-6-2017-q2-update/bin/../lib/gcc/arm-none-eabi/6.3.1/../../../../arm-none-eabi/lib/thumb/v7e-m/fpv4-sp/hard/libc_nano.a(lib_a-strncmp.o)
                0x0000000008008ef2                strncmp
 .text.strncpy  0x0000000008008f16       0x2a /opt/gcc-arm-none-eabi-6-2017-q2-update/bin/../lib/gcc/arm-none-eabi/6.3.1/../../../../arm-none-eabi/lib/thumb/v7e-m/fpv4-sp/hard/libc_nano.a(lib_a-strncpy.o)
                0x0000000008008f16                strncpy
 .text._strtol_l.isra.0
                0x0000000008008f40      0x100 /opt/gcc-arm-none-eabi-6-2017-q2-update/bin/../lib/gcc/arm-none-eabi/6.3.1/../../../../arm-none-eabi/lib/thumb/v7e-m/fpv4-sp/hard/libc_nano.a(lib_a-strtol.o)
 .text.strtol   0x0000000008009040       0x2c /opt/gcc-arm-none-eabi-6-2017-q2-update/bin/../lib/gcc/arm-none-eabi/6.3.1/../../../../arm-none-eabi/lib/thumb/v7e-m/fpv4-sp/hard/libc_nano.a(lib_a-strtol.o)
                0x0000000008009040                strtol
 .text.__locale_ctype_ptr_l
                0x000000000800906c        0x6 /opt/gcc-arm-none-eabi-6-2017-q2-update/bin/../lib/gcc/arm-none-eabi/6.3.1/../../../../arm-none-eabi/lib/thumb/v7e-m/fpv4-sp/hard/libc_nano.a(lib_a-locale.o)
                0x000000000800906c                __locale_ctype_ptr_l
 .text.__ascii_mbtowc
                0x0000000008009072       0x24 /opt/gcc-arm-none-eabi-6-2017-q2-update/bin/../lib/gcc/arm-none-eabi/6.3.1/../../../../arm-none-eabi/lib/thumb/v7e-m/fpv4-sp/hard/libc_nano.a(lib_a-mbtowc_r.o)
                0x0000000008009072                __ascii_mbtowc
 .text.__ascii_wctomb
                0x0000000008009096       0x1a /opt/gcc-arm-none-eabi-6-2017-q2-update/bin/../lib/gcc/arm-none-eabi/6.3.1/../../../../arm-none-eabi/lib/thumb/v7e-m/fpv4-sp/hard/libc_nano.a(lib_a-wctomb_r.o)
                0x0000000008009096                __ascii_wctomb
 *(.rodata)
 .rodata        0x00000000080090b0        0x8 build/drv_usart.o
 *(.rodata*)
 .rodata.rt_hw_board_init.str1.4
                0x00000000080090b8        0x6 build/board.o
 *fill*         0x00000000080090be        0x2 00000000
 .rodata.beep_init.str1.4
                0x00000000080090c0        0x5 build/beep.o
 *fill*         0x00000000080090c5        0x3 00000000
 .rodata.my_button_start.str1.4
                0x00000000080090c8        0x7 build/button.o
 *fill*         0x00000000080090cf        0x1 00000000
 .rodata.freq_tab
                0x00000000080090d0       0x18 build/decode.o
 .rodata.length_tab
                0x00000000080090e8        0x7 build/decode.o
 *fill*         0x00000000080090ef        0x1 00000000
 .rodata.sign_tab
                0x00000000080090f0        0x7 build/decode.o
 *fill*         0x00000000080090f7        0x1 00000000
 .rodata.asc2_1206
                0x00000000080090f8      0x474 build/font.o
                0x00000000080090f8                asc2_1206
 .rodata.asc2_1608
                0x000000000800956c      0x5f0 build/font.o
                0x000000000800956c                asc2_1608
 .rodata.asc2_2412
                0x0000000008009b5c      0xd5c build/font.o
                0x0000000008009b5c                asc2_2412
 .rodata.asc2_3216
                0x000000000800a8b8     0x2f80 build/font.o
                0x000000000800a8b8                asc2_3216
 .rodata.pcf8574_init.str1.4
                0x000000000800d838       0x72 build/pcf8574.o
 *fill*         0x000000000800d8aa        0x2 00000000
 .rodata.name   0x000000000800d8ac       0x29 build/pcf8574_sample.o
                0x000000000800d8ac                __fsym___cmd_pcf8574_sample_desc
                0x000000000800d8c0                __fsym___cmd_pcf8574_sample_name
 *fill*         0x000000000800d8d5        0x3 00000000
 .rodata.pcf8574_sample.str1.4
                0x000000000800d8d8       0x28 build/pcf8574_sample.o
 .rodata.player_show.str1.4
                0x000000000800d900       0x5d build/player.o
 *fill*         0x000000000800d95d        0x3 00000000
 .rodata.player_start.str1.4
                0x000000000800d960       0x13 build/player.o
 *fill*         0x000000000800d973        0x1 00000000
 .rodata.serial_ops
                0x000000000800d974       0x18 build/serial.o
 .rodata.device_type_str
                0x000000000800d98c       0x58 build/cmd.o
 .rodata.hello.str1.4
                0x000000000800d9e4       0x12 build/cmd.o
 *fill*         0x000000000800d9f6        0x2 00000000
 .rodata.list.str1.4
                0x000000000800d9f8       0x25 build/cmd.o
 *fill*         0x000000000800da1d        0x3 00000000
 .rodata.list_device.str1.4
                0x000000000800da20       0x6f build/cmd.o
 *fill*         0x000000000800da8f        0x1 00000000
 .rodata.list_event.str1.4
                0x000000000800da90       0x76 build/cmd.o
 *fill*         0x000000000800db06        0x2 00000000
 .rodata.list_msgqueue.str1.4
                0x000000000800db08       0x65 build/cmd.o
 *fill*         0x000000000800db6d        0x3 00000000
 .rodata.list_mutex.str1.4
                0x000000000800db70       0x63 build/cmd.o
 *fill*         0x000000000800dbd3        0x1 00000000
 .rodata.list_sem.str1.4
                0x000000000800dbd4       0x60 build/cmd.o
                                         0x64 (size before relaxing)
 .rodata.list_thread.str1.4
                0x000000000800dc34       0xfc build/cmd.o
                                        0x100 (size before relaxing)
 .rodata.list_timer.str1.4
                0x000000000800dd30       0x9d build/cmd.o
 *fill*         0x000000000800ddcd        0x3 00000000
 .rodata.name   0x000000000800ddd0      0x2ca build/cmd.o
                0x000000000800ddd0                __fsym_list_desc
                0x000000000800ddec                __fsym_list_name
                0x000000000800ddf4                __fsym___cmd_list_device_desc
                0x000000000800de0c                __fsym___cmd_list_device_name
                0x000000000800de20                __fsym_list_device_desc
                0x000000000800de38                __fsym_list_device_name
                0x000000000800de44                __fsym___cmd_list_timer_desc
                0x000000000800de5c                __fsym___cmd_list_timer_name
                0x000000000800de70                __fsym_list_timer_desc
                0x000000000800de88                __fsym_list_timer_name
                0x000000000800de94                __fsym___cmd_list_msgqueue_desc
                0x000000000800deb4                __fsym___cmd_list_msgqueue_name
                0x000000000800dec8                __fsym_list_msgqueue_desc
                0x000000000800dee8                __fsym_list_msgqueue_name
                0x000000000800def8                __fsym___cmd_list_mutex_desc
                0x000000000800df10                __fsym___cmd_list_mutex_name
                0x000000000800df24                __fsym_list_mutex_desc
                0x000000000800df3c                __fsym_list_mutex_name
                0x000000000800df48                __fsym___cmd_list_event_desc
                0x000000000800df60                __fsym___cmd_list_event_name
                0x000000000800df74                __fsym_list_event_desc
                0x000000000800df8c                __fsym_list_event_name
                0x000000000800df98                __fsym___cmd_list_sem_desc
                0x000000000800dfb4                __fsym___cmd_list_sem_name
                0x000000000800dfc4                __fsym_list_sem_desc
                0x000000000800dfe0                __fsym_list_sem_name
                0x000000000800dfec                __fsym___cmd_list_thread_desc
                0x000000000800dff8                __fsym___cmd_list_thread_name
                0x000000000800e00c                __fsym_list_thread_desc
                0x000000000800e018                __fsym_list_thread_name
                0x000000000800e024                __fsym___cmd_version_desc
                0x000000000800e048                __fsym___cmd_version_name
                0x000000000800e058                __fsym_version_desc
                0x000000000800e07c                __fsym_version_name
                0x000000000800e084                __fsym_hello_desc
                0x000000000800e094                __fsym_hello_name
 *fill*         0x000000000800e09a        0x2 00000000
 .rodata.show_wait_queue.str1.4
                0x000000000800e09c        0x6 build/cmd.o
 *fill*         0x000000000800e0a2        0x2 00000000
 .rodata.str1.4
                0x000000000800e0a4      0x131 build/cmd.o
 .rodata.msh_auto_complete.str1.4
                0x000000000800e1d5      0x131 build/msh.o
                                          0x4 (size before relaxing)
 *fill*         0x000000000800e1d5        0x3 00000000
 .rodata.msh_exec.str1.4
                0x000000000800e1d8       0x18 build/msh.o
 .rodata.msh_help.str1.4
                0x000000000800e1f0       0x30 build/msh.o
 .rodata.msh_split.str1.4
                0x000000000800e220       0x24 build/msh.o
                                         0x26 (size before relaxing)
 .rodata.name   0x000000000800e244       0x7f build/msh.o
                0x000000000800e244                __fsym___cmd_free_desc
                0x000000000800e26c                __fsym___cmd_free_name
                0x000000000800e278                __fsym___cmd_ps_desc
                0x000000000800e294                __fsym___cmd_ps_name
                0x000000000800e2a0                __fsym___cmd_help_desc
                0x000000000800e2b8                __fsym___cmd_help_name
 *fill*         0x000000000800e2c3        0x1 00000000
 .rodata.finsh_get_prompt.str1.4
                0x000000000800e2c4       0x12 build/shell.o
 *fill*         0x000000000800e2d6        0x2 00000000
 .rodata.finsh_set_device.str1.4
                0x000000000800e2d8       0x20 build/shell.o
 .rodata.finsh_system_init.str1.4
                0x000000000800e2f8       0x25 build/shell.o
 *fill*         0x000000000800e31d        0x3 00000000
 .rodata.finsh_thread_entry.str1.4
                0x000000000800e320       0x14 build/shell.o
                                         0x17 (size before relaxing)
 .rodata.shell_auto_complete.str1.4
                0x000000000800e334        0x2 build/shell.o
 .rodata.shell_handle_history.str1.4
                0x000000000800e334        0xd build/shell.o
 *fill*         0x000000000800e341        0x3 00000000
 .rodata.bus_fault_track.str1.4
                0x000000000800e344       0x70 build/cpuport.o
                                         0x72 (size before relaxing)
 .rodata.hard_fault_track.str1.4
                0x000000000800e3b4       0x25 build/cpuport.o
 *fill*         0x000000000800e3d9        0x3 00000000
 .rodata.mem_manage_fault_track.str1.4
                0x000000000800e3dc       0x6c build/cpuport.o
 .rodata.rt_hw_hard_fault_exception.str1.4
                0x000000000800e448      0x14a build/cpuport.o
 *fill*         0x000000000800e592        0x2 00000000
 .rodata.usage_fault_track.str1.4
                0x000000000800e594       0x67 build/cpuport.o
 *fill*         0x000000000800e5fb        0x1 00000000
 .rodata.rt_application_init.str1.4
                0x000000000800e5fc        0x5 build/components.o
 *fill*         0x000000000800e601        0x3 00000000
 .rodata.rt_device_init.str1.4
                0x000000000800e604       0x36 build/device.o
 *fill*         0x000000000800e63a        0x2 00000000
 .rodata.rt_thread_idle_init.str1.4
                0x000000000800e63c        0x8 build/idle.o
 .rodata.large_digits.6823
                0x000000000800e644       0x11 build/kservice.o
 *fill*         0x000000000800e655        0x3 00000000
 .rodata.rt_show_version.str1.4
                0x000000000800e658       0x86 build/kservice.o
 *fill*         0x000000000800e6de        0x2 00000000
 .rodata.rt_vsnprintf.str1.4
                0x000000000800e6e0        0x7 build/kservice.o
 *fill*         0x000000000800e6e7        0x1 00000000
 .rodata.small_digits.6822
                0x000000000800e6e8       0x11 build/kservice.o
 *fill*         0x000000000800e6f9        0x3 00000000
 .rodata.list_mem.str1.4
                0x000000000800e6fc       0x46 build/mem.o
 *fill*         0x000000000800e742        0x2 00000000
 .rodata.name   0x000000000800e744       0x29 build/mem.o
                0x000000000800e744                __fsym_list_mem_desc
                0x000000000800e764                __fsym_list_mem_name
 *fill*         0x000000000800e76d        0x3 00000000
 .rodata.rt_free.str1.4
                0x000000000800e770       0x4c build/mem.o
 .rodata.rt_system_heap_init.str1.4
                0x000000000800e7bc       0x42 build/mem.o
 *fill*         0x000000000800e7fe        0x2 00000000
 .rodata._rt_scheduler_stack_check.str1.4
                0x000000000800e800       0x51 build/scheduler.o
 *fill*         0x000000000800e851        0x3 00000000
 .rodata.song1  0x000000000800e854      0x212 build/main.o
                0x000000000800e854                song1
 *fill*         0x000000000800ea66        0x2 00000000
 .rodata.song2  0x000000000800ea68      0x212 build/main.o
                0x000000000800ea68                song2
 *fill*         0x000000000800ec7a        0x2 00000000
 .rodata.song3  0x000000000800ec7c      0x212 build/main.o
                0x000000000800ec7c                song3
 *fill*         0x000000000800ee8e        0x2 00000000
 .rodata.song4  0x000000000800ee90      0x212 build/main.o
                0x000000000800ee90                song4
 *fill*         0x000000000800f0a2        0x2 00000000
 .rodata.song5  0x000000000800f0a4      0x212 build/main.o
                0x000000000800f0a4                song5
 *fill*         0x000000000800f2b6        0x2 00000000
 .rodata.AHBPrescTable
                0x000000000800f2b8       0x10 build/system_stm32f4xx.o
                0x000000000800f2b8                AHBPrescTable
 .rodata.APBPrescTable
                0x000000000800f2c8        0x8 build/system_stm32f4xx.o
                0x000000000800f2c8                APBPrescTable
 .rodata._stm32_pin_ops
                0x000000000800f2d0       0x18 build/drv_gpio.o
 .rodata.pin_irq_map
                0x000000000800f2e8       0x40 build/drv_gpio.o
 .rodata.pins   0x000000000800f328      0x840 build/drv_gpio.o
 .rodata.rt_hw_pin_init.str1.4
                0x000000000800fb68        0x4 build/drv_gpio.o
 .rodata.hw_i2c_init.str1.4
                0x000000000800fb6c       0x17 build/drv_i2c.o
                                         0x1d (size before relaxing)
 *fill*         0x000000000800fb83        0x1 00000000
 .rodata.stm32_bit_ops
                0x000000000800fb84       0x20 build/drv_i2c.o
 .rodata.stm32_uart_ops
                0x000000000800fba4       0x14 build/drv_usart.o
 .rodata.str1.4
                0x000000000800fbb8        0x6 build/drv_usart.o
 .rodata.str1.4
                0x000000000800fbb8        0x5 build/drv_pwm.o
 .rodata.name   0x000000000800fbb8       0x70 build/pin.o
                0x000000000800fbb8                __fsym_pinRead_desc
                0x000000000800fbd8                __fsym_pinRead_name
                0x000000000800fbe0                __fsym_pinWrite_desc
                0x000000000800fbfc                __fsym_pinWrite_name
                0x000000000800fc08                __fsym_pinMode_desc
                0x000000000800fc20                __fsym_pinMode_name
 .rodata.pin_ops
                0x000000000800fc28       0x18 build/pin.o
 .rodata.name   0x000000000800fc40       0xaf build/rt_drv_pwm.o
                0x000000000800fc40                __fsym___cmd_pwm_set_desc
                0x000000000800fc58                __fsym___cmd_pwm_set_name
                0x000000000800fc68                __fsym___cmd_pwm_disable_desc
                0x000000000800fc7c                __fsym___cmd_pwm_disable_name
                0x000000000800fc90                __fsym___cmd_pwm_enable_desc
                0x000000000800fca4                __fsym___cmd_pwm_enable_name
                0x000000000800fcb8                __fsym_pwm_set_desc
                0x000000000800fcc4                __fsym_pwm_set_name
                0x000000000800fccc                __fsym_pwm_enable_desc
                0x000000000800fce4                __fsym_pwm_enable_name
 *fill*         0x000000000800fcef        0x1 00000000
 .rodata.pwm_device_ops
                0x000000000800fcf0       0x18 build/rt_drv_pwm.o
 .rodata.pwm_enable.str1.4
                0x000000000800fd08       0x1a build/rt_drv_pwm.o
 *fill*         0x000000000800fd22        0x2 00000000
 .rodata.pwm_set.str1.4
                0x000000000800fd24       0x1e build/rt_drv_pwm.o
 *fill*         0x000000000800fd42        0x2 00000000
 .rodata.i2c_bit_bus_ops
                0x000000000800fd44        0xc build/i2c-bit-ops.o
 .rodata.rt_i2c_bus_device_register.str1.4
                0x000000000800fd50       0x10 build/i2c_core.o
                                          0xd (size before relaxing)
 .rodata.i2c_ops
                0x000000000800fd60       0x18 build/i2c_dev.o
 .rodata.flagBitshiftOffset.8877
                0x000000000800fd78        0x8 build/stm32f4xx_hal_dma.o
 .rodata._setlocale_r.str1.1
                0x000000000800fd80        0x8 /opt/gcc-arm-none-eabi-6-2017-q2-update/bin/../lib/gcc/arm-none-eabi/6.3.1/../../../../arm-none-eabi/lib/thumb/v7e-m/fpv4-sp/hard/libc_nano.a(lib_a-locale.o)
                                          0x9 (size before relaxing)
 .rodata.str1.1
                0x000000000800fd88        0x2 /opt/gcc-arm-none-eabi-6-2017-q2-update/bin/../lib/gcc/arm-none-eabi/6.3.1/../../../../arm-none-eabi/lib/thumb/v7e-m/fpv4-sp/hard/libc_nano.a(lib_a-locale.o)
 .rodata._ctype_
                0x000000000800fd8a      0x101 /opt/gcc-arm-none-eabi-6-2017-q2-update/bin/../lib/gcc/arm-none-eabi/6.3.1/../../../../arm-none-eabi/lib/thumb/v7e-m/fpv4-sp/hard/libc_nano.a(lib_a-ctype_.o)
                0x000000000800fd8a                _ctype_
 *(.glue_7)
 .glue_7        0x000000000800fe8b        0x0 linker stubs
 *(.glue_7t)
 .glue_7t       0x000000000800fe8b        0x0 linker stubs
 *(.gnu.linkonce.t*)
                0x000000000800fe8c                . = ALIGN (0x4)
 *fill*         0x000000000800fe8b        0x1 00000000
                0x000000000800fe8c                __rt_utest_tc_tab_start = .
 *(UtestTcTab)
                0x000000000800fe8c                __rt_utest_tc_tab_end = .
                0x000000000800fe8c                . = ALIGN (0x4)
                0x000000000800fe8c                __fsymtab_start = .
 *(FSymTab)
 FSymTab        0x000000000800fe8c        0xc build/pcf8574_sample.o
                0x000000000800fe8c                __fsym___cmd_pcf8574_sample
 FSymTab        0x000000000800fe98       0xd8 build/cmd.o
                0x000000000800fe98                __fsym_list
                0x000000000800fea4                __fsym___cmd_list_device
                0x000000000800feb0                __fsym_list_device
                0x000000000800febc                __fsym___cmd_list_timer
                0x000000000800fec8                __fsym_list_timer
                0x000000000800fed4                __fsym___cmd_list_msgqueue
                0x000000000800fee0                __fsym_list_msgqueue
                0x000000000800feec                __fsym___cmd_list_mutex
                0x000000000800fef8                __fsym_list_mutex
                0x000000000800ff04                __fsym___cmd_list_event
                0x000000000800ff10                __fsym_list_event
                0x000000000800ff1c                __fsym___cmd_list_sem
                0x000000000800ff28                __fsym_list_sem
                0x000000000800ff34                __fsym___cmd_list_thread
                0x000000000800ff40                __fsym_list_thread
                0x000000000800ff4c                __fsym___cmd_version
                0x000000000800ff58                __fsym_version
                0x000000000800ff64                __fsym_hello
 FSymTab        0x000000000800ff70       0x24 build/msh.o
                0x000000000800ff70                __fsym___cmd_free
                0x000000000800ff7c                __fsym___cmd_ps
                0x000000000800ff88                __fsym___cmd_help
 FSymTab        0x000000000800ff94        0xc build/mem.o
                0x000000000800ff94                __fsym_list_mem
 FSymTab        0x000000000800ffa0       0x24 build/pin.o
                0x000000000800ffa0                __fsym_pinRead
                0x000000000800ffac                __fsym_pinWrite
                0x000000000800ffb8                __fsym_pinMode
 FSymTab        0x000000000800ffc4       0x3c build/rt_drv_pwm.o
                0x000000000800ffc4                __fsym___cmd_pwm_set
                0x000000000800ffd0                __fsym___cmd_pwm_disable
                0x000000000800ffdc                __fsym___cmd_pwm_enable
                0x000000000800ffe8                __fsym_pwm_set
                0x000000000800fff4                __fsym_pwm_enable
                0x0000000008010000                __fsymtab_end = .
                0x0000000008010000                . = ALIGN (0x4)
                0x0000000008010000                __vsymtab_start = .
 *(VSymTab)
                0x0000000008010000                __vsymtab_end = .
                0x0000000008010000                . = ALIGN (0x4)
                0x0000000008010000                __rt_init_start = .
 *(SORT(.rti_fn*))
 .rti_fn.0      0x0000000008010000        0x4 build/components.o
                0x0000000008010000                __rt_init_rti_start
 .rti_fn.0.end  0x0000000008010004        0x4 build/components.o
                0x0000000008010004                __rt_init_rti_board_start
 .rti_fn.1      0x0000000008010008        0x4 build/ili9341.o
                0x0000000008010008                __rt_init_LCD_Init
 .rti_fn.1      0x000000000801000c        0x4 build/drv_i2c.o
                0x000000000801000c                __rt_init_hw_i2c_init
 .rti_fn.1.end  0x0000000008010010        0x4 build/components.o
                0x0000000008010010                __rt_init_rti_board_end
 .rti_fn.3      0x0000000008010014        0x4 build/drv_pwm.o
                0x0000000008010014                __rt_init_stm32_pwm_init
 .rti_fn.4      0x0000000008010018        0x4 build/i2c_core.o
                0x0000000008010018                __rt_init_rt_i2c_core_init
 .rti_fn.6      0x000000000801001c        0x4 build/shell.o
                0x000000000801001c                __rt_init_finsh_system_init
 .rti_fn.6.end  0x0000000008010020        0x4 build/components.o
                0x0000000008010020                __rt_init_rti_end
                0x0000000008010024                __rt_init_end = .
                0x0000000008010024                . = ALIGN (0x4)
                [!provide]                        PROVIDE (__ctors_start__, .)
 *(SORT(.init_array.*))
 *(.init_array)
 .init_array    0x0000000008010024        0x4 /opt/gcc-arm-none-eabi-6-2017-q2-update/bin/../lib/gcc/arm-none-eabi/6.3.1/thumb/v7e-m/fpv4-sp/hard/crtbegin.o
                [!provide]                        PROVIDE (__ctors_end__, .)
                0x0000000008010028                . = ALIGN (0x4)
                0x0000000008010028                _etext = .
                0x0000000008010028                __exidx_start = .

.vfp11_veneer   0x0000000008010028        0x0
 .vfp11_veneer  0x0000000008010028        0x0 linker stubs

.v4_bx          0x0000000008010028        0x0
 .v4_bx         0x0000000008010028        0x0 linker stubs

.init           0x0000000008010028        0x4
 .init          0x0000000008010028        0x4 /opt/gcc-arm-none-eabi-6-2017-q2-update/bin/../lib/gcc/arm-none-eabi/6.3.1/thumb/v7e-m/fpv4-sp/hard/crti.o
                0x0000000008010028                _init

.fini           0x000000000801002c        0x4
 .fini          0x000000000801002c        0x4 /opt/gcc-arm-none-eabi-6-2017-q2-update/bin/../lib/gcc/arm-none-eabi/6.3.1/thumb/v7e-m/fpv4-sp/hard/crti.o
                0x000000000801002c                _fini

.iplt           0x0000000008010030        0x0
 .iplt          0x0000000008010030        0x0 /opt/gcc-arm-none-eabi-6-2017-q2-update/bin/../lib/gcc/arm-none-eabi/6.3.1/thumb/v7e-m/fpv4-sp/hard/crtbegin.o

.eh_frame       0x0000000008010030        0x0
 .eh_frame      0x0000000008010030        0x0 /opt/gcc-arm-none-eabi-6-2017-q2-update/bin/../lib/gcc/arm-none-eabi/6.3.1/thumb/v7e-m/fpv4-sp/hard/crtbegin.o

.ARM.exidx      0x0000000008010030        0x8
 *(.ARM.exidx* .gnu.linkonce.armexidx.*)
 .ARM.exidx     0x0000000008010030        0x8 /opt/gcc-arm-none-eabi-6-2017-q2-update/bin/../lib/gcc/arm-none-eabi/6.3.1/thumb/v7e-m/fpv4-sp/hard/libgcc.a(_udivmoddi4.o)
                0x0000000008010038                _sidata = .
                0x0000000008010038                __exidx_end = .

.rel.dyn        0x0000000008010038        0x0
 .rel.iplt      0x0000000008010038        0x0 /opt/gcc-arm-none-eabi-6-2017-q2-update/bin/../lib/gcc/arm-none-eabi/6.3.1/thumb/v7e-m/fpv4-sp/hard/crtbegin.o

.data           0x0000000020000000      0x3a8 load address 0x0000000008010038
                0x0000000020000000                . = ALIGN (0x4)
                0x0000000020000000                _sdata = .
 *(.data)
 *(.data.*)
 .data.BACK_COLOR
                0x0000000020000000        0x4 build/ili9341.o
                0x0000000020000000                BACK_COLOR
 .data.POINT_COLOR
                0x0000000020000004        0x4 build/ili9341.o
                0x0000000020000004                POINT_COLOR
 .data.rt_object_container
                0x0000000020000008       0x70 build/object.o
 .data.beep_volume
                0x0000000020000078        0x1 build/main.o
                0x0000000020000078                beep_volume
 *fill*         0x0000000020000079        0x3 
 .data.SystemCoreClock
                0x000000002000007c        0x4 build/system_stm32f4xx.o
                0x000000002000007c                SystemCoreClock
 .data.pin_irq_hdr_tab
                0x0000000020000080       0xc0 build/drv_gpio.o
 .data.uart_config
                0x0000000020000140       0x14 build/drv_usart.o
 .data.drv_ops  0x0000000020000154        0x4 build/drv_pwm.o
 .data.stm32_pwm_obj
                0x0000000020000158       0x78 build/drv_pwm.o
 .data.uwTickFreq
                0x00000000200001d0        0x1 build/stm32f4xx_hal.o
                0x00000000200001d0                uwTickFreq
 *fill*         0x00000000200001d1        0x3 
 .data.uwTickPrio
                0x00000000200001d4        0x4 build/stm32f4xx_hal.o
                0x00000000200001d4                uwTickPrio
 .data._impure_ptr
                0x00000000200001d8        0x4 /opt/gcc-arm-none-eabi-6-2017-q2-update/bin/../lib/gcc/arm-none-eabi/6.3.1/../../../../arm-none-eabi/lib/thumb/v7e-m/fpv4-sp/hard/libc_nano.a(lib_a-impure.o)
                0x00000000200001d8                _impure_ptr
 .data.impure_data
                0x00000000200001dc       0x60 /opt/gcc-arm-none-eabi-6-2017-q2-update/bin/../lib/gcc/arm-none-eabi/6.3.1/../../../../arm-none-eabi/lib/thumb/v7e-m/fpv4-sp/hard/libc_nano.a(lib_a-impure.o)
 .data.__global_locale
                0x000000002000023c      0x16c /opt/gcc-arm-none-eabi-6-2017-q2-update/bin/../lib/gcc/arm-none-eabi/6.3.1/../../../../arm-none-eabi/lib/thumb/v7e-m/fpv4-sp/hard/libc_nano.a(lib_a-locale.o)
                0x000000002000023c                __global_locale
 *(.gnu.linkonce.d*)
                [!provide]                        PROVIDE (__dtors_start__, .)
 *(SORT(.dtors.*))
 *(.dtors)
                [!provide]                        PROVIDE (__dtors_end__, .)
                0x00000000200003a8                . = ALIGN (0x4)
                0x00000000200003a8                _edata = .

.jcr            0x00000000200003a8        0x0 load address 0x00000000080103e0
 .jcr           0x00000000200003a8        0x0 /opt/gcc-arm-none-eabi-6-2017-q2-update/bin/../lib/gcc/arm-none-eabi/6.3.1/thumb/v7e-m/fpv4-sp/hard/crtbegin.o

.igot.plt       0x00000000200003a8        0x0 load address 0x00000000080103e0
 .igot.plt      0x00000000200003a8        0x0 /opt/gcc-arm-none-eabi-6-2017-q2-update/bin/../lib/gcc/arm-none-eabi/6.3.1/thumb/v7e-m/fpv4-sp/hard/crtbegin.o

.stack          0x00000000200003a8      0x200 load address 0x00000000080103e0
                0x00000000200003a8                . = ALIGN (0x4)
                0x00000000200003a8                _sstack = .
                0x00000000200005a8                . = (. + _system_stack_size)
 *fill*         0x00000000200003a8      0x200 
                0x00000000200005a8                . = ALIGN (0x4)
                0x00000000200005a8                _estack = .
                0x00000000200005a8                __bss_start = .

.bss            0x00000000200005a8     0x27d4 load address 0x00000000080105e0
                0x00000000200005a8                . = ALIGN (0x4)
                0x00000000200005a8                _sbss = .
 *(.bss)
 .bss           0x00000000200005a8       0x1c /opt/gcc-arm-none-eabi-6-2017-q2-update/bin/../lib/gcc/arm-none-eabi/6.3.1/thumb/v7e-m/fpv4-sp/hard/crtbegin.o
 *(.bss.*)
 .bss.rt_heap   0x00000000200005c4     0x1fa0 build/board.o
 .bss.pwm_device
                0x0000000020002564        0x4 build/beep.o
                0x0000000020002564                pwm_device
 .bss.button_manage
                0x0000000020002568       0x30 build/button.o
 .bss.freq_tab_new
                0x0000000020002598       0x18 build/decode.o
 .bss.btn_last  0x00000000200025b0       0x10 build/key.o
                0x00000000200025b0                btn_last
 .bss.btn_next  0x00000000200025c0       0x10 build/key.o
                0x00000000200025c0                btn_next
 .bss.btn_play  0x00000000200025d0       0x10 build/key.o
                0x00000000200025d0                btn_play
 .bss.inited.10921
                0x00000000200025e0        0x1 build/player.o
 *fill*         0x00000000200025e1        0x3 
 .bss.already_output.7187
                0x00000000200025e4        0x4 build/serial.o
 .bss._syscall_table_begin
                0x00000000200025e8        0x4 build/shell.o
                0x00000000200025e8                _syscall_table_begin
 .bss._syscall_table_end
                0x00000000200025ec        0x4 build/shell.o
                0x00000000200025ec                _syscall_table_end
 .bss._sysvar_table_begin
                0x00000000200025f0        0x4 build/shell.o
                0x00000000200025f0                _sysvar_table_begin
 .bss._sysvar_table_end
                0x00000000200025f4        0x4 build/shell.o
                0x00000000200025f4                _sysvar_table_end
 .bss.finsh_prompt.8212
                0x00000000200025f8      0x101 build/shell.o
 *fill*         0x00000000200026f9        0x3 
 .bss.finsh_prompt_custom
                0x00000000200026fc        0x4 build/shell.o
 .bss.rt_exception_hook
                0x0000000020002700        0x4 build/cpuport.o
 .bss.rt_tick   0x0000000020002704        0x4 build/clock.o
 .bss.idle      0x0000000020002708       0x80 build/idle.o
 .bss.idle_hook_list
                0x0000000020002788       0x10 build/idle.o
 .bss.rt_thread_stack
                0x0000000020002798       0x80 build/idle.o
 .bss.rt_interrupt_enter_hook
                0x0000000020002818        0x4 build/irq.o
 .bss.rt_interrupt_leave_hook
                0x000000002000281c        0x4 build/irq.o
 .bss.rt_interrupt_nest
                0x0000000020002820        0x1 build/irq.o
                0x0000000020002820                rt_interrupt_nest
 *fill*         0x0000000020002821        0x3 
 .bss.__rt_errno
                0x0000000020002824        0x4 build/kservice.o
 .bss._console_device
                0x0000000020002828        0x4 build/kservice.o
 .bss.rt_log_buf.6933
                0x000000002000282c      0x100 build/kservice.o
 .bss.heap_end  0x000000002000292c        0x4 build/mem.o
 .bss.heap_ptr  0x0000000020002930        0x4 build/mem.o
 .bss.heap_sem  0x0000000020002934       0x20 build/mem.o
 .bss.lfree     0x0000000020002954        0x4 build/mem.o
 .bss.max_mem   0x0000000020002958        0x4 build/mem.o
 .bss.mem_size_aligned
                0x000000002000295c        0x4 build/mem.o
 .bss.rt_free_hook
                0x0000000020002960        0x4 build/mem.o
 .bss.rt_malloc_hook
                0x0000000020002964        0x4 build/mem.o
 .bss.used_mem  0x0000000020002968        0x4 build/mem.o
 .bss.rt_object_attach_hook
                0x000000002000296c        0x4 build/object.o
 .bss.rt_object_detach_hook
                0x0000000020002970        0x4 build/object.o
 .bss.rt_scheduler_hook
                0x0000000020002974        0x4 build/scheduler.o
 .bss.rt_scheduler_lock_nest
                0x0000000020002978        0x2 build/scheduler.o
 *fill*         0x000000002000297a        0x2 
 .bss.rt_thread_inited_hook
                0x000000002000297c        0x4 build/thread.o
 .bss.rt_thread_resume_hook
                0x0000000020002980        0x4 build/thread.o
 .bss.rt_thread_suspend_hook
                0x0000000020002984        0x4 build/thread.o
 .bss.random_nr.6723
                0x0000000020002988        0x4 build/timer.o
 .bss.rt_timer_enter_hook
                0x000000002000298c        0x4 build/timer.o
 .bss.rt_timer_exit_hook
                0x0000000020002990        0x4 build/timer.o
 .bss.rt_timer_list
                0x0000000020002994        0x8 build/timer.o
 .bss.OSRunning
                0x000000002000299c        0x1 build/delay.o
                0x000000002000299c                OSRunning
 *fill*         0x000000002000299d        0x1 
 .bss.fac_ms    0x000000002000299e        0x2 build/delay.o
 .bss.fac_us    0x00000000200029a0        0x1 build/delay.o
 *fill*         0x00000000200029a1        0x3 
 .bss.pin_irq_enable_mask
                0x00000000200029a4        0x4 build/drv_gpio.o
 .bss.pcf8574_i2c_bus
                0x00000000200029a8       0x64 build/drv_i2c.o
 .bss.uart_obj  0x0000000020002a0c      0x14c build/drv_usart.o
 .bss._hw_pin   0x0000000020002b58       0x30 build/pin.o
 *(COMMON)
 COMMON         0x0000000020002b88       0x60 build/ili9341.o
                0x0000000020002b88                lcddev
                0x0000000020002b98                SRAM_Handler
 COMMON         0x0000000020002be8        0x4 build/shell.o
                0x0000000020002be8                shell
 COMMON         0x0000000020002bec        0xc build/cpuport.o
                0x0000000020002bec                rt_interrupt_to_thread
                0x0000000020002bf0                rt_interrupt_from_thread
                0x0000000020002bf4                rt_thread_switch_interrupt_flag
 COMMON         0x0000000020002bf8        0xc build/object.o
                0x0000000020002bf8                rt_object_put_hook
                0x0000000020002bfc                rt_object_take_hook
                0x0000000020002c00                rt_object_trytake_hook
 COMMON         0x0000000020002c04      0x114 build/scheduler.o
                0x0000000020002c04                rt_thread_priority_table
                0x0000000020002d04                rt_current_priority
                0x0000000020002d08                rt_current_thread
                0x0000000020002d0c                rt_thread_ready_priority_group
                0x0000000020002d10                rt_thread_defunct
 COMMON         0x0000000020002d18       0x60 build/main.o
                0x0000000020002d18                decode
                0x0000000020002d24                player
                0x0000000020002d64                audio
 COMMON         0x0000000020002d78        0x4 build/stm32f4xx_hal.o
                0x0000000020002d78                uwTick
                0x0000000020002d7c                . = ALIGN (0x4)
                0x0000000020002d7c                _ebss = .
 *(.bss.init)
                0x0000000020002d7c                __bss_end = .
                0x0000000020002d7c                _end = .

.stab
 *(.stab)

.stabstr
 *(.stabstr)

.stab.excl
 *(.stab.excl)

.stab.exclstr
 *(.stab.exclstr)

.stab.index
 *(.stab.index)

.stab.indexstr
 *(.stab.indexstr)

.comment        0x0000000000000000       0x7f
 *(.comment)
 .comment       0x0000000000000000       0x7f build/board.o
                                         0x80 (size before relaxing)
 .comment       0x000000000000007f       0x80 build/beep.o
 .comment       0x000000000000007f       0x80 build/button.o
 .comment       0x000000000000007f       0x80 build/decode.o
 .comment       0x000000000000007f       0x80 build/key.o
 .comment       0x000000000000007f       0x80 build/font.o
 .comment       0x000000000000007f       0x80 build/ili9341.o
 .comment       0x000000000000007f       0x80 build/led.o
 .comment       0x000000000000007f       0x80 build/pcf8574.o
 .comment       0x000000000000007f       0x80 build/pcf8574_sample.o
 .comment       0x000000000000007f       0x80 build/player.o
 .comment       0x000000000000007f       0x80 build/serial.o
 .comment       0x000000000000007f       0x80 build/completion.o
 .comment       0x000000000000007f       0x80 build/dataqueue.o
 .comment       0x000000000000007f       0x80 build/cmd.o
 .comment       0x000000000000007f       0x80 build/msh.o
 .comment       0x000000000000007f       0x80 build/shell.o
 .comment       0x000000000000007f       0x80 build/cpuport.o
 .comment       0x000000000000007f       0x80 build/clock.o
 .comment       0x000000000000007f       0x80 build/components.o
 .comment       0x000000000000007f       0x80 build/device.o
 .comment       0x000000000000007f       0x80 build/idle.o
 .comment       0x000000000000007f       0x80 build/ipc.o
 .comment       0x000000000000007f       0x80 build/irq.o
 .comment       0x000000000000007f       0x80 build/kservice.o
 .comment       0x000000000000007f       0x80 build/mem.o
 .comment       0x000000000000007f       0x80 build/object.o
 .comment       0x000000000000007f       0x80 build/scheduler.o
 .comment       0x000000000000007f       0x80 build/thread.o
 .comment       0x000000000000007f       0x80 build/timer.o
 .comment       0x000000000000007f       0x80 build/delay.o
 .comment       0x000000000000007f       0x80 build/main.o
 .comment       0x000000000000007f       0x80 build/stm32f4xx_hal_msp.o
 .comment       0x000000000000007f       0x80 build/stm32f4xx_it.o
 .comment       0x000000000000007f       0x80 build/system_stm32f4xx.o
 .comment       0x000000000000007f       0x80 build/drv_gpio.o
 .comment       0x000000000000007f       0x80 build/drv_i2c.o
 .comment       0x000000000000007f       0x80 build/drv_usart.o
 .comment       0x000000000000007f       0x80 build/drv_pwm.o
 .comment       0x000000000000007f       0x80 build/pin.o
 .comment       0x000000000000007f       0x80 build/rt_drv_pwm.o
 .comment       0x000000000000007f       0x80 build/i2c-bit-ops.o
 .comment       0x000000000000007f       0x80 build/i2c_core.o
 .comment       0x000000000000007f       0x80 build/i2c_dev.o
 .comment       0x000000000000007f       0x80 build/stm32f4xx_hal_tim.o
 .comment       0x000000000000007f       0x80 build/stm32f4xx_hal_tim_ex.o
 .comment       0x000000000000007f       0x80 build/stm32f4xx_hal_rcc.o
 .comment       0x000000000000007f       0x80 build/stm32f4xx_hal_gpio.o
 .comment       0x000000000000007f       0x80 build/stm32f4xx_hal_dma.o
 .comment       0x000000000000007f       0x80 build/stm32f4xx_hal_pwr_ex.o
 .comment       0x000000000000007f       0x80 build/stm32f4xx_hal_cortex.o
 .comment       0x000000000000007f       0x80 build/stm32f4xx_hal.o
 .comment       0x000000000000007f       0x80 build/stm32f4xx_hal_sram.o
 .comment       0x000000000000007f       0x80 build/stm32f4xx_ll_fmc.o
 .comment       0x000000000000007f       0x80 build/stm32f4xx_hal_uart.o

.ARM.attributes
                0x0000000000000000       0x30
 .ARM.attributes
                0x0000000000000000       0x22 /opt/gcc-arm-none-eabi-6-2017-q2-update/bin/../lib/gcc/arm-none-eabi/6.3.1/thumb/v7e-m/fpv4-sp/hard/crti.o
 .ARM.attributes
                0x0000000000000022       0x34 /opt/gcc-arm-none-eabi-6-2017-q2-update/bin/../lib/gcc/arm-none-eabi/6.3.1/thumb/v7e-m/fpv4-sp/hard/crtbegin.o
 .ARM.attributes
                0x0000000000000056       0x39 build/board.o
 .ARM.attributes
                0x000000000000008f       0x39 build/beep.o
 .ARM.attributes
                0x00000000000000c8       0x39 build/button.o
 .ARM.attributes
                0x0000000000000101       0x39 build/decode.o
 .ARM.attributes
                0x000000000000013a       0x39 build/key.o
 .ARM.attributes
                0x0000000000000173       0x39 build/font.o
 .ARM.attributes
                0x00000000000001ac       0x39 build/ili9341.o
 .ARM.attributes
                0x00000000000001e5       0x39 build/led.o
 .ARM.attributes
                0x000000000000021e       0x39 build/pcf8574.o
 .ARM.attributes
                0x0000000000000257       0x39 build/pcf8574_sample.o
 .ARM.attributes
                0x0000000000000290       0x39 build/player.o
 .ARM.attributes
                0x00000000000002c9       0x39 build/serial.o
 .ARM.attributes
                0x0000000000000302       0x39 build/completion.o
 .ARM.attributes
                0x000000000000033b       0x39 build/dataqueue.o
 .ARM.attributes
                0x0000000000000374       0x39 build/cmd.o
 .ARM.attributes
                0x00000000000003ad       0x39 build/msh.o
 .ARM.attributes
                0x00000000000003e6       0x39 build/shell.o
 .ARM.attributes
                0x000000000000041f       0x39 build/cpuport.o
 .ARM.attributes
                0x0000000000000458       0x39 build/clock.o
 .ARM.attributes
                0x0000000000000491       0x39 build/components.o
 .ARM.attributes
                0x00000000000004ca       0x39 build/device.o
 .ARM.attributes
                0x0000000000000503       0x39 build/idle.o
 .ARM.attributes
                0x000000000000053c       0x39 build/ipc.o
 .ARM.attributes
                0x0000000000000575       0x39 build/irq.o
 .ARM.attributes
                0x00000000000005ae       0x39 build/kservice.o
 .ARM.attributes
                0x00000000000005e7       0x39 build/mem.o
 .ARM.attributes
                0x0000000000000620       0x39 build/object.o
 .ARM.attributes
                0x0000000000000659       0x39 build/scheduler.o
 .ARM.attributes
                0x0000000000000692       0x39 build/thread.o
 .ARM.attributes
                0x00000000000006cb       0x39 build/timer.o
 .ARM.attributes
                0x0000000000000704       0x39 build/delay.o
 .ARM.attributes
                0x000000000000073d       0x39 build/main.o
 .ARM.attributes
                0x0000000000000776       0x39 build/stm32f4xx_hal_msp.o
 .ARM.attributes
                0x00000000000007af       0x39 build/stm32f4xx_it.o
 .ARM.attributes
                0x00000000000007e8       0x39 build/system_stm32f4xx.o
 .ARM.attributes
                0x0000000000000821       0x39 build/drv_gpio.o
 .ARM.attributes
                0x000000000000085a       0x39 build/drv_i2c.o
 .ARM.attributes
                0x0000000000000893       0x39 build/drv_usart.o
 .ARM.attributes
                0x00000000000008cc       0x39 build/drv_pwm.o
 .ARM.attributes
                0x0000000000000905       0x39 build/pin.o
 .ARM.attributes
                0x000000000000093e       0x39 build/rt_drv_pwm.o
 .ARM.attributes
                0x0000000000000977       0x39 build/i2c-bit-ops.o
 .ARM.attributes
                0x00000000000009b0       0x39 build/i2c_core.o
 .ARM.attributes
                0x00000000000009e9       0x39 build/i2c_dev.o
 .ARM.attributes
                0x0000000000000a22       0x39 build/stm32f4xx_hal_tim.o
 .ARM.attributes
                0x0000000000000a5b       0x39 build/stm32f4xx_hal_tim_ex.o
 .ARM.attributes
                0x0000000000000a94       0x39 build/stm32f4xx_hal_rcc.o
 .ARM.attributes
                0x0000000000000acd       0x39 build/stm32f4xx_hal_gpio.o
 .ARM.attributes
                0x0000000000000b06       0x39 build/stm32f4xx_hal_dma.o
 .ARM.attributes
                0x0000000000000b3f       0x39 build/stm32f4xx_hal_pwr_ex.o
 .ARM.attributes
                0x0000000000000b78       0x39 build/stm32f4xx_hal_cortex.o
 .ARM.attributes
                0x0000000000000bb1       0x39 build/stm32f4xx_hal.o
 .ARM.attributes
                0x0000000000000bea       0x39 build/stm32f4xx_hal_sram.o
 .ARM.attributes
                0x0000000000000c23       0x39 build/stm32f4xx_ll_fmc.o
 .ARM.attributes
                0x0000000000000c5c       0x39 build/stm32f4xx_hal_uart.o
 .ARM.attributes
                0x0000000000000c95       0x25 build/context_gcc.o
 .ARM.attributes
                0x0000000000000cba       0x21 build/startup_stm32f429xx.o
 .ARM.attributes
                0x0000000000000cdb       0x34 /opt/gcc-arm-none-eabi-6-2017-q2-update/bin/../lib/gcc/arm-none-eabi/6.3.1/../../../../arm-none-eabi/lib/thumb/v7e-m/fpv4-sp/hard/libc_nano.a(lib_a-atoi.o)
 .ARM.attributes
                0x0000000000000d0f       0x34 /opt/gcc-arm-none-eabi-6-2017-q2-update/bin/../lib/gcc/arm-none-eabi/6.3.1/../../../../arm-none-eabi/lib/thumb/v7e-m/fpv4-sp/hard/libc_nano.a(lib_a-impure.o)
 .ARM.attributes
                0x0000000000000d43       0x34 /opt/gcc-arm-none-eabi-6-2017-q2-update/bin/../lib/gcc/arm-none-eabi/6.3.1/../../../../arm-none-eabi/lib/thumb/v7e-m/fpv4-sp/hard/libc_nano.a(lib_a-memcmp.o)
 .ARM.attributes
                0x0000000000000d77       0x34 /opt/gcc-arm-none-eabi-6-2017-q2-update/bin/../lib/gcc/arm-none-eabi/6.3.1/../../../../arm-none-eabi/lib/thumb/v7e-m/fpv4-sp/hard/libc_nano.a(lib_a-memcpy-stub.o)
 .ARM.attributes
                0x0000000000000dab       0x34 /opt/gcc-arm-none-eabi-6-2017-q2-update/bin/../lib/gcc/arm-none-eabi/6.3.1/../../../../arm-none-eabi/lib/thumb/v7e-m/fpv4-sp/hard/libc_nano.a(lib_a-memset.o)
 .ARM.attributes
                0x0000000000000ddf       0x1b /opt/gcc-arm-none-eabi-6-2017-q2-update/bin/../lib/gcc/arm-none-eabi/6.3.1/../../../../arm-none-eabi/lib/thumb/v7e-m/fpv4-sp/hard/libc_nano.a(lib_a-strlen.o)
 .ARM.attributes
                0x0000000000000dfa       0x34 /opt/gcc-arm-none-eabi-6-2017-q2-update/bin/../lib/gcc/arm-none-eabi/6.3.1/../../../../arm-none-eabi/lib/thumb/v7e-m/fpv4-sp/hard/libc_nano.a(lib_a-strncmp.o)
 .ARM.attributes
                0x0000000000000e2e       0x34 /opt/gcc-arm-none-eabi-6-2017-q2-update/bin/../lib/gcc/arm-none-eabi/6.3.1/../../../../arm-none-eabi/lib/thumb/v7e-m/fpv4-sp/hard/libc_nano.a(lib_a-strncpy.o)
 .ARM.attributes
                0x0000000000000e62       0x34 /opt/gcc-arm-none-eabi-6-2017-q2-update/bin/../lib/gcc/arm-none-eabi/6.3.1/../../../../arm-none-eabi/lib/thumb/v7e-m/fpv4-sp/hard/libc_nano.a(lib_a-strtol.o)
 .ARM.attributes
                0x0000000000000e96       0x34 /opt/gcc-arm-none-eabi-6-2017-q2-update/bin/../lib/gcc/arm-none-eabi/6.3.1/../../../../arm-none-eabi/lib/thumb/v7e-m/fpv4-sp/hard/libc_nano.a(lib_a-locale.o)
 .ARM.attributes
                0x0000000000000eca       0x34 /opt/gcc-arm-none-eabi-6-2017-q2-update/bin/../lib/gcc/arm-none-eabi/6.3.1/../../../../arm-none-eabi/lib/thumb/v7e-m/fpv4-sp/hard/libc_nano.a(lib_a-mbtowc_r.o)
 .ARM.attributes
                0x0000000000000efe       0x34 /opt/gcc-arm-none-eabi-6-2017-q2-update/bin/../lib/gcc/arm-none-eabi/6.3.1/../../../../arm-none-eabi/lib/thumb/v7e-m/fpv4-sp/hard/libc_nano.a(lib_a-wctomb_r.o)
 .ARM.attributes
                0x0000000000000f32       0x34 /opt/gcc-arm-none-eabi-6-2017-q2-update/bin/../lib/gcc/arm-none-eabi/6.3.1/../../../../arm-none-eabi/lib/thumb/v7e-m/fpv4-sp/hard/libc_nano.a(lib_a-ctype_.o)
 .ARM.attributes
                0x0000000000000f66       0x22 /opt/gcc-arm-none-eabi-6-2017-q2-update/bin/../lib/gcc/arm-none-eabi/6.3.1/thumb/v7e-m/fpv4-sp/hard/libgcc.a(_aeabi_uldivmod.o)
 .ARM.attributes
                0x0000000000000f88       0x34 /opt/gcc-arm-none-eabi-6-2017-q2-update/bin/../lib/gcc/arm-none-eabi/6.3.1/thumb/v7e-m/fpv4-sp/hard/libgcc.a(_udivmoddi4.o)
 .ARM.attributes
                0x0000000000000fbc       0x22 /opt/gcc-arm-none-eabi-6-2017-q2-update/bin/../lib/gcc/arm-none-eabi/6.3.1/thumb/v7e-m/fpv4-sp/hard/libgcc.a(_dvmd_tls.o)

.debug
 *(.debug)

.line
 *(.line)

.debug_srcinfo
 *(.debug_srcinfo)

.debug_sfnames
 *(.debug_sfnames)

.debug_aranges  0x0000000000000000     0x1d78
 *(.debug_aranges)
 .debug_aranges
                0x0000000000000000       0x60 build/board.o
 .debug_aranges
                0x0000000000000060       0x38 build/beep.o
 .debug_aranges
                0x0000000000000098       0x30 build/button.o
 .debug_aranges
                0x00000000000000c8       0x48 build/decode.o
 .debug_aranges
                0x0000000000000110       0x38 build/key.o
 .debug_aranges
                0x0000000000000148       0x18 build/font.o
 .debug_aranges
                0x0000000000000160      0x110 build/ili9341.o
 .debug_aranges
                0x0000000000000270       0x38 build/led.o
 .debug_aranges
                0x00000000000002a8       0x48 build/pcf8574.o
 .debug_aranges
                0x00000000000002f0       0x20 build/pcf8574_sample.o
 .debug_aranges
                0x0000000000000310       0x60 build/player.o
 .debug_aranges
                0x0000000000000370       0x80 build/serial.o
 .debug_aranges
                0x00000000000003f0       0x30 build/completion.o
 .debug_aranges
                0x0000000000000420       0x40 build/dataqueue.o
 .debug_aranges
                0x0000000000000460       0x80 build/cmd.o
 .debug_aranges
                0x00000000000004e0       0x68 build/msh.o
 .debug_aranges
                0x0000000000000548       0xa0 build/shell.o
 .debug_aranges
                0x00000000000005e8       0x68 build/cpuport.o
 .debug_aranges
                0x0000000000000650       0x40 build/clock.o
 .debug_aranges
                0x0000000000000690       0x68 build/components.o
 .debug_aranges
                0x00000000000006f8       0x88 build/device.o
 .debug_aranges
                0x0000000000000780       0x48 build/idle.o
 .debug_aranges
                0x00000000000007c8      0x110 build/ipc.o
 .debug_aranges
                0x00000000000008d8       0x40 build/irq.o
 .debug_aranges
                0x0000000000000918       0xf8 build/kservice.o
 .debug_aranges
                0x0000000000000a10       0x68 build/mem.o
 .debug_aranges
                0x0000000000000a78       0x88 build/object.o
 .debug_aranges
                0x0000000000000b00       0x70 build/scheduler.o
 .debug_aranges
                0x0000000000000b70       0xc0 build/thread.o
 .debug_aranges
                0x0000000000000c30       0x90 build/timer.o
 .debug_aranges
                0x0000000000000cc0       0x48 build/delay.o
 .debug_aranges
                0x0000000000000d08       0x60 build/main.o
 .debug_aranges
                0x0000000000000d68       0x28 build/stm32f4xx_hal_msp.o
 .debug_aranges
                0x0000000000000d90       0x50 build/stm32f4xx_it.o
 .debug_aranges
                0x0000000000000de0       0x28 build/system_stm32f4xx.o
 .debug_aranges
                0x0000000000000e08       0x98 build/drv_gpio.o
 .debug_aranges
                0x0000000000000ea0       0x58 build/drv_i2c.o
 .debug_aranges
                0x0000000000000ef8       0x90 build/drv_usart.o
 .debug_aranges
                0x0000000000000f88       0x50 build/drv_pwm.o
 .debug_aranges
                0x0000000000000fd8       0x68 build/pin.o
 .debug_aranges
                0x0000000000001040       0x68 build/rt_drv_pwm.o
 .debug_aranges
                0x00000000000010a8       0x80 build/i2c-bit-ops.o
 .debug_aranges
                0x0000000000001128       0x48 build/i2c_core.o
 .debug_aranges
                0x0000000000001170       0x38 build/i2c_dev.o
 .debug_aranges
                0x00000000000011a8      0x3a8 build/stm32f4xx_hal_tim.o
 .debug_aranges
                0x0000000000001550      0x150 build/stm32f4xx_hal_tim_ex.o
 .debug_aranges
                0x00000000000016a0       0x88 build/stm32f4xx_hal_rcc.o
 .debug_aranges
                0x0000000000001728       0x58 build/stm32f4xx_hal_gpio.o
 .debug_aranges
                0x0000000000001780       0x90 build/stm32f4xx_hal_dma.o
 .debug_aranges
                0x0000000000001810       0x60 build/stm32f4xx_hal_pwr_ex.o
 .debug_aranges
                0x0000000000001870       0xa8 build/stm32f4xx_hal_cortex.o
 .debug_aranges
                0x0000000000001918      0x100 build/stm32f4xx_hal.o
 .debug_aranges
                0x0000000000001a18       0xa0 build/stm32f4xx_hal_sram.o
 .debug_aranges
                0x0000000000001ab8       0xf0 build/stm32f4xx_ll_fmc.o
 .debug_aranges
                0x0000000000001ba8      0x1d0 build/stm32f4xx_hal_uart.o

.debug_pubnames
 *(.debug_pubnames)

.debug_info     0x0000000000000000    0x48e40
 *(.debug_info .gnu.linkonce.wi.*)
 .debug_info    0x0000000000000000     0x1e5f build/board.o
 .debug_info    0x0000000000001e5f     0x109c build/beep.o
 .debug_info    0x0000000000002efb      0xdcc build/button.o
 .debug_info    0x0000000000003cc7      0xe32 build/decode.o
 .debug_info    0x0000000000004af9     0x13ff build/key.o
 .debug_info    0x0000000000005ef8      0x106 build/font.o
 .debug_info    0x0000000000005ffe     0x2e60 build/ili9341.o
 .debug_info    0x0000000000008e5e      0xc81 build/led.o
 .debug_info    0x0000000000009adf     0x157f build/pcf8574.o
 .debug_info    0x000000000000b05e     0x13b6 build/pcf8574_sample.o
 .debug_info    0x000000000000c414     0x1a38 build/player.o
 .debug_info    0x000000000000de4c     0x21b2 build/serial.o
 .debug_info    0x000000000000fffe     0x1064 build/completion.o
 .debug_info    0x0000000000011062     0x1477 build/dataqueue.o
 .debug_info    0x00000000000124d9     0x2c0b build/cmd.o
 .debug_info    0x00000000000150e4     0x135b build/msh.o
 .debug_info    0x000000000001643f     0x1dc7 build/shell.o
 .debug_info    0x0000000000018206     0x12bb build/cpuport.o
 .debug_info    0x00000000000194c1      0xe6e build/clock.o
 .debug_info    0x000000000001a32f     0x102c build/components.o
 .debug_info    0x000000000001b35b     0x1509 build/device.o
 .debug_info    0x000000000001c864     0x11d7 build/idle.o
 .debug_info    0x000000000001da3b     0x32e5 build/ipc.o
 .debug_info    0x0000000000020d20      0xbe0 build/irq.o
 .debug_info    0x0000000000021900     0x1f7d build/kservice.o
 .debug_info    0x000000000002387d     0x13f8 build/mem.o
 .debug_info    0x0000000000024c75     0x12a4 build/object.o
 .debug_info    0x0000000000025f19     0x13ff build/scheduler.o
 .debug_info    0x0000000000027318     0x1c09 build/thread.o
 .debug_info    0x0000000000028f21     0x1580 build/timer.o
 .debug_info    0x000000000002a4a1      0xe0b build/delay.o
 .debug_info    0x000000000002b2ac     0x1803 build/main.o
 .debug_info    0x000000000002caaf      0x1af build/stm32f4xx_hal_msp.o
 .debug_info    0x000000000002cc5e      0x218 build/stm32f4xx_it.o
 .debug_info    0x000000000002ce76      0x5fe build/system_stm32f4xx.o
 .debug_info    0x000000000002d474     0x2360 build/drv_gpio.o
 .debug_info    0x000000000002f7d4     0x1b6a build/drv_i2c.o
 .debug_info    0x000000000003133e     0x25b9 build/drv_usart.o
 .debug_info    0x00000000000338f7     0x1ba8 build/drv_pwm.o
 .debug_info    0x000000000003549f     0x15e5 build/pin.o
 .debug_info    0x0000000000036a84     0x17f5 build/rt_drv_pwm.o
 .debug_info    0x0000000000038279     0x1cdc build/i2c-bit-ops.o
 .debug_info    0x0000000000039f55     0x1507 build/i2c_core.o
 .debug_info    0x000000000003b45c     0x1469 build/i2c_dev.o
 .debug_info    0x000000000003c8c5     0x34d0 build/stm32f4xx_hal_tim.o
 .debug_info    0x000000000003fd95     0x166c build/stm32f4xx_hal_tim_ex.o
 .debug_info    0x0000000000041401      0xb9a build/stm32f4xx_hal_rcc.o
 .debug_info    0x0000000000041f9b      0x887 build/stm32f4xx_hal_gpio.o
 .debug_info    0x0000000000042822      0xb46 build/stm32f4xx_hal_dma.o
 .debug_info    0x0000000000043368      0x8bb build/stm32f4xx_hal_pwr_ex.o
 .debug_info    0x0000000000043c23     0x108b build/stm32f4xx_hal_cortex.o
 .debug_info    0x0000000000044cae      0xb57 build/stm32f4xx_hal.o
 .debug_info    0x0000000000045805      0xd02 build/stm32f4xx_hal_sram.o
 .debug_info    0x0000000000046507     0x109a build/stm32f4xx_ll_fmc.o
 .debug_info    0x00000000000475a1     0x189f build/stm32f4xx_hal_uart.o

.debug_abbrev   0x0000000000000000     0x9964
 *(.debug_abbrev)
 .debug_abbrev  0x0000000000000000      0x30d build/board.o
 .debug_abbrev  0x000000000000030d      0x24b build/beep.o
 .debug_abbrev  0x0000000000000558      0x25b build/button.o
 .debug_abbrev  0x00000000000007b3      0x265 build/decode.o
 .debug_abbrev  0x0000000000000a18      0x28d build/key.o
 .debug_abbrev  0x0000000000000ca5       0x5f build/font.o
 .debug_abbrev  0x0000000000000d04      0x3c3 build/ili9341.o
 .debug_abbrev  0x00000000000010c7      0x1fd build/led.o
 .debug_abbrev  0x00000000000012c4      0x285 build/pcf8574.o
 .debug_abbrev  0x0000000000001549      0x242 build/pcf8574_sample.o
 .debug_abbrev  0x000000000000178b      0x326 build/player.o
 .debug_abbrev  0x0000000000001ab1      0x42f build/serial.o
 .debug_abbrev  0x0000000000001ee0      0x28f build/completion.o
 .debug_abbrev  0x000000000000216f      0x2d0 build/dataqueue.o
 .debug_abbrev  0x000000000000243f      0x3c8 build/cmd.o
 .debug_abbrev  0x0000000000002807      0x355 build/msh.o
 .debug_abbrev  0x0000000000002b5c      0x462 build/shell.o
 .debug_abbrev  0x0000000000002fbe      0x31a build/cpuport.o
 .debug_abbrev  0x00000000000032d8      0x251 build/clock.o
 .debug_abbrev  0x0000000000003529      0x291 build/components.o
 .debug_abbrev  0x00000000000037ba      0x324 build/device.o
 .debug_abbrev  0x0000000000003ade      0x369 build/idle.o
 .debug_abbrev  0x0000000000003e47      0x3ca build/ipc.o
 .debug_abbrev  0x0000000000004211      0x259 build/irq.o
 .debug_abbrev  0x000000000000446a      0x47c build/kservice.o
 .debug_abbrev  0x00000000000048e6      0x310 build/mem.o
 .debug_abbrev  0x0000000000004bf6      0x382 build/object.o
 .debug_abbrev  0x0000000000004f78      0x3c4 build/scheduler.o
 .debug_abbrev  0x000000000000533c      0x38a build/thread.o
 .debug_abbrev  0x00000000000056c6      0x459 build/timer.o
 .debug_abbrev  0x0000000000005b1f      0x276 build/delay.o
 .debug_abbrev  0x0000000000005d95      0x29c build/main.o
 .debug_abbrev  0x0000000000006031       0xab build/stm32f4xx_hal_msp.o
 .debug_abbrev  0x00000000000060dc       0xab build/stm32f4xx_it.o
 .debug_abbrev  0x0000000000006187      0x128 build/system_stm32f4xx.o
 .debug_abbrev  0x00000000000062af      0x3e2 build/drv_gpio.o
 .debug_abbrev  0x0000000000006691      0x32f build/drv_i2c.o
 .debug_abbrev  0x00000000000069c0      0x407 build/drv_usart.o
 .debug_abbrev  0x0000000000006dc7      0x33b build/drv_pwm.o
 .debug_abbrev  0x0000000000007102      0x299 build/pin.o
 .debug_abbrev  0x000000000000739b      0x2f0 build/rt_drv_pwm.o
 .debug_abbrev  0x000000000000768b      0x3f8 build/i2c-bit-ops.o
 .debug_abbrev  0x0000000000007a83      0x294 build/i2c_core.o
 .debug_abbrev  0x0000000000007d17      0x276 build/i2c_dev.o
 .debug_abbrev  0x0000000000007f8d      0x270 build/stm32f4xx_hal_tim.o
 .debug_abbrev  0x00000000000081fd      0x269 build/stm32f4xx_hal_tim_ex.o
 .debug_abbrev  0x0000000000008466      0x28b build/stm32f4xx_hal_rcc.o
 .debug_abbrev  0x00000000000086f1      0x21a build/stm32f4xx_hal_gpio.o
 .debug_abbrev  0x000000000000890b      0x2aa build/stm32f4xx_hal_dma.o
 .debug_abbrev  0x0000000000008bb5      0x1ba build/stm32f4xx_hal_pwr_ex.o
 .debug_abbrev  0x0000000000008d6f      0x329 build/stm32f4xx_hal_cortex.o
 .debug_abbrev  0x0000000000009098      0x1eb build/stm32f4xx_hal.o
 .debug_abbrev  0x0000000000009283      0x239 build/stm32f4xx_hal_sram.o
 .debug_abbrev  0x00000000000094bc      0x1d3 build/stm32f4xx_ll_fmc.o
 .debug_abbrev  0x000000000000968f      0x2d5 build/stm32f4xx_hal_uart.o

.debug_line     0x0000000000000000     0xe269
 *(.debug_line)
 .debug_line    0x0000000000000000      0x4e4 build/board.o
 .debug_line    0x00000000000004e4      0x2cf build/beep.o
 .debug_line    0x00000000000007b3      0x278 build/button.o
 .debug_line    0x0000000000000a2b      0x2a7 build/decode.o
 .debug_line    0x0000000000000cd2      0x2ec build/key.o
 .debug_line    0x0000000000000fbe       0x3e build/font.o
 .debug_line    0x0000000000000ffc      0x751 build/ili9341.o
 .debug_line    0x000000000000174d      0x2c5 build/led.o
 .debug_line    0x0000000000001a12      0x2c9 build/pcf8574.o
 .debug_line    0x0000000000001cdb      0x208 build/pcf8574_sample.o
 .debug_line    0x0000000000001ee3      0x3eb build/player.o
 .debug_line    0x00000000000022ce      0x54f build/serial.o
 .debug_line    0x000000000000281d      0x271 build/completion.o
 .debug_line    0x0000000000002a8e      0x33e build/dataqueue.o
 .debug_line    0x0000000000002dcc      0x59a build/cmd.o
 .debug_line    0x0000000000003366      0x3d2 build/msh.o
 .debug_line    0x0000000000003738      0x4c1 build/shell.o
 .debug_line    0x0000000000003bf9      0x2cd build/cpuport.o
 .debug_line    0x0000000000003ec6      0x20d build/clock.o
 .debug_line    0x00000000000040d3      0x27c build/components.o
 .debug_line    0x000000000000434f      0x32f build/device.o
 .debug_line    0x000000000000467e      0x2c3 build/idle.o
 .debug_line    0x0000000000004941      0x9de build/ipc.o
 .debug_line    0x000000000000531f      0x1fd build/irq.o
 .debug_line    0x000000000000551c      0x665 build/kservice.o
 .debug_line    0x0000000000005b81      0x3e0 build/mem.o
 .debug_line    0x0000000000005f61      0x35e build/object.o
 .debug_line    0x00000000000062bf      0x348 build/scheduler.o
 .debug_line    0x0000000000006607      0x462 build/thread.o
 .debug_line    0x0000000000006a69      0x418 build/timer.o
 .debug_line    0x0000000000006e81      0x303 build/delay.o
 .debug_line    0x0000000000007184      0x3c5 build/main.o
 .debug_line    0x0000000000007549      0x149 build/stm32f4xx_hal_msp.o
 .debug_line    0x0000000000007692      0x194 build/stm32f4xx_it.o
 .debug_line    0x0000000000007826      0x17c build/system_stm32f4xx.o
 .debug_line    0x00000000000079a2      0x515 build/drv_gpio.o
 .debug_line    0x0000000000007eb7      0x39f build/drv_i2c.o
 .debug_line    0x0000000000008256      0x574 build/drv_usart.o
 .debug_line    0x00000000000087ca      0x48d build/drv_pwm.o
 .debug_line    0x0000000000008c57      0x34f build/pin.o
 .debug_line    0x0000000000008fa6      0x37f build/rt_drv_pwm.o
 .debug_line    0x0000000000009325      0x481 build/i2c-bit-ops.o
 .debug_line    0x00000000000097a6      0x280 build/i2c_core.o
 .debug_line    0x0000000000009a26      0x261 build/i2c_dev.o
 .debug_line    0x0000000000009c87     0x1418 build/stm32f4xx_hal_tim.o
 .debug_line    0x000000000000b09f      0x7e1 build/stm32f4xx_hal_tim_ex.o
 .debug_line    0x000000000000b880      0x432 build/stm32f4xx_hal_rcc.o
 .debug_line    0x000000000000bcb2      0x320 build/stm32f4xx_hal_gpio.o
 .debug_line    0x000000000000bfd2      0x4a1 build/stm32f4xx_hal_dma.o
 .debug_line    0x000000000000c473      0x257 build/stm32f4xx_hal_pwr_ex.o
 .debug_line    0x000000000000c6ca      0x391 build/stm32f4xx_hal_cortex.o
 .debug_line    0x000000000000ca5b      0x39c build/stm32f4xx_hal.o
 .debug_line    0x000000000000cdf7      0x474 build/stm32f4xx_hal_sram.o
 .debug_line    0x000000000000d26b      0x507 build/stm32f4xx_ll_fmc.o
 .debug_line    0x000000000000d772      0xaf7 build/stm32f4xx_hal_uart.o

.debug_frame    0x0000000000000000     0x5c24
 *(.debug_frame)
 .debug_frame   0x0000000000000000      0x104 build/board.o
 .debug_frame   0x0000000000000104       0x80 build/beep.o
 .debug_frame   0x0000000000000184       0x7c build/button.o
 .debug_frame   0x0000000000000200       0xb8 build/decode.o
 .debug_frame   0x00000000000002b8       0x90 build/key.o
 .debug_frame   0x0000000000000348      0x420 build/ili9341.o
 .debug_frame   0x0000000000000768       0x80 build/led.o
 .debug_frame   0x00000000000007e8       0xcc build/pcf8574.o
 .debug_frame   0x00000000000008b4       0x30 build/pcf8574_sample.o
 .debug_frame   0x00000000000008e4      0x15c build/player.o
 .debug_frame   0x0000000000000a40      0x1a8 build/serial.o
 .debug_frame   0x0000000000000be8       0x78 build/completion.o
 .debug_frame   0x0000000000000c60       0xdc build/dataqueue.o
 .debug_frame   0x0000000000000d3c      0x210 build/cmd.o
 .debug_frame   0x0000000000000f4c      0x158 build/msh.o
 .debug_frame   0x00000000000010a4      0x1bc build/shell.o
 .debug_frame   0x0000000000001260      0x110 build/cpuport.o
 .debug_frame   0x0000000000001370       0x84 build/clock.o
 .debug_frame   0x00000000000013f4       0xf8 build/components.o
 .debug_frame   0x00000000000014ec      0x1b0 build/device.o
 .debug_frame   0x000000000000169c       0xc8 build/idle.o
 .debug_frame   0x0000000000001764      0x4a4 build/ipc.o
 .debug_frame   0x0000000000001c08       0x84 build/irq.o
 .debug_frame   0x0000000000001c8c      0x3c0 build/kservice.o
 .debug_frame   0x000000000000204c      0x14c build/mem.o
 .debug_frame   0x0000000000002198      0x150 build/object.o
 .debug_frame   0x00000000000022e8      0x134 build/scheduler.o
 .debug_frame   0x000000000000241c      0x290 build/thread.o
 .debug_frame   0x00000000000026ac      0x1c0 build/timer.o
 .debug_frame   0x000000000000286c       0xbc build/delay.o
 .debug_frame   0x0000000000002928      0x104 build/main.o
 .debug_frame   0x0000000000002a2c       0x30 build/stm32f4xx_hal_msp.o
 .debug_frame   0x0000000000002a5c       0x80 build/stm32f4xx_it.o
 .debug_frame   0x0000000000002adc       0x30 build/system_stm32f4xx.o
 .debug_frame   0x0000000000002b0c      0x208 build/drv_gpio.o
 .debug_frame   0x0000000000002d14       0xd8 build/drv_i2c.o
 .debug_frame   0x0000000000002dec      0x1bc build/drv_usart.o
 .debug_frame   0x0000000000002fa8      0x100 build/drv_pwm.o
 .debug_frame   0x00000000000030a8      0x150 build/pin.o
 .debug_frame   0x00000000000031f8      0x17c build/rt_drv_pwm.o
 .debug_frame   0x0000000000003374      0x1d0 build/i2c-bit-ops.o
 .debug_frame   0x0000000000003544       0xc4 build/i2c_core.o
 .debug_frame   0x0000000000003608       0x80 build/i2c_dev.o
 .debug_frame   0x0000000000003688      0xbd0 build/stm32f4xx_hal_tim.o
 .debug_frame   0x0000000000004258      0x428 build/stm32f4xx_hal_tim_ex.o
 .debug_frame   0x0000000000004680      0x1ac build/stm32f4xx_hal_rcc.o
 .debug_frame   0x000000000000482c       0xf0 build/stm32f4xx_hal_gpio.o
 .debug_frame   0x000000000000491c      0x1a8 build/stm32f4xx_hal_dma.o
 .debug_frame   0x0000000000004ac4      0x100 build/stm32f4xx_hal_pwr_ex.o
 .debug_frame   0x0000000000004bc4      0x16c build/stm32f4xx_hal_cortex.o
 .debug_frame   0x0000000000004d30      0x220 build/stm32f4xx_hal.o
 .debug_frame   0x0000000000004f50      0x1e4 build/stm32f4xx_hal_sram.o
 .debug_frame   0x0000000000005134      0x2a8 build/stm32f4xx_ll_fmc.o
 .debug_frame   0x00000000000053dc      0x580 build/stm32f4xx_hal_uart.o
 .debug_frame   0x000000000000595c       0x30 /opt/gcc-arm-none-eabi-6-2017-q2-update/bin/../lib/gcc/arm-none-eabi/6.3.1/../../../../arm-none-eabi/lib/thumb/v7e-m/fpv4-sp/hard/libc_nano.a(lib_a-atoi.o)
 .debug_frame   0x000000000000598c       0x28 /opt/gcc-arm-none-eabi-6-2017-q2-update/bin/../lib/gcc/arm-none-eabi/6.3.1/../../../../arm-none-eabi/lib/thumb/v7e-m/fpv4-sp/hard/libc_nano.a(lib_a-memcmp.o)
 .debug_frame   0x00000000000059b4       0x28 /opt/gcc-arm-none-eabi-6-2017-q2-update/bin/../lib/gcc/arm-none-eabi/6.3.1/../../../../arm-none-eabi/lib/thumb/v7e-m/fpv4-sp/hard/libc_nano.a(lib_a-memcpy-stub.o)
 .debug_frame   0x00000000000059dc       0x20 /opt/gcc-arm-none-eabi-6-2017-q2-update/bin/../lib/gcc/arm-none-eabi/6.3.1/../../../../arm-none-eabi/lib/thumb/v7e-m/fpv4-sp/hard/libc_nano.a(lib_a-memset.o)
 .debug_frame   0x00000000000059fc       0x28 /opt/gcc-arm-none-eabi-6-2017-q2-update/bin/../lib/gcc/arm-none-eabi/6.3.1/../../../../arm-none-eabi/lib/thumb/v7e-m/fpv4-sp/hard/libc_nano.a(lib_a-strncmp.o)
 .debug_frame   0x0000000000005a24       0x2c /opt/gcc-arm-none-eabi-6-2017-q2-update/bin/../lib/gcc/arm-none-eabi/6.3.1/../../../../arm-none-eabi/lib/thumb/v7e-m/fpv4-sp/hard/libc_nano.a(lib_a-strncpy.o)
 .debug_frame   0x0000000000005a50       0x88 /opt/gcc-arm-none-eabi-6-2017-q2-update/bin/../lib/gcc/arm-none-eabi/6.3.1/../../../../arm-none-eabi/lib/thumb/v7e-m/fpv4-sp/hard/libc_nano.a(lib_a-strtol.o)
 .debug_frame   0x0000000000005ad8       0x68 /opt/gcc-arm-none-eabi-6-2017-q2-update/bin/../lib/gcc/arm-none-eabi/6.3.1/../../../../arm-none-eabi/lib/thumb/v7e-m/fpv4-sp/hard/libc_nano.a(lib_a-locale.o)
 .debug_frame   0x0000000000005b40       0x48 /opt/gcc-arm-none-eabi-6-2017-q2-update/bin/../lib/gcc/arm-none-eabi/6.3.1/../../../../arm-none-eabi/lib/thumb/v7e-m/fpv4-sp/hard/libc_nano.a(lib_a-mbtowc_r.o)
 .debug_frame   0x0000000000005b88       0x3c /opt/gcc-arm-none-eabi-6-2017-q2-update/bin/../lib/gcc/arm-none-eabi/6.3.1/../../../../arm-none-eabi/lib/thumb/v7e-m/fpv4-sp/hard/libc_nano.a(lib_a-wctomb_r.o)
 .debug_frame   0x0000000000005bc4       0x2c /opt/gcc-arm-none-eabi-6-2017-q2-update/bin/../lib/gcc/arm-none-eabi/6.3.1/thumb/v7e-m/fpv4-sp/hard/libgcc.a(_aeabi_uldivmod.o)
 .debug_frame   0x0000000000005bf0       0x34 /opt/gcc-arm-none-eabi-6-2017-q2-update/bin/../lib/gcc/arm-none-eabi/6.3.1/thumb/v7e-m/fpv4-sp/hard/libgcc.a(_udivmoddi4.o)

.debug_str      0x0000000000000000     0x869b
 *(.debug_str)
 .debug_str     0x0000000000000000     0x1116 build/board.o
                                       0x1279 (size before relaxing)
 .debug_str     0x0000000000001116      0x36e build/beep.o
                                        0xace (size before relaxing)
 .debug_str     0x0000000000001484      0x1b8 build/button.o
                                        0x842 (size before relaxing)
 .debug_str     0x000000000000163c      0x150 build/decode.o
                                        0x7ab (size before relaxing)
 .debug_str     0x000000000000178c      0x255 build/key.o
                                        0xb9f (size before relaxing)
 .debug_str     0x00000000000019e1       0x14 build/font.o
                                        0x14c (size before relaxing)
 .debug_str     0x00000000000019f5      0x4f8 build/ili9341.o
                                       0x1083 (size before relaxing)
 .debug_str     0x0000000000001eed       0x43 build/led.o
                                        0x759 (size before relaxing)
 .debug_str     0x0000000000001f30      0x192 build/pcf8574.o
                                        0xbef (size before relaxing)
 .debug_str     0x00000000000020c2       0x91 build/pcf8574_sample.o
                                        0xbd2 (size before relaxing)
 .debug_str     0x0000000000002153      0x180 build/player.o
                                        0xc63 (size before relaxing)
 .debug_str     0x00000000000022d3      0x425 build/serial.o
                                        0xe36 (size before relaxing)
 .debug_str     0x00000000000026f8       0xbb build/completion.o
                                        0x8e3 (size before relaxing)
 .debug_str     0x00000000000027b3       0x41 build/dataqueue.o
                                        0x9bd (size before relaxing)
 .debug_str     0x00000000000027f4      0x889 build/cmd.o
                                       0x13ef (size before relaxing)
 .debug_str     0x000000000000307d      0x1ca build/msh.o
                                        0x8fe (size before relaxing)
 .debug_str     0x0000000000003247      0x2d5 build/shell.o
                                        0xf1c (size before relaxing)
 .debug_str     0x000000000000351c      0x1a5 build/cpuport.o
                                        0x826 (size before relaxing)
 .debug_str     0x00000000000036c1       0x76 build/clock.o
                                        0x848 (size before relaxing)
 .debug_str     0x0000000000003737      0x149 build/components.o
                                        0x963 (size before relaxing)
 .debug_str     0x0000000000003880       0xdc build/device.o
                                        0xcb7 (size before relaxing)
 .debug_str     0x000000000000395c      0x12e build/idle.o
                                        0x955 (size before relaxing)
 .debug_str     0x0000000000003a8a      0x2ba build/ipc.o
                                        0xe17 (size before relaxing)
 .debug_str     0x0000000000003d44       0xa2 build/irq.o
                                        0x70f (size before relaxing)
 .debug_str     0x0000000000003de6      0x20b build/kservice.o
                                        0xd8b (size before relaxing)
 .debug_str     0x0000000000003ff1      0x15d build/mem.o
                                        0x94d (size before relaxing)
 .debug_str     0x000000000000414e      0x1e8 build/object.o
                                        0xb58 (size before relaxing)
 .debug_str     0x0000000000004336      0x1d0 build/scheduler.o
                                        0xab5 (size before relaxing)
 .debug_str     0x0000000000004506      0x171 build/thread.o
                                        0xd40 (size before relaxing)
 .debug_str     0x0000000000004677      0x10d build/timer.o
                                        0xad3 (size before relaxing)
 .debug_str     0x0000000000004784       0xb8 build/delay.o
                                        0x82a (size before relaxing)
 .debug_str     0x000000000000483c       0x99 build/main.o
                                        0xcb6 (size before relaxing)
 .debug_str     0x00000000000048d5       0x33 build/stm32f4xx_hal_msp.o
                                        0x2b7 (size before relaxing)
 .debug_str     0x0000000000004908       0x81 build/stm32f4xx_it.o
                                        0x305 (size before relaxing)
 .debug_str     0x0000000000004989       0xa8 build/system_stm32f4xx.o
                                        0x43b (size before relaxing)
 .debug_str     0x0000000000004a31      0x801 build/drv_gpio.o
                                       0x14bb (size before relaxing)
 .debug_str     0x0000000000005232       0xfe build/drv_i2c.o
                                        0xf3a (size before relaxing)
 .debug_str     0x0000000000005330      0x25d build/drv_usart.o
                                       0x1952 (size before relaxing)
 .debug_str     0x000000000000558d      0x2b9 build/drv_pwm.o
                                       0x11c0 (size before relaxing)
 .debug_str     0x0000000000005846      0x151 build/pin.o
                                        0xc14 (size before relaxing)
 .debug_str     0x0000000000005997      0x1ba build/rt_drv_pwm.o
                                        0xcbd (size before relaxing)
 .debug_str     0x0000000000005b51      0x13c build/i2c-bit-ops.o
                                        0xc9f (size before relaxing)
 .debug_str     0x0000000000005c8d       0xb2 build/i2c_core.o
                                        0xbf7 (size before relaxing)
 .debug_str     0x0000000000005d3f       0x84 build/i2c_dev.o
                                        0xbd9 (size before relaxing)
 .debug_str     0x0000000000005dc3      0xd44 build/stm32f4xx_hal_tim.o
                                       0x158a (size before relaxing)
 .debug_str     0x0000000000006b07      0x4cd build/stm32f4xx_hal_tim_ex.o
                                        0xda2 (size before relaxing)
 .debug_str     0x0000000000006fd4      0x17e build/stm32f4xx_hal_rcc.o
                                        0x79e (size before relaxing)
 .debug_str     0x0000000000007152       0xb2 build/stm32f4xx_hal_gpio.o
                                        0x5c0 (size before relaxing)
 .debug_str     0x0000000000007204      0x2af build/stm32f4xx_hal_dma.o
                                        0x833 (size before relaxing)
 .debug_str     0x00000000000074b3      0x125 build/stm32f4xx_hal_pwr_ex.o
                                        0x5ab (size before relaxing)
 .debug_str     0x00000000000075d8      0x2e0 build/stm32f4xx_hal_cortex.o
                                        0xd35 (size before relaxing)
 .debug_str     0x00000000000078b8      0x247 build/stm32f4xx_hal.o
                                        0xc5a (size before relaxing)
 .debug_str     0x0000000000007aff      0x246 build/stm32f4xx_hal_sram.o
                                        0x9df (size before relaxing)
 .debug_str     0x0000000000007d45      0x4f6 build/stm32f4xx_ll_fmc.o
                                        0xa8c (size before relaxing)
 .debug_str     0x000000000000823b      0x460 build/stm32f4xx_hal_uart.o
                                        0xcee (size before relaxing)

.debug_loc      0x0000000000000000    0x1c61a
 *(.debug_loc)
 .debug_loc     0x0000000000000000      0x257 build/board.o
 .debug_loc     0x0000000000000257       0xfb build/beep.o
 .debug_loc     0x0000000000000352      0x12d build/button.o
 .debug_loc     0x000000000000047f      0x48a build/decode.o
 .debug_loc     0x0000000000000909      0x1b6 build/key.o
 .debug_loc     0x0000000000000abf     0x1388 build/ili9341.o
 .debug_loc     0x0000000000001e47       0x80 build/led.o
 .debug_loc     0x0000000000001ec7      0x2fe build/pcf8574.o
 .debug_loc     0x00000000000021c5       0x73 build/pcf8574_sample.o
 .debug_loc     0x0000000000002238      0x63b build/player.o
 .debug_loc     0x0000000000002873     0x147e build/serial.o
 .debug_loc     0x0000000000003cf1      0x214 build/completion.o
 .debug_loc     0x0000000000003f05      0x504 build/dataqueue.o
 .debug_loc     0x0000000000004409      0xe60 build/cmd.o
 .debug_loc     0x0000000000005269      0x712 build/msh.o
 .debug_loc     0x000000000000597b      0x4cf build/shell.o
 .debug_loc     0x0000000000005e4a      0x291 build/cpuport.o
 .debug_loc     0x00000000000060db      0x12e build/clock.o
 .debug_loc     0x0000000000006209      0x162 build/components.o
 .debug_loc     0x000000000000636b      0x8fe build/device.o
 .debug_loc     0x0000000000006c69      0x323 build/idle.o
 .debug_loc     0x0000000000006f8c     0x2357 build/ipc.o
 .debug_loc     0x00000000000092e3       0xcd build/irq.o
 .debug_loc     0x00000000000093b0     0x187e build/kservice.o
 .debug_loc     0x000000000000ac2e      0x5fc build/mem.o
 .debug_loc     0x000000000000b22a      0x482 build/object.o
 .debug_loc     0x000000000000b6ac      0x435 build/scheduler.o
 .debug_loc     0x000000000000bae1      0xacc build/thread.o
 .debug_loc     0x000000000000c5ad      0x8c9 build/timer.o
 .debug_loc     0x000000000000ce76      0x21d build/delay.o
 .debug_loc     0x000000000000d093      0x316 build/main.o
 .debug_loc     0x000000000000d3a9      0x13e build/system_stm32f4xx.o
 .debug_loc     0x000000000000d4e7      0x9d4 build/drv_gpio.o
 .debug_loc     0x000000000000debb      0x209 build/drv_i2c.o
 .debug_loc     0x000000000000e0c4      0xc93 build/drv_usart.o
 .debug_loc     0x000000000000ed57      0x61d build/drv_pwm.o
 .debug_loc     0x000000000000f374      0x841 build/pin.o
 .debug_loc     0x000000000000fbb5      0xd0e build/rt_drv_pwm.o
 .debug_loc     0x00000000000108c3      0x99a build/i2c-bit-ops.o
 .debug_loc     0x000000000001125d      0x3c6 build/i2c_core.o
 .debug_loc     0x0000000000011623      0x412 build/i2c_dev.o
 .debug_loc     0x0000000000011a35     0x4343 build/stm32f4xx_hal_tim.o
 .debug_loc     0x0000000000015d78     0x1648 build/stm32f4xx_hal_tim_ex.o
 .debug_loc     0x00000000000173c0      0x55c build/stm32f4xx_hal_rcc.o
 .debug_loc     0x000000000001791c      0x4f2 build/stm32f4xx_hal_gpio.o
 .debug_loc     0x0000000000017e0e      0xc1d build/stm32f4xx_hal_dma.o
 .debug_loc     0x0000000000018a2b      0x277 build/stm32f4xx_hal_pwr_ex.o
 .debug_loc     0x0000000000018ca2      0x65e build/stm32f4xx_hal_cortex.o
 .debug_loc     0x0000000000019300      0x1ad build/stm32f4xx_hal.o
 .debug_loc     0x00000000000194ad      0x9df build/stm32f4xx_hal_sram.o
 .debug_loc     0x0000000000019e8c      0xd35 build/stm32f4xx_ll_fmc.o
 .debug_loc     0x000000000001abc1     0x1a59 build/stm32f4xx_hal_uart.o

.debug_macinfo
 *(.debug_macinfo)

.debug_weaknames
 *(.debug_weaknames)

.debug_funcnames
 *(.debug_funcnames)

.debug_typenames
 *(.debug_typenames)

.debug_varnames
 *(.debug_varnames)
OUTPUT(build/beep-player.elf elf32-littlearm)

.debug_ranges   0x0000000000000000     0x1e78
 .debug_ranges  0x0000000000000000       0x50 build/board.o
 .debug_ranges  0x0000000000000050       0x28 build/beep.o
 .debug_ranges  0x0000000000000078       0x20 build/button.o
 .debug_ranges  0x0000000000000098       0x38 build/decode.o
 .debug_ranges  0x00000000000000d0       0x28 build/key.o
 .debug_ranges  0x00000000000000f8      0x100 build/ili9341.o
 .debug_ranges  0x00000000000001f8       0x28 build/led.o
 .debug_ranges  0x0000000000000220       0x38 build/pcf8574.o
 .debug_ranges  0x0000000000000258       0x10 build/pcf8574_sample.o
 .debug_ranges  0x0000000000000268       0x50 build/player.o
 .debug_ranges  0x00000000000002b8      0x108 build/serial.o
 .debug_ranges  0x00000000000003c0       0x20 build/completion.o
 .debug_ranges  0x00000000000003e0       0x30 build/dataqueue.o
 .debug_ranges  0x0000000000000410      0x1d8 build/cmd.o
 .debug_ranges  0x00000000000005e8       0x58 build/msh.o
 .debug_ranges  0x0000000000000640       0x90 build/shell.o
 .debug_ranges  0x00000000000006d0       0x58 build/cpuport.o
 .debug_ranges  0x0000000000000728       0x30 build/clock.o
 .debug_ranges  0x0000000000000758       0x58 build/components.o
 .debug_ranges  0x00000000000007b0       0x78 build/device.o
 .debug_ranges  0x0000000000000828       0x68 build/idle.o
 .debug_ranges  0x0000000000000890      0x178 build/ipc.o
 .debug_ranges  0x0000000000000a08       0x30 build/irq.o
 .debug_ranges  0x0000000000000a38      0x100 build/kservice.o
 .debug_ranges  0x0000000000000b38       0x58 build/mem.o
 .debug_ranges  0x0000000000000b90       0x78 build/object.o
 .debug_ranges  0x0000000000000c08       0x78 build/scheduler.o
 .debug_ranges  0x0000000000000c80       0xb0 build/thread.o
 .debug_ranges  0x0000000000000d30       0xf8 build/timer.o
 .debug_ranges  0x0000000000000e28       0x38 build/delay.o
 .debug_ranges  0x0000000000000e60       0x50 build/main.o
 .debug_ranges  0x0000000000000eb0       0x18 build/stm32f4xx_hal_msp.o
 .debug_ranges  0x0000000000000ec8       0x40 build/stm32f4xx_it.o
 .debug_ranges  0x0000000000000f08       0x18 build/system_stm32f4xx.o
 .debug_ranges  0x0000000000000f20      0x100 build/drv_gpio.o
 .debug_ranges  0x0000000000001020       0x48 build/drv_i2c.o
 .debug_ranges  0x0000000000001068       0xa0 build/drv_usart.o
 .debug_ranges  0x0000000000001108       0x40 build/drv_pwm.o
 .debug_ranges  0x0000000000001148       0x58 build/pin.o
 .debug_ranges  0x00000000000011a0       0x58 build/rt_drv_pwm.o
 .debug_ranges  0x00000000000011f8       0x88 build/i2c-bit-ops.o
 .debug_ranges  0x0000000000001280       0x38 build/i2c_core.o
 .debug_ranges  0x00000000000012b8       0x28 build/i2c_dev.o
 .debug_ranges  0x00000000000012e0      0x398 build/stm32f4xx_hal_tim.o
 .debug_ranges  0x0000000000001678      0x140 build/stm32f4xx_hal_tim_ex.o
 .debug_ranges  0x00000000000017b8       0x90 build/stm32f4xx_hal_rcc.o
 .debug_ranges  0x0000000000001848       0x48 build/stm32f4xx_hal_gpio.o
 .debug_ranges  0x0000000000001890       0x80 build/stm32f4xx_hal_dma.o
 .debug_ranges  0x0000000000001910       0x50 build/stm32f4xx_hal_pwr_ex.o
 .debug_ranges  0x0000000000001960       0xf8 build/stm32f4xx_hal_cortex.o
 .debug_ranges  0x0000000000001a58       0xf0 build/stm32f4xx_hal.o
 .debug_ranges  0x0000000000001b48       0x90 build/stm32f4xx_hal_sram.o
 .debug_ranges  0x0000000000001bd8       0xe0 build/stm32f4xx_ll_fmc.o
 .debug_ranges  0x0000000000001cb8      0x1c0 build/stm32f4xx_hal_uart.o

Cross Reference Table

Symbol                                            File
ADC_IRQHandler                                    build/startup_stm32f429xx.o
AHBPrescTable                                     build/system_stm32f4xx.o
                                                  build/stm32f4xx_hal_rcc.o
APBPrescTable                                     build/system_stm32f4xx.o
                                                  build/stm32f4xx_hal_rcc.o
BACK_COLOR                                        build/ili9341.o
BusFault_Handler                                  build/stm32f4xx_it.o
CAN1_RX0_IRQHandler                               build/startup_stm32f429xx.o
CAN1_RX1_IRQHandler                               build/startup_stm32f429xx.o
CAN1_SCE_IRQHandler                               build/startup_stm32f429xx.o
CAN1_TX_IRQHandler                                build/startup_stm32f429xx.o
CAN2_RX0_IRQHandler                               build/startup_stm32f429xx.o
CAN2_RX1_IRQHandler                               build/startup_stm32f429xx.o
CAN2_SCE_IRQHandler                               build/startup_stm32f429xx.o
CAN2_TX_IRQHandler                                build/startup_stm32f429xx.o
DCMI_IRQHandler                                   build/startup_stm32f429xx.o
DMA1_Stream0_IRQHandler                           build/startup_stm32f429xx.o
DMA1_Stream1_IRQHandler                           build/startup_stm32f429xx.o
DMA1_Stream2_IRQHandler                           build/startup_stm32f429xx.o
DMA1_Stream3_IRQHandler                           build/startup_stm32f429xx.o
DMA1_Stream4_IRQHandler                           build/startup_stm32f429xx.o
DMA1_Stream5_IRQHandler                           build/startup_stm32f429xx.o
DMA1_Stream6_IRQHandler                           build/startup_stm32f429xx.o
DMA1_Stream7_IRQHandler                           build/startup_stm32f429xx.o
DMA2D_IRQHandler                                  build/startup_stm32f429xx.o
DMA2_Stream0_IRQHandler                           build/startup_stm32f429xx.o
DMA2_Stream1_IRQHandler                           build/startup_stm32f429xx.o
DMA2_Stream2_IRQHandler                           build/startup_stm32f429xx.o
DMA2_Stream3_IRQHandler                           build/startup_stm32f429xx.o
DMA2_Stream4_IRQHandler                           build/startup_stm32f429xx.o
DMA2_Stream5_IRQHandler                           build/startup_stm32f429xx.o
DMA2_Stream6_IRQHandler                           build/startup_stm32f429xx.o
DMA2_Stream7_IRQHandler                           build/startup_stm32f429xx.o
DebugMon_Handler                                  build/stm32f4xx_it.o
Default_Handler                                   build/startup_stm32f429xx.o
ETH_IRQHandler                                    build/startup_stm32f429xx.o
ETH_WKUP_IRQHandler                               build/startup_stm32f429xx.o
EXTI0_IRQHandler                                  build/drv_gpio.o
EXTI15_10_IRQHandler                              build/drv_gpio.o
EXTI1_IRQHandler                                  build/drv_gpio.o
EXTI2_IRQHandler                                  build/drv_gpio.o
EXTI3_IRQHandler                                  build/drv_gpio.o
EXTI4_IRQHandler                                  build/drv_gpio.o
EXTI9_5_IRQHandler                                build/drv_gpio.o
Error_Handler                                     build/stm32f4xx_it.o
FLASH_Erase_Sector                                build/stm32f4xx_hal_flash_ex.o
                                                  build/stm32f4xx_hal_flash.o
FLASH_FlushCaches                                 build/stm32f4xx_hal_flash_ex.o
                                                  build/stm32f4xx_hal_flash.o
FLASH_IRQHandler                                  build/startup_stm32f429xx.o
FLASH_WaitForLastOperation                        build/stm32f4xx_hal_flash.o
                                                  build/stm32f4xx_hal_flash_ex.o
FMC_IRQHandler                                    build/startup_stm32f429xx.o
FMC_NAND_AttributeSpace_Timing_Init               build/stm32f4xx_ll_fmc.o
FMC_NAND_CommonSpace_Timing_Init                  build/stm32f4xx_ll_fmc.o
FMC_NAND_DeInit                                   build/stm32f4xx_ll_fmc.o
FMC_NAND_ECC_Disable                              build/stm32f4xx_ll_fmc.o
FMC_NAND_ECC_Enable                               build/stm32f4xx_ll_fmc.o
FMC_NAND_GetECC                                   build/stm32f4xx_ll_fmc.o
FMC_NAND_Init                                     build/stm32f4xx_ll_fmc.o
FMC_NORSRAM_DeInit                                build/stm32f4xx_ll_fmc.o
                                                  build/stm32f4xx_hal_sram.o
FMC_NORSRAM_Extended_Timing_Init                  build/stm32f4xx_ll_fmc.o
                                                  build/stm32f4xx_hal_sram.o
FMC_NORSRAM_Init                                  build/stm32f4xx_ll_fmc.o
                                                  build/stm32f4xx_hal_sram.o
FMC_NORSRAM_Timing_Init                           build/stm32f4xx_ll_fmc.o
                                                  build/stm32f4xx_hal_sram.o
FMC_NORSRAM_WriteOperation_Disable                build/stm32f4xx_ll_fmc.o
                                                  build/stm32f4xx_hal_sram.o
FMC_NORSRAM_WriteOperation_Enable                 build/stm32f4xx_ll_fmc.o
                                                  build/stm32f4xx_hal_sram.o
FMC_PCCARD_AttributeSpace_Timing_Init             build/stm32f4xx_ll_fmc.o
FMC_PCCARD_CommonSpace_Timing_Init                build/stm32f4xx_ll_fmc.o
FMC_PCCARD_DeInit                                 build/stm32f4xx_ll_fmc.o
FMC_PCCARD_IOSpace_Timing_Init                    build/stm32f4xx_ll_fmc.o
FMC_PCCARD_Init                                   build/stm32f4xx_ll_fmc.o
FMC_SDRAM_DeInit                                  build/stm32f4xx_ll_fmc.o
FMC_SDRAM_GetModeStatus                           build/stm32f4xx_ll_fmc.o
FMC_SDRAM_Init                                    build/stm32f4xx_ll_fmc.o
FMC_SDRAM_ProgramRefreshRate                      build/stm32f4xx_ll_fmc.o
FMC_SDRAM_SendCommand                             build/stm32f4xx_ll_fmc.o
FMC_SDRAM_SetAutoRefreshNumber                    build/stm32f4xx_ll_fmc.o
FMC_SDRAM_Timing_Init                             build/stm32f4xx_ll_fmc.o
FMC_SDRAM_WriteProtection_Disable                 build/stm32f4xx_ll_fmc.o
FMC_SDRAM_WriteProtection_Enable                  build/stm32f4xx_ll_fmc.o
FPU_IRQHandler                                    build/startup_stm32f429xx.o
HAL_DBGMCU_DisableDBGSleepMode                    build/stm32f4xx_hal.o
HAL_DBGMCU_DisableDBGStandbyMode                  build/stm32f4xx_hal.o
HAL_DBGMCU_DisableDBGStopMode                     build/stm32f4xx_hal.o
HAL_DBGMCU_EnableDBGSleepMode                     build/stm32f4xx_hal.o
HAL_DBGMCU_EnableDBGStandbyMode                   build/stm32f4xx_hal.o
HAL_DBGMCU_EnableDBGStopMode                      build/stm32f4xx_hal.o
HAL_DMA_Abort                                     build/stm32f4xx_hal_dma.o
                                                  build/stm32f4xx_hal_uart.o
HAL_DMA_Abort_IT                                  build/stm32f4xx_hal_dma.o
                                                  build/stm32f4xx_hal_uart.o
                                                  build/stm32f4xx_hal_tim_ex.o
                                                  build/stm32f4xx_hal_tim.o
HAL_DMA_DeInit                                    build/stm32f4xx_hal_dma.o
                                                  build/drv_usart.o
HAL_DMA_GetError                                  build/stm32f4xx_hal_dma.o
                                                  build/stm32f4xx_hal_uart.o
HAL_DMA_GetState                                  build/stm32f4xx_hal_dma.o
HAL_DMA_IRQHandler                                build/stm32f4xx_hal_dma.o
HAL_DMA_Init                                      build/stm32f4xx_hal_dma.o
                                                  build/drv_usart.o
HAL_DMA_PollForTransfer                           build/stm32f4xx_hal_dma.o
HAL_DMA_RegisterCallback                          build/stm32f4xx_hal_dma.o
HAL_DMA_Start                                     build/stm32f4xx_hal_dma.o
HAL_DMA_Start_IT                                  build/stm32f4xx_hal_dma.o
                                                  build/stm32f4xx_hal_uart.o
                                                  build/stm32f4xx_hal_sram.o
                                                  build/stm32f4xx_hal_tim_ex.o
                                                  build/stm32f4xx_hal_tim.o
HAL_DMA_UnRegisterCallback                        build/stm32f4xx_hal_dma.o
HAL_DeInit                                        build/stm32f4xx_hal.o
HAL_Delay                                         build/stm32f4xx_hal.o
HAL_DisableCompensationCell                       build/stm32f4xx_hal.o
HAL_DisableMemorySwappingBank                     build/stm32f4xx_hal.o
HAL_EnableCompensationCell                        build/stm32f4xx_hal.o
HAL_EnableMemorySwappingBank                      build/stm32f4xx_hal.o
HAL_FLASHEx_AdvOBGetConfig                        build/stm32f4xx_hal_flash_ex.o
HAL_FLASHEx_AdvOBProgram                          build/stm32f4xx_hal_flash_ex.o
HAL_FLASHEx_Erase                                 build/stm32f4xx_hal_flash_ex.o
HAL_FLASHEx_Erase_IT                              build/stm32f4xx_hal_flash_ex.o
HAL_FLASHEx_OBGetConfig                           build/stm32f4xx_hal_flash_ex.o
HAL_FLASHEx_OBProgram                             build/stm32f4xx_hal_flash_ex.o
HAL_FLASHEx_OB_DeSelectPCROP                      build/stm32f4xx_hal_flash_ex.o
HAL_FLASHEx_OB_GetBank2WRP                        build/stm32f4xx_hal_flash_ex.o
HAL_FLASHEx_OB_SelectPCROP                        build/stm32f4xx_hal_flash_ex.o
HAL_FLASH_EndOfOperationCallback                  build/stm32f4xx_hal_flash.o
HAL_FLASH_GetError                                build/stm32f4xx_hal_flash.o
HAL_FLASH_IRQHandler                              build/stm32f4xx_hal_flash.o
HAL_FLASH_Lock                                    build/stm32f4xx_hal_flash.o
HAL_FLASH_OB_Launch                               build/stm32f4xx_hal_flash.o
HAL_FLASH_OB_Lock                                 build/stm32f4xx_hal_flash.o
HAL_FLASH_OB_Unlock                               build/stm32f4xx_hal_flash.o
HAL_FLASH_OperationErrorCallback                  build/stm32f4xx_hal_flash.o
HAL_FLASH_Program                                 build/stm32f4xx_hal_flash.o
HAL_FLASH_Program_IT                              build/stm32f4xx_hal_flash.o
HAL_FLASH_Unlock                                  build/stm32f4xx_hal_flash.o
HAL_GPIO_DeInit                                   build/stm32f4xx_hal_gpio.o
                                                  build/drv_gpio.o
HAL_GPIO_EXTI_Callback                            build/drv_gpio.o
HAL_GPIO_EXTI_IRQHandler                          build/stm32f4xx_hal_gpio.o
                                                  build/drv_gpio.o
HAL_GPIO_Init                                     build/stm32f4xx_hal_gpio.o
                                                  build/stm32f4xx_hal_rcc.o
                                                  build/drv_i2c.o
                                                  build/drv_gpio.o
                                                  build/ili9341.o
                                                  build/board.o
HAL_GPIO_LockPin                                  build/stm32f4xx_hal_gpio.o
HAL_GPIO_ReadPin                                  build/stm32f4xx_hal_gpio.o
                                                  build/drv_i2c.o
                                                  build/drv_gpio.o
HAL_GPIO_TogglePin                                build/stm32f4xx_hal_gpio.o
HAL_GPIO_WritePin                                 build/stm32f4xx_hal_gpio.o
                                                  build/drv_i2c.o
                                                  build/drv_gpio.o
HAL_GetDEVID                                      build/stm32f4xx_hal.o
HAL_GetHalVersion                                 build/stm32f4xx_hal.o
HAL_GetREVID                                      build/stm32f4xx_hal.o
HAL_GetTick                                       build/stm32f4xx_hal.o
                                                  build/stm32f4xx_hal_uart.o
                                                  build/stm32f4xx_ll_fmc.o
                                                  build/stm32f4xx_hal_pwr_ex.o
                                                  build/stm32f4xx_hal_dma.o
                                                  build/stm32f4xx_hal_flash.o
                                                  build/stm32f4xx_hal_rtc.o
                                                  build/stm32f4xx_hal_rcc_ex.o
                                                  build/stm32f4xx_hal_rcc.o
HAL_GetTickFreq                                   build/stm32f4xx_hal.o
HAL_GetTickPrio                                   build/stm32f4xx_hal.o
HAL_GetUIDw0                                      build/stm32f4xx_hal.o
HAL_GetUIDw1                                      build/stm32f4xx_hal.o
HAL_GetUIDw2                                      build/stm32f4xx_hal.o
HAL_HalfDuplex_EnableReceiver                     build/stm32f4xx_hal_uart.o
HAL_HalfDuplex_EnableTransmitter                  build/stm32f4xx_hal_uart.o
HAL_HalfDuplex_Init                               build/stm32f4xx_hal_uart.o
HAL_IncTick                                       build/stm32f4xx_hal.o
HAL_Init                                          build/stm32f4xx_hal.o
                                                  build/board.o
HAL_InitTick                                      build/stm32f4xx_hal.o
                                                  build/stm32f4xx_hal_rcc_ex.o
                                                  build/stm32f4xx_hal_rcc.o
HAL_LIN_Init                                      build/stm32f4xx_hal_uart.o
HAL_LIN_SendBreak                                 build/stm32f4xx_hal_uart.o
HAL_MPU_ConfigRegion                              build/stm32f4xx_hal_cortex.o
HAL_MPU_Disable                                   build/stm32f4xx_hal_cortex.o
HAL_MPU_Enable                                    build/stm32f4xx_hal_cortex.o
HAL_MspDeInit                                     build/stm32f4xx_hal_msp.o
HAL_MspInit                                       build/stm32f4xx_hal_msp.o
HAL_MultiProcessor_EnterMuteMode                  build/stm32f4xx_hal_uart.o
HAL_MultiProcessor_ExitMuteMode                   build/stm32f4xx_hal_uart.o
HAL_MultiProcessor_Init                           build/stm32f4xx_hal_uart.o
HAL_NVIC_ClearPendingIRQ                          build/stm32f4xx_hal_cortex.o
HAL_NVIC_DisableIRQ                               build/stm32f4xx_hal_cortex.o
                                                  build/drv_gpio.o
HAL_NVIC_EnableIRQ                                build/stm32f4xx_hal_cortex.o
                                                  build/drv_usart.o
                                                  build/drv_gpio.o
HAL_NVIC_GetActive                                build/stm32f4xx_hal_cortex.o
HAL_NVIC_GetPendingIRQ                            build/stm32f4xx_hal_cortex.o
HAL_NVIC_GetPriority                              build/stm32f4xx_hal_cortex.o
HAL_NVIC_GetPriorityGrouping                      build/stm32f4xx_hal_cortex.o
HAL_NVIC_SetPendingIRQ                            build/stm32f4xx_hal_cortex.o
HAL_NVIC_SetPriority                              build/stm32f4xx_hal_cortex.o
                                                  build/stm32f4xx_hal.o
                                                  build/drv_usart.o
                                                  build/drv_gpio.o
HAL_NVIC_SetPriorityGrouping                      build/stm32f4xx_hal_cortex.o
                                                  build/stm32f4xx_hal.o
HAL_NVIC_SystemReset                              build/stm32f4xx_hal_cortex.o
HAL_PWREx_ControlVoltageScaling                   build/stm32f4xx_hal_pwr_ex.o
HAL_PWREx_DisableBkUpReg                          build/stm32f4xx_hal_pwr_ex.o
HAL_PWREx_DisableFlashPowerDown                   build/stm32f4xx_hal_pwr_ex.o
HAL_PWREx_DisableOverDrive                        build/stm32f4xx_hal_pwr_ex.o
HAL_PWREx_EnableBkUpReg                           build/stm32f4xx_hal_pwr_ex.o
HAL_PWREx_EnableFlashPowerDown                    build/stm32f4xx_hal_pwr_ex.o
HAL_PWREx_EnableOverDrive                         build/stm32f4xx_hal_pwr_ex.o
                                                  build/sys.o
                                                  build/board.o
HAL_PWREx_EnterUnderDriveSTOPMode                 build/stm32f4xx_hal_pwr_ex.o
HAL_PWREx_GetVoltageRange                         build/stm32f4xx_hal_pwr_ex.o
HAL_PWR_ConfigPVD                                 build/stm32f4xx_hal_pwr.o
HAL_PWR_DeInit                                    build/stm32f4xx_hal_pwr.o
HAL_PWR_DisableBkUpAccess                         build/stm32f4xx_hal_pwr.o
HAL_PWR_DisablePVD                                build/stm32f4xx_hal_pwr.o
HAL_PWR_DisableSEVOnPend                          build/stm32f4xx_hal_pwr.o
HAL_PWR_DisableSleepOnExit                        build/stm32f4xx_hal_pwr.o
HAL_PWR_DisableWakeUpPin                          build/stm32f4xx_hal_pwr.o
HAL_PWR_EnableBkUpAccess                          build/stm32f4xx_hal_pwr.o
HAL_PWR_EnablePVD                                 build/stm32f4xx_hal_pwr.o
HAL_PWR_EnableSEVOnPend                           build/stm32f4xx_hal_pwr.o
HAL_PWR_EnableSleepOnExit                         build/stm32f4xx_hal_pwr.o
HAL_PWR_EnableWakeUpPin                           build/stm32f4xx_hal_pwr.o
HAL_PWR_EnterSLEEPMode                            build/stm32f4xx_hal_pwr.o
HAL_PWR_EnterSTANDBYMode                          build/stm32f4xx_hal_pwr.o
HAL_PWR_EnterSTOPMode                             build/stm32f4xx_hal_pwr.o
HAL_PWR_PVDCallback                               build/stm32f4xx_hal_pwr.o
HAL_PWR_PVD_IRQHandler                            build/stm32f4xx_hal_pwr.o
HAL_RCCEx_DisablePLLI2S                           build/stm32f4xx_hal_rcc_ex.o
HAL_RCCEx_DisablePLLSAI                           build/stm32f4xx_hal_rcc_ex.o
HAL_RCCEx_EnablePLLI2S                            build/stm32f4xx_hal_rcc_ex.o
HAL_RCCEx_EnablePLLSAI                            build/stm32f4xx_hal_rcc_ex.o
HAL_RCCEx_GetPeriphCLKConfig                      build/stm32f4xx_hal_rcc_ex.o
HAL_RCCEx_GetPeriphCLKFreq                        build/stm32f4xx_hal_rcc_ex.o
HAL_RCCEx_PeriphCLKConfig                         build/stm32f4xx_hal_rcc_ex.o
HAL_RCC_CSSCallback                               build/stm32f4xx_hal_rcc.o
HAL_RCC_ClockConfig                               build/stm32f4xx_hal_rcc.o
                                                  build/sys.o
                                                  build/board.o
HAL_RCC_DeInit                                    build/stm32f4xx_hal_rcc_ex.o
                                                  build/stm32f4xx_hal_rcc.o
HAL_RCC_DisableCSS                                build/stm32f4xx_hal_rcc.o
HAL_RCC_EnableCSS                                 build/stm32f4xx_hal_rcc.o
HAL_RCC_GetClockConfig                            build/stm32f4xx_hal_rcc.o
HAL_RCC_GetHCLKFreq                               build/stm32f4xx_hal_rcc.o
HAL_RCC_GetOscConfig                              build/stm32f4xx_hal_rcc.o
HAL_RCC_GetPCLK1Freq                              build/stm32f4xx_hal_rcc.o
                                                  build/stm32f4xx_hal_uart.o
                                                  build/drv_pwm.o
HAL_RCC_GetPCLK2Freq                              build/stm32f4xx_hal_rcc.o
                                                  build/stm32f4xx_hal_uart.o
                                                  build/drv_pwm.o
HAL_RCC_GetSysClockFreq                           build/stm32f4xx_hal_rcc.o
                                                  build/board.o
HAL_RCC_MCOConfig                                 build/stm32f4xx_hal_rcc.o
HAL_RCC_NMI_IRQHandler                            build/stm32f4xx_hal_rcc.o
HAL_RCC_OscConfig                                 build/stm32f4xx_hal_rcc.o
                                                  build/sys.o
                                                  build/board.o
HAL_RTCEx_AlarmBEventCallback                     build/stm32f4xx_hal_rtc.o
HAL_RTC_AlarmAEventCallback                       build/stm32f4xx_hal_rtc.o
HAL_RTC_AlarmIRQHandler                           build/stm32f4xx_hal_rtc.o
HAL_RTC_DeInit                                    build/stm32f4xx_hal_rtc.o
HAL_RTC_DeactivateAlarm                           build/stm32f4xx_hal_rtc.o
HAL_RTC_GetAlarm                                  build/stm32f4xx_hal_rtc.o
HAL_RTC_GetDate                                   build/stm32f4xx_hal_rtc.o
HAL_RTC_GetState                                  build/stm32f4xx_hal_rtc.o
HAL_RTC_GetTime                                   build/stm32f4xx_hal_rtc.o
HAL_RTC_Init                                      build/stm32f4xx_hal_rtc.o
HAL_RTC_MspDeInit                                 build/stm32f4xx_hal_rtc.o
HAL_RTC_MspInit                                   build/stm32f4xx_hal_rtc.o
HAL_RTC_PollForAlarmAEvent                        build/stm32f4xx_hal_rtc.o
HAL_RTC_SetAlarm                                  build/stm32f4xx_hal_rtc.o
HAL_RTC_SetAlarm_IT                               build/stm32f4xx_hal_rtc.o
HAL_RTC_SetDate                                   build/stm32f4xx_hal_rtc.o
HAL_RTC_SetTime                                   build/stm32f4xx_hal_rtc.o
HAL_RTC_WaitForSynchro                            build/stm32f4xx_hal_rtc.o
HAL_ResumeTick                                    build/stm32f4xx_hal.o
HAL_SRAM_DMA_XferCpltCallback                     build/stm32f4xx_hal_sram.o
HAL_SRAM_DMA_XferErrorCallback                    build/stm32f4xx_hal_sram.o
HAL_SRAM_DeInit                                   build/stm32f4xx_hal_sram.o
HAL_SRAM_GetState                                 build/stm32f4xx_hal_sram.o
HAL_SRAM_Init                                     build/stm32f4xx_hal_sram.o
                                                  build/ili9341.o
HAL_SRAM_MspDeInit                                build/stm32f4xx_hal_sram.o
HAL_SRAM_MspInit                                  build/ili9341.o
HAL_SRAM_Read_16b                                 build/stm32f4xx_hal_sram.o
HAL_SRAM_Read_32b                                 build/stm32f4xx_hal_sram.o
HAL_SRAM_Read_8b                                  build/stm32f4xx_hal_sram.o
HAL_SRAM_Read_DMA                                 build/stm32f4xx_hal_sram.o
HAL_SRAM_WriteOperation_Disable                   build/stm32f4xx_hal_sram.o
HAL_SRAM_WriteOperation_Enable                    build/stm32f4xx_hal_sram.o
HAL_SRAM_Write_16b                                build/stm32f4xx_hal_sram.o
HAL_SRAM_Write_32b                                build/stm32f4xx_hal_sram.o
HAL_SRAM_Write_8b                                 build/stm32f4xx_hal_sram.o
HAL_SRAM_Write_DMA                                build/stm32f4xx_hal_sram.o
HAL_SYSTICK_CLKSourceConfig                       build/stm32f4xx_hal_cortex.o
                                                  build/delay.o
HAL_SYSTICK_Callback                              build/stm32f4xx_hal_cortex.o
HAL_SYSTICK_Config                                build/stm32f4xx_hal_cortex.o
                                                  build/stm32f4xx_hal.o
                                                  build/board.o
HAL_SYSTICK_IRQHandler                            build/stm32f4xx_hal_cortex.o
HAL_SetTickFreq                                   build/stm32f4xx_hal.o
HAL_SuspendTick                                   build/stm32f4xx_hal.o
HAL_TIMEx_BreakCallback                           build/stm32f4xx_hal_tim_ex.o
                                                  build/stm32f4xx_hal_tim.o
HAL_TIMEx_CommutCallback                          build/stm32f4xx_hal_tim_ex.o
                                                  build/stm32f4xx_hal_tim.o
HAL_TIMEx_CommutHalfCpltCallback                  build/stm32f4xx_hal_tim_ex.o
HAL_TIMEx_ConfigBreakDeadTime                     build/stm32f4xx_hal_tim_ex.o
HAL_TIMEx_ConfigCommutEvent                       build/stm32f4xx_hal_tim_ex.o
HAL_TIMEx_ConfigCommutEvent_DMA                   build/stm32f4xx_hal_tim_ex.o
HAL_TIMEx_ConfigCommutEvent_IT                    build/stm32f4xx_hal_tim_ex.o
HAL_TIMEx_HallSensor_DeInit                       build/stm32f4xx_hal_tim_ex.o
HAL_TIMEx_HallSensor_GetState                     build/stm32f4xx_hal_tim_ex.o
HAL_TIMEx_HallSensor_Init                         build/stm32f4xx_hal_tim_ex.o
HAL_TIMEx_HallSensor_MspDeInit                    build/stm32f4xx_hal_tim_ex.o
HAL_TIMEx_HallSensor_MspInit                      build/stm32f4xx_hal_tim_ex.o
HAL_TIMEx_HallSensor_Start                        build/stm32f4xx_hal_tim_ex.o
HAL_TIMEx_HallSensor_Start_DMA                    build/stm32f4xx_hal_tim_ex.o
HAL_TIMEx_HallSensor_Start_IT                     build/stm32f4xx_hal_tim_ex.o
HAL_TIMEx_HallSensor_Stop                         build/stm32f4xx_hal_tim_ex.o
HAL_TIMEx_HallSensor_Stop_DMA                     build/stm32f4xx_hal_tim_ex.o
HAL_TIMEx_HallSensor_Stop_IT                      build/stm32f4xx_hal_tim_ex.o
HAL_TIMEx_MasterConfigSynchronization             build/stm32f4xx_hal_tim_ex.o
                                                  build/drv_pwm.o
HAL_TIMEx_OCN_Start                               build/stm32f4xx_hal_tim_ex.o
HAL_TIMEx_OCN_Start_DMA                           build/stm32f4xx_hal_tim_ex.o
HAL_TIMEx_OCN_Start_IT                            build/stm32f4xx_hal_tim_ex.o
HAL_TIMEx_OCN_Stop                                build/stm32f4xx_hal_tim_ex.o
HAL_TIMEx_OCN_Stop_DMA                            build/stm32f4xx_hal_tim_ex.o
HAL_TIMEx_OCN_Stop_IT                             build/stm32f4xx_hal_tim_ex.o
HAL_TIMEx_OnePulseN_Start                         build/stm32f4xx_hal_tim_ex.o
HAL_TIMEx_OnePulseN_Start_IT                      build/stm32f4xx_hal_tim_ex.o
HAL_TIMEx_OnePulseN_Stop                          build/stm32f4xx_hal_tim_ex.o
HAL_TIMEx_OnePulseN_Stop_IT                       build/stm32f4xx_hal_tim_ex.o
HAL_TIMEx_PWMN_Start                              build/stm32f4xx_hal_tim_ex.o
HAL_TIMEx_PWMN_Start_DMA                          build/stm32f4xx_hal_tim_ex.o
HAL_TIMEx_PWMN_Start_IT                           build/stm32f4xx_hal_tim_ex.o
HAL_TIMEx_PWMN_Stop                               build/stm32f4xx_hal_tim_ex.o
HAL_TIMEx_PWMN_Stop_DMA                           build/stm32f4xx_hal_tim_ex.o
HAL_TIMEx_PWMN_Stop_IT                            build/stm32f4xx_hal_tim_ex.o
HAL_TIMEx_RemapConfig                             build/stm32f4xx_hal_tim_ex.o
HAL_TIM_Base_DeInit                               build/stm32f4xx_hal_tim.o
HAL_TIM_Base_GetState                             build/stm32f4xx_hal_tim.o
HAL_TIM_Base_Init                                 build/stm32f4xx_hal_tim.o
HAL_TIM_Base_MspDeInit                            build/stm32f4xx_hal_tim.o
HAL_TIM_Base_MspInit                              build/stm32f4xx_hal_tim.o
HAL_TIM_Base_Start                                build/stm32f4xx_hal_tim.o
HAL_TIM_Base_Start_DMA                            build/stm32f4xx_hal_tim.o
HAL_TIM_Base_Start_IT                             build/stm32f4xx_hal_tim.o
HAL_TIM_Base_Stop                                 build/stm32f4xx_hal_tim.o
HAL_TIM_Base_Stop_DMA                             build/stm32f4xx_hal_tim.o
HAL_TIM_Base_Stop_IT                              build/stm32f4xx_hal_tim.o
HAL_TIM_ConfigClockSource                         build/stm32f4xx_hal_tim.o
HAL_TIM_ConfigOCrefClear                          build/stm32f4xx_hal_tim.o
HAL_TIM_ConfigTI1Input                            build/stm32f4xx_hal_tim.o
HAL_TIM_DMABurst_ReadStart                        build/stm32f4xx_hal_tim.o
HAL_TIM_DMABurst_ReadStop                         build/stm32f4xx_hal_tim.o
HAL_TIM_DMABurst_WriteStart                       build/stm32f4xx_hal_tim.o
HAL_TIM_DMABurst_WriteStop                        build/stm32f4xx_hal_tim.o
HAL_TIM_Encoder_DeInit                            build/stm32f4xx_hal_tim.o
HAL_TIM_Encoder_GetState                          build/stm32f4xx_hal_tim.o
HAL_TIM_Encoder_Init                              build/stm32f4xx_hal_tim.o
HAL_TIM_Encoder_MspDeInit                         build/stm32f4xx_hal_tim.o
HAL_TIM_Encoder_MspInit                           build/stm32f4xx_hal_tim.o
HAL_TIM_Encoder_Start                             build/stm32f4xx_hal_tim.o
HAL_TIM_Encoder_Start_DMA                         build/stm32f4xx_hal_tim.o
HAL_TIM_Encoder_Start_IT                          build/stm32f4xx_hal_tim.o
HAL_TIM_Encoder_Stop                              build/stm32f4xx_hal_tim.o
HAL_TIM_Encoder_Stop_DMA                          build/stm32f4xx_hal_tim.o
HAL_TIM_Encoder_Stop_IT                           build/stm32f4xx_hal_tim.o
HAL_TIM_ErrorCallback                             build/stm32f4xx_hal_tim.o
HAL_TIM_GenerateEvent                             build/stm32f4xx_hal_tim.o
                                                  build/drv_pwm.o
HAL_TIM_IC_CaptureCallback                        build/stm32f4xx_hal_tim.o
HAL_TIM_IC_CaptureHalfCpltCallback                build/stm32f4xx_hal_tim.o
HAL_TIM_IC_ConfigChannel                          build/stm32f4xx_hal_tim.o
HAL_TIM_IC_DeInit                                 build/stm32f4xx_hal_tim.o
HAL_TIM_IC_GetState                               build/stm32f4xx_hal_tim.o
HAL_TIM_IC_Init                                   build/stm32f4xx_hal_tim.o
HAL_TIM_IC_MspDeInit                              build/stm32f4xx_hal_tim.o
HAL_TIM_IC_MspInit                                build/stm32f4xx_hal_tim.o
HAL_TIM_IC_Start                                  build/stm32f4xx_hal_tim.o
HAL_TIM_IC_Start_DMA                              build/stm32f4xx_hal_tim.o
HAL_TIM_IC_Start_IT                               build/stm32f4xx_hal_tim.o
HAL_TIM_IC_Stop                                   build/stm32f4xx_hal_tim.o
HAL_TIM_IC_Stop_DMA                               build/stm32f4xx_hal_tim.o
HAL_TIM_IC_Stop_IT                                build/stm32f4xx_hal_tim.o
HAL_TIM_IRQHandler                                build/stm32f4xx_hal_tim.o
HAL_TIM_MspPostInit                               build/board.o
                                                  build/drv_pwm.o
HAL_TIM_OC_ConfigChannel                          build/stm32f4xx_hal_tim.o
HAL_TIM_OC_DeInit                                 build/stm32f4xx_hal_tim.o
HAL_TIM_OC_DelayElapsedCallback                   build/stm32f4xx_hal_tim.o
HAL_TIM_OC_GetState                               build/stm32f4xx_hal_tim.o
HAL_TIM_OC_Init                                   build/stm32f4xx_hal_tim.o
HAL_TIM_OC_MspDeInit                              build/stm32f4xx_hal_tim.o
HAL_TIM_OC_MspInit                                build/stm32f4xx_hal_tim.o
HAL_TIM_OC_Start                                  build/stm32f4xx_hal_tim.o
HAL_TIM_OC_Start_DMA                              build/stm32f4xx_hal_tim.o
HAL_TIM_OC_Start_IT                               build/stm32f4xx_hal_tim.o
HAL_TIM_OC_Stop                                   build/stm32f4xx_hal_tim.o
HAL_TIM_OC_Stop_DMA                               build/stm32f4xx_hal_tim.o
HAL_TIM_OC_Stop_IT                                build/stm32f4xx_hal_tim.o
HAL_TIM_OnePulse_ConfigChannel                    build/stm32f4xx_hal_tim.o
HAL_TIM_OnePulse_DeInit                           build/stm32f4xx_hal_tim.o
HAL_TIM_OnePulse_GetState                         build/stm32f4xx_hal_tim.o
HAL_TIM_OnePulse_Init                             build/stm32f4xx_hal_tim.o
HAL_TIM_OnePulse_MspDeInit                        build/stm32f4xx_hal_tim.o
HAL_TIM_OnePulse_MspInit                          build/stm32f4xx_hal_tim.o
HAL_TIM_OnePulse_Start                            build/stm32f4xx_hal_tim.o
HAL_TIM_OnePulse_Start_IT                         build/stm32f4xx_hal_tim.o
HAL_TIM_OnePulse_Stop                             build/stm32f4xx_hal_tim.o
HAL_TIM_OnePulse_Stop_IT                          build/stm32f4xx_hal_tim.o
HAL_TIM_PWM_ConfigChannel                         build/stm32f4xx_hal_tim.o
                                                  build/drv_pwm.o
HAL_TIM_PWM_DeInit                                build/stm32f4xx_hal_tim.o
HAL_TIM_PWM_GetState                              build/stm32f4xx_hal_tim.o
HAL_TIM_PWM_Init                                  build/stm32f4xx_hal_tim.o
                                                  build/drv_pwm.o
HAL_TIM_PWM_MspDeInit                             build/stm32f4xx_hal_tim.o
HAL_TIM_PWM_MspInit                               build/board.o
HAL_TIM_PWM_PulseFinishedCallback                 build/stm32f4xx_hal_tim.o
HAL_TIM_PWM_PulseFinishedHalfCpltCallback         build/stm32f4xx_hal_tim.o
HAL_TIM_PWM_Start                                 build/stm32f4xx_hal_tim.o
                                                  build/drv_pwm.o
HAL_TIM_PWM_Start_DMA                             build/stm32f4xx_hal_tim.o
HAL_TIM_PWM_Start_IT                              build/stm32f4xx_hal_tim.o
HAL_TIM_PWM_Stop                                  build/stm32f4xx_hal_tim.o
                                                  build/drv_pwm.o
HAL_TIM_PWM_Stop_DMA                              build/stm32f4xx_hal_tim.o
HAL_TIM_PWM_Stop_IT                               build/stm32f4xx_hal_tim.o
HAL_TIM_PeriodElapsedCallback                     build/stm32f4xx_hal_tim.o
HAL_TIM_PeriodElapsedHalfCpltCallback             build/stm32f4xx_hal_tim.o
HAL_TIM_ReadCapturedValue                         build/stm32f4xx_hal_tim.o
HAL_TIM_SlaveConfigSynchro                        build/stm32f4xx_hal_tim.o
HAL_TIM_SlaveConfigSynchro_IT                     build/stm32f4xx_hal_tim.o
HAL_TIM_TriggerCallback                           build/stm32f4xx_hal_tim.o
HAL_TIM_TriggerHalfCpltCallback                   build/stm32f4xx_hal_tim.o
HAL_UART_Abort                                    build/stm32f4xx_hal_uart.o
HAL_UART_AbortCpltCallback                        build/stm32f4xx_hal_uart.o
HAL_UART_AbortReceive                             build/stm32f4xx_hal_uart.o
HAL_UART_AbortReceiveCpltCallback                 build/stm32f4xx_hal_uart.o
HAL_UART_AbortReceive_IT                          build/stm32f4xx_hal_uart.o
HAL_UART_AbortTransmit                            build/stm32f4xx_hal_uart.o
HAL_UART_AbortTransmitCpltCallback                build/stm32f4xx_hal_uart.o
HAL_UART_AbortTransmit_IT                         build/stm32f4xx_hal_uart.o
HAL_UART_Abort_IT                                 build/stm32f4xx_hal_uart.o
HAL_UART_DMAPause                                 build/stm32f4xx_hal_uart.o
HAL_UART_DMAResume                                build/stm32f4xx_hal_uart.o
HAL_UART_DMAStop                                  build/stm32f4xx_hal_uart.o
HAL_UART_DeInit                                   build/stm32f4xx_hal_uart.o
HAL_UART_ErrorCallback                            build/drv_usart.o
HAL_UART_GetError                                 build/stm32f4xx_hal_uart.o
HAL_UART_GetState                                 build/stm32f4xx_hal_uart.o
HAL_UART_IRQHandler                               build/stm32f4xx_hal_uart.o
                                                  build/drv_usart.o
HAL_UART_Init                                     build/stm32f4xx_hal_uart.o
                                                  build/drv_usart.o
HAL_UART_MspDeInit                                build/stm32f4xx_hal_uart.o
HAL_UART_MspInit                                  build/board.o
HAL_UART_Receive                                  build/stm32f4xx_hal_uart.o
HAL_UART_Receive_DMA                              build/stm32f4xx_hal_uart.o
                                                  build/drv_usart.o
HAL_UART_Receive_IT                               build/stm32f4xx_hal_uart.o
HAL_UART_RxCpltCallback                           build/drv_usart.o
HAL_UART_RxHalfCpltCallback                       build/drv_usart.o
HAL_UART_Transmit                                 build/stm32f4xx_hal_uart.o
HAL_UART_Transmit_DMA                             build/stm32f4xx_hal_uart.o
                                                  build/drv_usart.o
HAL_UART_Transmit_IT                              build/stm32f4xx_hal_uart.o
HAL_UART_TxCpltCallback                           build/drv_usart.o
HAL_UART_TxHalfCpltCallback                       build/stm32f4xx_hal_uart.o
HASH_RNG_IRQHandler                               build/startup_stm32f429xx.o
HardFault_Handler                                 build/context_gcc.o
I2C1_ER_IRQHandler                                build/startup_stm32f429xx.o
I2C1_EV_IRQHandler                                build/startup_stm32f429xx.o
I2C2_ER_IRQHandler                                build/startup_stm32f429xx.o
I2C2_EV_IRQHandler                                build/startup_stm32f429xx.o
I2C3_ER_IRQHandler                                build/startup_stm32f429xx.o
I2C3_EV_IRQHandler                                build/startup_stm32f429xx.o
INTX_DISABLE                                      build/sys.o
INTX_ENABLE                                       build/sys.o
LCD_BGR2RGB                                       build/ili9341.o
LCD_Clear                                         build/ili9341.o
LCD_Color_Fill                                    build/ili9341.o
LCD_DisplayOff                                    build/ili9341.o
LCD_DisplayOn                                     build/ili9341.o
LCD_Display_Dir                                   build/ili9341.o
LCD_DrawLine                                      build/ili9341.o
LCD_DrawPoint                                     build/ili9341.o
LCD_DrawRectangle                                 build/ili9341.o
LCD_Draw_Circle                                   build/ili9341.o
LCD_Fast_DrawPoint                                build/ili9341.o
LCD_Fill                                          build/ili9341.o
LCD_Init                                          build/ili9341.o
LCD_Pow                                           build/ili9341.o
LCD_RD_DATA                                       build/ili9341.o
LCD_ReadPoint                                     build/ili9341.o
LCD_ReadReg                                       build/ili9341.o
LCD_Scan_Dir                                      build/ili9341.o
LCD_SetCursor                                     build/ili9341.o
LCD_Set_Window                                    build/ili9341.o
LCD_ShowChar                                      build/ili9341.o
LCD_ShowNum                                       build/ili9341.o
LCD_ShowString                                    build/ili9341.o
                                                  build/player.o
LCD_ShowxNum                                      build/ili9341.o
                                                  build/player.o
LCD_WR_DATA                                       build/ili9341.o
LCD_WR_REG                                        build/ili9341.o
LCD_WriteRAM                                      build/ili9341.o
LCD_WriteRAM_Prepare                              build/ili9341.o
LCD_WriteReg                                      build/ili9341.o
LTDC_ER_IRQHandler                                build/startup_stm32f429xx.o
LTDC_IRQHandler                                   build/startup_stm32f429xx.o
MSR_MSP                                           build/sys.o
MemManage_Handler                                 build/stm32f4xx_it.o
NMI_Handler                                       build/stm32f4xx_it.o
OP_add_byte                                       build/finsh_ops.o
OP_add_dword                                      build/finsh_ops.o
OP_add_word                                       build/finsh_ops.o
OP_and_byte                                       build/finsh_ops.o
OP_and_dword                                      build/finsh_ops.o
OP_and_word                                       build/finsh_ops.o
OP_bw_byte                                        build/finsh_ops.o
OP_bw_dword                                       build/finsh_ops.o
OP_bw_word                                        build/finsh_ops.o
OP_call                                           build/finsh_ops.o
OP_div_byte                                       build/finsh_ops.o
OP_div_dword                                      build/finsh_ops.o
OP_div_word                                       build/finsh_ops.o
OP_ld_byte                                        build/finsh_ops.o
OP_ld_dword                                       build/finsh_ops.o
OP_ld_value_byte                                  build/finsh_ops.o
OP_ld_value_byte_stack                            build/finsh_ops.o
OP_ld_value_dword                                 build/finsh_ops.o
OP_ld_value_dword_stack                           build/finsh_ops.o
OP_ld_value_word                                  build/finsh_ops.o
OP_ld_value_word_stack                            build/finsh_ops.o
OP_ld_word                                        build/finsh_ops.o
OP_mod_byte                                       build/finsh_ops.o
OP_mod_dword                                      build/finsh_ops.o
OP_mod_word                                       build/finsh_ops.o
OP_mul_byte                                       build/finsh_ops.o
OP_mul_dword                                      build/finsh_ops.o
OP_mul_word                                       build/finsh_ops.o
OP_no_op                                          build/finsh_ops.o
OP_or_byte                                        build/finsh_ops.o
OP_or_dword                                       build/finsh_ops.o
OP_or_word                                        build/finsh_ops.o
OP_pop                                            build/finsh_ops.o
OP_shl_byte                                       build/finsh_ops.o
OP_shl_dword                                      build/finsh_ops.o
OP_shl_word                                       build/finsh_ops.o
OP_shr_byte                                       build/finsh_ops.o
OP_shr_dword                                      build/finsh_ops.o
OP_shr_word                                       build/finsh_ops.o
OP_st_byte                                        build/finsh_ops.o
OP_st_dword                                       build/finsh_ops.o
OP_st_word                                        build/finsh_ops.o
OP_sub_byte                                       build/finsh_ops.o
OP_sub_dword                                      build/finsh_ops.o
OP_sub_word                                       build/finsh_ops.o
OP_xor_byte                                       build/finsh_ops.o
OP_xor_dword                                      build/finsh_ops.o
OP_xor_word                                       build/finsh_ops.o
OSRunning                                         build/delay.o
OTG_FS_IRQHandler                                 build/startup_stm32f429xx.o
OTG_FS_WKUP_IRQHandler                            build/startup_stm32f429xx.o
OTG_HS_EP1_IN_IRQHandler                          build/startup_stm32f429xx.o
OTG_HS_EP1_OUT_IRQHandler                         build/startup_stm32f429xx.o
OTG_HS_IRQHandler                                 build/startup_stm32f429xx.o
OTG_HS_WKUP_IRQHandler                            build/startup_stm32f429xx.o
POINT_COLOR                                       build/ili9341.o
PVD_IRQHandler                                    build/startup_stm32f429xx.o
PendSV_Handler                                    build/context_gcc.o
RCC_IRQHandler                                    build/startup_stm32f429xx.o
RTC_Alarm_IRQHandler                              build/startup_stm32f429xx.o
RTC_Bcd2ToByte                                    build/stm32f4xx_hal_rtc.o
RTC_ByteToBcd2                                    build/stm32f4xx_hal_rtc.o
RTC_EnterInitMode                                 build/stm32f4xx_hal_rtc.o
RTC_WKUP_IRQHandler                               build/startup_stm32f429xx.o
Reset_Handler                                     build/startup_stm32f429xx.o
SAI1_IRQHandler                                   build/startup_stm32f429xx.o
SDIO_IRQHandler                                   build/startup_stm32f429xx.o
SPI1_IRQHandler                                   build/startup_stm32f429xx.o
SPI2_IRQHandler                                   build/startup_stm32f429xx.o
SPI3_IRQHandler                                   build/startup_stm32f429xx.o
SPI4_IRQHandler                                   build/startup_stm32f429xx.o
SPI5_IRQHandler                                   build/startup_stm32f429xx.o
SPI6_IRQHandler                                   build/startup_stm32f429xx.o
SRAM_Handler                                      build/ili9341.o
SVC_Handler                                       build/stm32f4xx_it.o
Stm32_Clock_Init                                  build/sys.o
SysTick_Handler                                   build/board.o
SystemClock_Config                                build/board.o
SystemCoreClock                                   build/system_stm32f4xx.o
                                                  build/stm32f4xx_hal.o
                                                  build/stm32f4xx_hal_dma.o
                                                  build/stm32f4xx_hal_rtc.o
                                                  build/stm32f4xx_hal_rcc_ex.o
                                                  build/stm32f4xx_hal_rcc.o
SystemCoreClockUpdate                             build/system_stm32f4xx.o
SystemInit                                        build/system_stm32f4xx.o
                                                  build/startup_stm32f429xx.o
TAMP_STAMP_IRQHandler                             build/startup_stm32f429xx.o
TIM1_BRK_TIM9_IRQHandler                          build/startup_stm32f429xx.o
TIM1_CC_IRQHandler                                build/startup_stm32f429xx.o
TIM1_TRG_COM_TIM11_IRQHandler                     build/startup_stm32f429xx.o
TIM1_UP_TIM10_IRQHandler                          build/startup_stm32f429xx.o
TIM2_IRQHandler                                   build/startup_stm32f429xx.o
TIM3_IRQHandler                                   build/startup_stm32f429xx.o
TIM4_IRQHandler                                   build/startup_stm32f429xx.o
TIM5_IRQHandler                                   build/startup_stm32f429xx.o
TIM6_DAC_IRQHandler                               build/startup_stm32f429xx.o
TIM7_IRQHandler                                   build/startup_stm32f429xx.o
TIM8_BRK_TIM12_IRQHandler                         build/startup_stm32f429xx.o
TIM8_CC_IRQHandler                                build/startup_stm32f429xx.o
TIM8_TRG_COM_TIM14_IRQHandler                     build/startup_stm32f429xx.o
TIM8_UP_TIM13_IRQHandler                          build/startup_stm32f429xx.o
TIMEx_DMACommutationCplt                          build/stm32f4xx_hal_tim_ex.o
                                                  build/stm32f4xx_hal_tim.o
TIMEx_DMACommutationHalfCplt                      build/stm32f4xx_hal_tim_ex.o
                                                  build/stm32f4xx_hal_tim.o
TIM_Base_SetConfig                                build/stm32f4xx_hal_tim.o
                                                  build/stm32f4xx_hal_tim_ex.o
TIM_CCxChannelCmd                                 build/stm32f4xx_hal_tim.o
                                                  build/stm32f4xx_hal_tim_ex.o
TIM_DMACaptureCplt                                build/stm32f4xx_hal_tim.o
                                                  build/stm32f4xx_hal_tim_ex.o
TIM_DMACaptureHalfCplt                            build/stm32f4xx_hal_tim.o
                                                  build/stm32f4xx_hal_tim_ex.o
TIM_DMADelayPulseCplt                             build/stm32f4xx_hal_tim.o
                                                  build/stm32f4xx_hal_tim_ex.o
TIM_DMADelayPulseHalfCplt                         build/stm32f4xx_hal_tim.o
                                                  build/stm32f4xx_hal_tim_ex.o
TIM_DMAError                                      build/stm32f4xx_hal_tim.o
                                                  build/stm32f4xx_hal_tim_ex.o
TIM_ETR_SetConfig                                 build/stm32f4xx_hal_tim.o
TIM_OC2_SetConfig                                 build/stm32f4xx_hal_tim.o
                                                  build/stm32f4xx_hal_tim_ex.o
TIM_TI1_SetConfig                                 build/stm32f4xx_hal_tim.o
                                                  build/stm32f4xx_hal_tim_ex.o
UART4_IRQHandler                                  build/startup_stm32f429xx.o
UART5_IRQHandler                                  build/startup_stm32f429xx.o
UART7_IRQHandler                                  build/startup_stm32f429xx.o
UART8_IRQHandler                                  build/startup_stm32f429xx.o
USART1_IRQHandler                                 build/drv_usart.o
USART2_IRQHandler                                 build/startup_stm32f429xx.o
USART3_IRQHandler                                 build/startup_stm32f429xx.o
USART6_IRQHandler                                 build/startup_stm32f429xx.o
UsageFault_Handler                                build/stm32f4xx_it.o
WFI_SET                                           build/sys.o
WWDG_IRQHandler                                   build/startup_stm32f429xx.o
_Jv_RegisterClasses                               /opt/gcc-arm-none-eabi-6-2017-q2-update/bin/../lib/gcc/arm-none-eabi/6.3.1/thumb/v7e-m/fpv4-sp/hard/crtbegin.o
_PathLocale                                       /opt/gcc-arm-none-eabi-6-2017-q2-update/bin/../lib/gcc/arm-none-eabi/6.3.1/../../../../arm-none-eabi/lib/thumb/v7e-m/fpv4-sp/hard/libc_nano.a(lib_a-locale.o)
__aeabi_idiv0                                     /opt/gcc-arm-none-eabi-6-2017-q2-update/bin/../lib/gcc/arm-none-eabi/6.3.1/thumb/v7e-m/fpv4-sp/hard/libgcc.a(_dvmd_tls.o)
__aeabi_ldiv0                                     /opt/gcc-arm-none-eabi-6-2017-q2-update/bin/../lib/gcc/arm-none-eabi/6.3.1/thumb/v7e-m/fpv4-sp/hard/libgcc.a(_dvmd_tls.o)
                                                  /opt/gcc-arm-none-eabi-6-2017-q2-update/bin/../lib/gcc/arm-none-eabi/6.3.1/thumb/v7e-m/fpv4-sp/hard/libgcc.a(_aeabi_uldivmod.o)
__aeabi_uldivmod                                  /opt/gcc-arm-none-eabi-6-2017-q2-update/bin/../lib/gcc/arm-none-eabi/6.3.1/thumb/v7e-m/fpv4-sp/hard/libgcc.a(_aeabi_uldivmod.o)
                                                  build/stm32f4xx_hal_uart.o
                                                  build/stm32f4xx_hal_rcc.o
                                                  build/drv_pwm.o
__ascii_mbtowc                                    /opt/gcc-arm-none-eabi-6-2017-q2-update/bin/../lib/gcc/arm-none-eabi/6.3.1/../../../../arm-none-eabi/lib/thumb/v7e-m/fpv4-sp/hard/libc_nano.a(lib_a-mbtowc_r.o)
                                                  /opt/gcc-arm-none-eabi-6-2017-q2-update/bin/../lib/gcc/arm-none-eabi/6.3.1/../../../../arm-none-eabi/lib/thumb/v7e-m/fpv4-sp/hard/libc_nano.a(lib_a-locale.o)
__ascii_wctomb                                    /opt/gcc-arm-none-eabi-6-2017-q2-update/bin/../lib/gcc/arm-none-eabi/6.3.1/../../../../arm-none-eabi/lib/thumb/v7e-m/fpv4-sp/hard/libc_nano.a(lib_a-wctomb_r.o)
                                                  /opt/gcc-arm-none-eabi-6-2017-q2-update/bin/../lib/gcc/arm-none-eabi/6.3.1/../../../../arm-none-eabi/lib/thumb/v7e-m/fpv4-sp/hard/libc_nano.a(lib_a-locale.o)
__bss_end__                                       /opt/gcc-arm-none-eabi-6-2017-q2-update/bin/../lib/gcc/arm-none-eabi/6.3.1/../../../../arm-none-eabi/lib/thumb/v7e-m/fpv4-sp/hard/crt0.o
__bss_start__                                     /opt/gcc-arm-none-eabi-6-2017-q2-update/bin/../lib/gcc/arm-none-eabi/6.3.1/../../../../arm-none-eabi/lib/thumb/v7e-m/fpv4-sp/hard/crt0.o
__call_exitprocs                                  /opt/gcc-arm-none-eabi-6-2017-q2-update/bin/../lib/gcc/arm-none-eabi/6.3.1/../../../../arm-none-eabi/lib/thumb/v7e-m/fpv4-sp/hard/libc_nano.a(lib_a-exit.o)
__deregister_frame_info                           /opt/gcc-arm-none-eabi-6-2017-q2-update/bin/../lib/gcc/arm-none-eabi/6.3.1/thumb/v7e-m/fpv4-sp/hard/crtbegin.o
__dso_handle                                      /opt/gcc-arm-none-eabi-6-2017-q2-update/bin/../lib/gcc/arm-none-eabi/6.3.1/thumb/v7e-m/fpv4-sp/hard/crtbegin.o
__fsym___cmd_free                                 build/msh.o
__fsym___cmd_free_desc                            build/msh.o
__fsym___cmd_free_name                            build/msh.o
__fsym___cmd_help                                 build/msh.o
__fsym___cmd_help_desc                            build/msh.o
__fsym___cmd_help_name                            build/msh.o
__fsym___cmd_list_device                          build/cmd.o
__fsym___cmd_list_device_desc                     build/cmd.o
__fsym___cmd_list_device_name                     build/cmd.o
__fsym___cmd_list_event                           build/cmd.o
__fsym___cmd_list_event_desc                      build/cmd.o
__fsym___cmd_list_event_name                      build/cmd.o
__fsym___cmd_list_msgqueue                        build/cmd.o
__fsym___cmd_list_msgqueue_desc                   build/cmd.o
__fsym___cmd_list_msgqueue_name                   build/cmd.o
__fsym___cmd_list_mutex                           build/cmd.o
__fsym___cmd_list_mutex_desc                      build/cmd.o
__fsym___cmd_list_mutex_name                      build/cmd.o
__fsym___cmd_list_sem                             build/cmd.o
__fsym___cmd_list_sem_desc                        build/cmd.o
__fsym___cmd_list_sem_name                        build/cmd.o
__fsym___cmd_list_thread                          build/cmd.o
__fsym___cmd_list_thread_desc                     build/cmd.o
__fsym___cmd_list_thread_name                     build/cmd.o
__fsym___cmd_list_timer                           build/cmd.o
__fsym___cmd_list_timer_desc                      build/cmd.o
__fsym___cmd_list_timer_name                      build/cmd.o
__fsym___cmd_pcf8574_sample                       build/pcf8574_sample.o
__fsym___cmd_pcf8574_sample_desc                  build/pcf8574_sample.o
__fsym___cmd_pcf8574_sample_name                  build/pcf8574_sample.o
__fsym___cmd_ps                                   build/msh.o
__fsym___cmd_ps_desc                              build/msh.o
__fsym___cmd_ps_name                              build/msh.o
__fsym___cmd_pwm_disable                          build/rt_drv_pwm.o
__fsym___cmd_pwm_disable_desc                     build/rt_drv_pwm.o
__fsym___cmd_pwm_disable_name                     build/rt_drv_pwm.o
__fsym___cmd_pwm_enable                           build/rt_drv_pwm.o
__fsym___cmd_pwm_enable_desc                      build/rt_drv_pwm.o
__fsym___cmd_pwm_enable_name                      build/rt_drv_pwm.o
__fsym___cmd_pwm_set                              build/rt_drv_pwm.o
__fsym___cmd_pwm_set_desc                         build/rt_drv_pwm.o
__fsym___cmd_pwm_set_name                         build/rt_drv_pwm.o
__fsym___cmd_version                              build/cmd.o
__fsym___cmd_version_desc                         build/cmd.o
__fsym___cmd_version_name                         build/cmd.o
__fsym_hello                                      build/cmd.o
__fsym_hello_desc                                 build/cmd.o
__fsym_hello_name                                 build/cmd.o
__fsym_list                                       build/cmd.o
__fsym_list_desc                                  build/cmd.o
__fsym_list_device                                build/cmd.o
__fsym_list_device_desc                           build/cmd.o
__fsym_list_device_name                           build/cmd.o
__fsym_list_event                                 build/cmd.o
__fsym_list_event_desc                            build/cmd.o
__fsym_list_event_name                            build/cmd.o
__fsym_list_mem                                   build/mem.o
__fsym_list_mem_desc                              build/mem.o
__fsym_list_mem_name                              build/mem.o
__fsym_list_msgqueue                              build/cmd.o
__fsym_list_msgqueue_desc                         build/cmd.o
__fsym_list_msgqueue_name                         build/cmd.o
__fsym_list_mutex                                 build/cmd.o
__fsym_list_mutex_desc                            build/cmd.o
__fsym_list_mutex_name                            build/cmd.o
__fsym_list_name                                  build/cmd.o
__fsym_list_sem                                   build/cmd.o
__fsym_list_sem_desc                              build/cmd.o
__fsym_list_sem_name                              build/cmd.o
__fsym_list_thread                                build/cmd.o
__fsym_list_thread_desc                           build/cmd.o
__fsym_list_thread_name                           build/cmd.o
__fsym_list_timer                                 build/cmd.o
__fsym_list_timer_desc                            build/cmd.o
__fsym_list_timer_name                            build/cmd.o
__fsym_pinMode                                    build/pin.o
__fsym_pinMode_desc                               build/pin.o
__fsym_pinMode_name                               build/pin.o
__fsym_pinRead                                    build/pin.o
__fsym_pinRead_desc                               build/pin.o
__fsym_pinRead_name                               build/pin.o
__fsym_pinWrite                                   build/pin.o
__fsym_pinWrite_desc                              build/pin.o
__fsym_pinWrite_name                              build/pin.o
__fsym_pwm_enable                                 build/rt_drv_pwm.o
__fsym_pwm_enable_desc                            build/rt_drv_pwm.o
__fsym_pwm_enable_name                            build/rt_drv_pwm.o
__fsym_pwm_set                                    build/rt_drv_pwm.o
__fsym_pwm_set_desc                               build/rt_drv_pwm.o
__fsym_pwm_set_name                               build/rt_drv_pwm.o
__fsym_version                                    build/cmd.o
__fsym_version_desc                               build/cmd.o
__fsym_version_name                               build/cmd.o
__fsymtab_end                                     build/shell.o
__fsymtab_start                                   build/shell.o
__global_locale                                   /opt/gcc-arm-none-eabi-6-2017-q2-update/bin/../lib/gcc/arm-none-eabi/6.3.1/../../../../arm-none-eabi/lib/thumb/v7e-m/fpv4-sp/hard/libc_nano.a(lib_a-locale.o)
                                                  /opt/gcc-arm-none-eabi-6-2017-q2-update/bin/../lib/gcc/arm-none-eabi/6.3.1/../../../../arm-none-eabi/lib/thumb/v7e-m/fpv4-sp/hard/libc_nano.a(lib_a-wctomb_r.o)
                                                  /opt/gcc-arm-none-eabi-6-2017-q2-update/bin/../lib/gcc/arm-none-eabi/6.3.1/../../../../arm-none-eabi/lib/thumb/v7e-m/fpv4-sp/hard/libc_nano.a(lib_a-mbtowc_r.o)
                                                  /opt/gcc-arm-none-eabi-6-2017-q2-update/bin/../lib/gcc/arm-none-eabi/6.3.1/../../../../arm-none-eabi/lib/thumb/v7e-m/fpv4-sp/hard/libc_nano.a(lib_a-strtol.o)
__init_array_end                                  /opt/gcc-arm-none-eabi-6-2017-q2-update/bin/../lib/gcc/arm-none-eabi/6.3.1/../../../../arm-none-eabi/lib/thumb/v7e-m/fpv4-sp/hard/libc_nano.a(lib_a-init.o)
__init_array_start                                /opt/gcc-arm-none-eabi-6-2017-q2-update/bin/../lib/gcc/arm-none-eabi/6.3.1/../../../../arm-none-eabi/lib/thumb/v7e-m/fpv4-sp/hard/libc_nano.a(lib_a-init.o)
__libc_fini_array                                 /opt/gcc-arm-none-eabi-6-2017-q2-update/bin/../lib/gcc/arm-none-eabi/6.3.1/../../../../arm-none-eabi/lib/thumb/v7e-m/fpv4-sp/hard/crt0.o
__libc_init_array                                 /opt/gcc-arm-none-eabi-6-2017-q2-update/bin/../lib/gcc/arm-none-eabi/6.3.1/../../../../arm-none-eabi/lib/thumb/v7e-m/fpv4-sp/hard/libc_nano.a(lib_a-init.o)
                                                  /opt/gcc-arm-none-eabi-6-2017-q2-update/bin/../lib/gcc/arm-none-eabi/6.3.1/../../../../arm-none-eabi/lib/thumb/v7e-m/fpv4-sp/hard/crt0.o
__locale_ctype_ptr                                /opt/gcc-arm-none-eabi-6-2017-q2-update/bin/../lib/gcc/arm-none-eabi/6.3.1/../../../../arm-none-eabi/lib/thumb/v7e-m/fpv4-sp/hard/libc_nano.a(lib_a-locale.o)
__locale_ctype_ptr_l                              /opt/gcc-arm-none-eabi-6-2017-q2-update/bin/../lib/gcc/arm-none-eabi/6.3.1/../../../../arm-none-eabi/lib/thumb/v7e-m/fpv4-sp/hard/libc_nano.a(lib_a-locale.o)
                                                  /opt/gcc-arm-none-eabi-6-2017-q2-update/bin/../lib/gcc/arm-none-eabi/6.3.1/../../../../arm-none-eabi/lib/thumb/v7e-m/fpv4-sp/hard/libc_nano.a(lib_a-strtol.o)
__locale_mb_cur_max                               /opt/gcc-arm-none-eabi-6-2017-q2-update/bin/../lib/gcc/arm-none-eabi/6.3.1/../../../../arm-none-eabi/lib/thumb/v7e-m/fpv4-sp/hard/libc_nano.a(lib_a-locale.o)
__preinit_array_end                               /opt/gcc-arm-none-eabi-6-2017-q2-update/bin/../lib/gcc/arm-none-eabi/6.3.1/../../../../arm-none-eabi/lib/thumb/v7e-m/fpv4-sp/hard/libc_nano.a(lib_a-init.o)
__preinit_array_start                             /opt/gcc-arm-none-eabi-6-2017-q2-update/bin/../lib/gcc/arm-none-eabi/6.3.1/../../../../arm-none-eabi/lib/thumb/v7e-m/fpv4-sp/hard/libc_nano.a(lib_a-init.o)
__register_frame_info                             /opt/gcc-arm-none-eabi-6-2017-q2-update/bin/../lib/gcc/arm-none-eabi/6.3.1/thumb/v7e-m/fpv4-sp/hard/crtbegin.o
__rt_ffs                                          build/cpuport.o
                                                  build/scheduler.o
__rt_init_LCD_Init                                build/ili9341.o
__rt_init_finsh_system_init                       build/shell.o
__rt_init_hw_i2c_init                             build/drv_i2c.o
__rt_init_rt_i2c_core_init                        build/i2c_core.o
__rt_init_rti_board_end                           build/components.o
__rt_init_rti_board_start                         build/components.o
__rt_init_rti_end                                 build/components.o
__rt_init_rti_start                               build/components.o
__rt_init_stm32_pwm_init                          build/drv_pwm.o
__sf_fake_stderr                                  /opt/gcc-arm-none-eabi-6-2017-q2-update/bin/../lib/gcc/arm-none-eabi/6.3.1/../../../../arm-none-eabi/lib/thumb/v7e-m/fpv4-sp/hard/libc_nano.a(lib_a-impure.o)
__sf_fake_stdin                                   /opt/gcc-arm-none-eabi-6-2017-q2-update/bin/../lib/gcc/arm-none-eabi/6.3.1/../../../../arm-none-eabi/lib/thumb/v7e-m/fpv4-sp/hard/libc_nano.a(lib_a-impure.o)
__sf_fake_stdout                                  /opt/gcc-arm-none-eabi-6-2017-q2-update/bin/../lib/gcc/arm-none-eabi/6.3.1/../../../../arm-none-eabi/lib/thumb/v7e-m/fpv4-sp/hard/libc_nano.a(lib_a-impure.o)
__stack                                           /opt/gcc-arm-none-eabi-6-2017-q2-update/bin/../lib/gcc/arm-none-eabi/6.3.1/../../../../arm-none-eabi/lib/thumb/v7e-m/fpv4-sp/hard/crt0.o
__udivmoddi4                                      /opt/gcc-arm-none-eabi-6-2017-q2-update/bin/../lib/gcc/arm-none-eabi/6.3.1/thumb/v7e-m/fpv4-sp/hard/libgcc.a(_udivmoddi4.o)
                                                  /opt/gcc-arm-none-eabi-6-2017-q2-update/bin/../lib/gcc/arm-none-eabi/6.3.1/thumb/v7e-m/fpv4-sp/hard/libgcc.a(_aeabi_uldivmod.o)
__vsymtab_end                                     build/shell.o
__vsymtab_start                                   build/shell.o
__wqueue_default_wake                             build/waitqueue.o
_atoi_r                                           /opt/gcc-arm-none-eabi-6-2017-q2-update/bin/../lib/gcc/arm-none-eabi/6.3.1/../../../../arm-none-eabi/lib/thumb/v7e-m/fpv4-sp/hard/libc_nano.a(lib_a-atoi.o)
_ctype_                                           /opt/gcc-arm-none-eabi-6-2017-q2-update/bin/../lib/gcc/arm-none-eabi/6.3.1/../../../../arm-none-eabi/lib/thumb/v7e-m/fpv4-sp/hard/libc_nano.a(lib_a-ctype_.o)
                                                  /opt/gcc-arm-none-eabi-6-2017-q2-update/bin/../lib/gcc/arm-none-eabi/6.3.1/../../../../arm-none-eabi/lib/thumb/v7e-m/fpv4-sp/hard/libc_nano.a(lib_a-locale.o)
_ebss                                             build/startup_stm32f429xx.o
_edata                                            build/startup_stm32f429xx.o
_estack                                           build/startup_stm32f429xx.o
_exit                                             /opt/gcc-arm-none-eabi-6-2017-q2-update/bin/../lib/gcc/arm-none-eabi/6.3.1/../../../../arm-none-eabi/lib/thumb/v7e-m/fpv4-sp/hard/libnosys.a(_exit.o)
                                                  /opt/gcc-arm-none-eabi-6-2017-q2-update/bin/../lib/gcc/arm-none-eabi/6.3.1/../../../../arm-none-eabi/lib/thumb/v7e-m/fpv4-sp/hard/libc_nano.a(lib_a-exit.o)
_fini                                             /opt/gcc-arm-none-eabi-6-2017-q2-update/bin/../lib/gcc/arm-none-eabi/6.3.1/thumb/v7e-m/fpv4-sp/hard/crti.o
_global_impure_ptr                                /opt/gcc-arm-none-eabi-6-2017-q2-update/bin/../lib/gcc/arm-none-eabi/6.3.1/../../../../arm-none-eabi/lib/thumb/v7e-m/fpv4-sp/hard/libc_nano.a(lib_a-impure.o)
                                                  /opt/gcc-arm-none-eabi-6-2017-q2-update/bin/../lib/gcc/arm-none-eabi/6.3.1/../../../../arm-none-eabi/lib/thumb/v7e-m/fpv4-sp/hard/libc_nano.a(lib_a-exit.o)
_impure_ptr                                       /opt/gcc-arm-none-eabi-6-2017-q2-update/bin/../lib/gcc/arm-none-eabi/6.3.1/../../../../arm-none-eabi/lib/thumb/v7e-m/fpv4-sp/hard/libc_nano.a(lib_a-impure.o)
                                                  /opt/gcc-arm-none-eabi-6-2017-q2-update/bin/../lib/gcc/arm-none-eabi/6.3.1/../../../../arm-none-eabi/lib/thumb/v7e-m/fpv4-sp/hard/libc_nano.a(lib_a-wctomb_r.o)
                                                  /opt/gcc-arm-none-eabi-6-2017-q2-update/bin/../lib/gcc/arm-none-eabi/6.3.1/../../../../arm-none-eabi/lib/thumb/v7e-m/fpv4-sp/hard/libc_nano.a(lib_a-mbtowc_r.o)
                                                  /opt/gcc-arm-none-eabi-6-2017-q2-update/bin/../lib/gcc/arm-none-eabi/6.3.1/../../../../arm-none-eabi/lib/thumb/v7e-m/fpv4-sp/hard/libc_nano.a(lib_a-locale.o)
                                                  /opt/gcc-arm-none-eabi-6-2017-q2-update/bin/../lib/gcc/arm-none-eabi/6.3.1/../../../../arm-none-eabi/lib/thumb/v7e-m/fpv4-sp/hard/libc_nano.a(lib_a-strtol.o)
_init                                             /opt/gcc-arm-none-eabi-6-2017-q2-update/bin/../lib/gcc/arm-none-eabi/6.3.1/thumb/v7e-m/fpv4-sp/hard/crti.o
                                                  /opt/gcc-arm-none-eabi-6-2017-q2-update/bin/../lib/gcc/arm-none-eabi/6.3.1/../../../../arm-none-eabi/lib/thumb/v7e-m/fpv4-sp/hard/libc_nano.a(lib_a-init.o)
_mainCRTStartup                                   /opt/gcc-arm-none-eabi-6-2017-q2-update/bin/../lib/gcc/arm-none-eabi/6.3.1/../../../../arm-none-eabi/lib/thumb/v7e-m/fpv4-sp/hard/crt0.o
_mbtowc_r                                         /opt/gcc-arm-none-eabi-6-2017-q2-update/bin/../lib/gcc/arm-none-eabi/6.3.1/../../../../arm-none-eabi/lib/thumb/v7e-m/fpv4-sp/hard/libc_nano.a(lib_a-mbtowc_r.o)
_rt_errno                                         build/kservice.o
_sbss                                             build/startup_stm32f429xx.o
_sdata                                            build/startup_stm32f429xx.o
_setlocale_r                                      /opt/gcc-arm-none-eabi-6-2017-q2-update/bin/../lib/gcc/arm-none-eabi/6.3.1/../../../../arm-none-eabi/lib/thumb/v7e-m/fpv4-sp/hard/libc_nano.a(lib_a-locale.o)
_sidata                                           build/startup_stm32f429xx.o
_start                                            /opt/gcc-arm-none-eabi-6-2017-q2-update/bin/../lib/gcc/arm-none-eabi/6.3.1/../../../../arm-none-eabi/lib/thumb/v7e-m/fpv4-sp/hard/crt0.o
_strtol_r                                         /opt/gcc-arm-none-eabi-6-2017-q2-update/bin/../lib/gcc/arm-none-eabi/6.3.1/../../../../arm-none-eabi/lib/thumb/v7e-m/fpv4-sp/hard/libc_nano.a(lib_a-strtol.o)
                                                  /opt/gcc-arm-none-eabi-6-2017-q2-update/bin/../lib/gcc/arm-none-eabi/6.3.1/../../../../arm-none-eabi/lib/thumb/v7e-m/fpv4-sp/hard/libc_nano.a(lib_a-atoi.o)
_syscall_table_begin                              build/shell.o
                                                  build/msh.o
                                                  build/finsh_vm.o
                                                  build/cmd.o
_syscall_table_end                                build/shell.o
                                                  build/msh.o
                                                  build/finsh_vm.o
                                                  build/cmd.o
_sysvar_table_begin                               build/shell.o
                                                  build/finsh_var.o
_sysvar_table_end                                 build/shell.o
                                                  build/finsh_var.o
_wctomb_r                                         /opt/gcc-arm-none-eabi-6-2017-q2-update/bin/../lib/gcc/arm-none-eabi/6.3.1/../../../../arm-none-eabi/lib/thumb/v7e-m/fpv4-sp/hard/libc_nano.a(lib_a-wctomb_r.o)
asc2_1206                                         build/font.o
                                                  build/ili9341.o
asc2_1608                                         build/font.o
                                                  build/ili9341.o
asc2_2412                                         build/font.o
                                                  build/ili9341.o
asc2_3216                                         build/font.o
                                                  build/ili9341.o
atexit                                            /opt/gcc-arm-none-eabi-6-2017-q2-update/bin/../lib/gcc/arm-none-eabi/6.3.1/../../../../arm-none-eabi/lib/thumb/v7e-m/fpv4-sp/hard/crt0.o
atoi                                              /opt/gcc-arm-none-eabi-6-2017-q2-update/bin/../lib/gcc/arm-none-eabi/6.3.1/../../../../arm-none-eabi/lib/thumb/v7e-m/fpv4-sp/hard/libc_nano.a(lib_a-atoi.o)
                                                  build/rt_drv_pwm.o
                                                  build/finsh_token.o
audio                                             build/main.o
audio_close                                       build/main.o
audio_control                                     build/main.o
audio_init                                        build/main.o
audio_open                                        build/main.o
audio_write                                       build/main.o
beep_init                                         build/beep.o
                                                  build/main.o
beep_off                                          build/beep.o
                                                  build/main.o
beep_on                                           build/beep.o
                                                  build/main.o
beep_set                                          build/beep.o
                                                  build/main.o
beep_song_decode_init                             build/decode.o
                                                  build/main.o
beep_song_get_data                                build/decode.o
                                                  build/main.o
beep_song_get_len                                 build/decode.o
                                                  build/main.o
beep_song_get_name                                build/decode.o
                                                  build/main.o
beep_volume                                       build/main.o
btn_cb                                            build/key.o
btn_last                                          build/key.o
btn_next                                          build/key.o
btn_play                                          build/key.o
cmd_free                                          build/msh.o
cmd_ps                                            build/msh.o
decode                                            build/main.o
decode_control                                    build/main.o
decode_read                                       build/main.o
delay_init                                        build/delay.o
                                                  build/board.o
delay_ms                                          build/delay.o
                                                  build/ili9341.o
delay_osschedlock                                 build/delay.o
delay_osschedunlock                               build/delay.o
delay_ostimedly                                   build/delay.o
delay_us                                          build/delay.o
                                                  build/ili9341.o
entry                                             build/components.o
                                                  build/startup_stm32f429xx.o
exit                                              /opt/gcc-arm-none-eabi-6-2017-q2-update/bin/../lib/gcc/arm-none-eabi/6.3.1/../../../../arm-none-eabi/lib/thumb/v7e-m/fpv4-sp/hard/libc_nano.a(lib_a-exit.o)
                                                  /opt/gcc-arm-none-eabi-6-2017-q2-update/bin/../lib/gcc/arm-none-eabi/6.3.1/../../../../arm-none-eabi/lib/thumb/v7e-m/fpv4-sp/hard/crt0.o
finsh_compile_pc                                  build/finsh_compiler.o
finsh_compile_sp                                  build/finsh_compiler.o
finsh_compiler_run                                build/finsh_compiler.o
finsh_errno                                       build/finsh_error.o
finsh_error_init                                  build/finsh_error.o
                                                  build/finsh_init.o
finsh_error_set                                   build/finsh_error.o
                                                  build/finsh_token.o
                                                  build/finsh_parser.o
                                                  build/finsh_node.o
                                                  build/finsh_compiler.o
finsh_error_string                                build/finsh_error.o
finsh_flush                                       build/finsh_init.o
finsh_get_device                                  build/shell.o
finsh_get_echo                                    build/shell.o
finsh_get_prompt                                  build/shell.o
finsh_get_prompt_mode                             build/shell.o
finsh_heap                                        build/finsh_heap.o
finsh_heap_allocate                               build/finsh_heap.o
                                                  build/finsh_node.o
finsh_heap_free                                   build/finsh_heap.o
finsh_heap_init                                   build/finsh_heap.o
                                                  build/finsh_init.o
finsh_init                                        build/finsh_init.o
finsh_node_allocate                               build/finsh_node.o
                                                  build/finsh_parser.o
finsh_node_init                                   build/finsh_node.o
                                                  build/finsh_init.o
finsh_node_new_char                               build/finsh_node.o
                                                  build/finsh_parser.o
finsh_node_new_id                                 build/finsh_node.o
                                                  build/finsh_parser.o
finsh_node_new_int                                build/finsh_node.o
                                                  build/finsh_parser.o
finsh_node_new_long                               build/finsh_node.o
                                                  build/finsh_parser.o
finsh_node_new_ptr                                build/finsh_node.o
                                                  build/finsh_parser.o
finsh_node_new_string                             build/finsh_node.o
                                                  build/finsh_parser.o
finsh_parser_init                                 build/finsh_parser.o
                                                  build/finsh_init.o
finsh_parser_run                                  build/finsh_parser.o
finsh_pc                                          build/finsh_vm.o
                                                  build/finsh_ops.o
finsh_reset                                       build/finsh_init.o
finsh_set_device                                  build/shell.o
finsh_set_echo                                    build/shell.o
finsh_set_prompt                                  build/shell.o
finsh_set_prompt_mode                             build/shell.o
finsh_sp                                          build/finsh_vm.o
                                                  build/finsh_ops.o
finsh_stack_bottom                                build/finsh_init.o
finsh_syscall_append                              build/finsh_vm.o
finsh_syscall_lookup                              build/finsh_vm.o
                                                  build/finsh_node.o
finsh_system_function_init                        build/shell.o
finsh_system_init                                 build/shell.o
finsh_system_var_init                             build/shell.o
finsh_sysvar_append                               build/finsh_var.o
finsh_sysvar_lookup                               build/finsh_var.o
                                                  build/finsh_node.o
finsh_thread_entry                                build/shell.o
finsh_token_get_token                             build/finsh_token.o
finsh_token_init                                  build/finsh_token.o
                                                  build/finsh_parser.o
finsh_token_token                                 build/finsh_token.o
                                                  build/finsh_parser.o
finsh_var_delete                                  build/finsh_var.o
finsh_var_init                                    build/finsh_var.o
                                                  build/finsh_init.o
finsh_var_insert                                  build/finsh_var.o
                                                  build/finsh_parser.o
finsh_var_lookup                                  build/finsh_var.o
                                                  build/finsh_node.o
finsh_vm_run                                      build/finsh_vm.o
finsh_vm_stack                                    build/finsh_vm.o
                                                  build/finsh_init.o
                                                  build/finsh_compiler.o
g_pfnVectors                                      build/startup_stm32f429xx.o
global_errno                                      build/finsh_error.o
global_node_table                                 build/finsh_node.o
global_syscall_list                               build/finsh_vm.o
global_sysvar_list                                build/finsh_var.o
global_variable                                   build/finsh_var.o
                                                  build/finsh_heap.o
hardware_init_hook                                /opt/gcc-arm-none-eabi-6-2017-q2-update/bin/../lib/gcc/arm-none-eabi/6.3.1/../../../../arm-none-eabi/lib/thumb/v7e-m/fpv4-sp/hard/crt0.o
hello                                             build/cmd.o
hw_i2c_init                                       build/drv_i2c.o
key_init                                          build/key.o
                                                  build/main.o
lcddev                                            build/ili9341.o
led_init                                          build/led.o
                                                  build/main.o
led_off                                           build/led.o
                                                  build/main.o
led_on                                            build/led.o
                                                  build/main.o
led_toggle                                        build/led.o
                                                  build/main.o
list                                              build/cmd.o
list_device                                       build/cmd.o
list_event                                        build/cmd.o
list_mem                                          build/mem.o
                                                  build/msh.o
list_msgqueue                                     build/cmd.o
list_mutex                                        build/cmd.o
list_sem                                          build/cmd.o
list_thread                                       build/cmd.o
                                                  build/scheduler.o
                                                  build/cpuport.o
                                                  build/msh.o
list_timer                                        build/cmd.o
main                                              build/main.o
                                                  build/components.o
                                                  /opt/gcc-arm-none-eabi-6-2017-q2-update/bin/../lib/gcc/arm-none-eabi/6.3.1/../../../../arm-none-eabi/lib/thumb/v7e-m/fpv4-sp/hard/crt0.o
main_thread_entry                                 build/components.o
memcmp                                            /opt/gcc-arm-none-eabi-6-2017-q2-update/bin/../lib/gcc/arm-none-eabi/6.3.1/../../../../arm-none-eabi/lib/thumb/v7e-m/fpv4-sp/hard/libc_nano.a(lib_a-memcmp.o)
                                                  build/shell.o
memcpy                                            /opt/gcc-arm-none-eabi-6-2017-q2-update/bin/../lib/gcc/arm-none-eabi/6.3.1/../../../../arm-none-eabi/lib/thumb/v7e-m/fpv4-sp/hard/libc_nano.a(lib_a-memcpy-stub.o)
                                                  build/shell.o
                                                  build/cmd.o
                                                  build/ringbuffer.o
memset                                            /opt/gcc-arm-none-eabi-6-2017-q2-update/bin/../lib/gcc/arm-none-eabi/6.3.1/../../../../arm-none-eabi/lib/thumb/v7e-m/fpv4-sp/hard/libc_nano.a(lib_a-memset.o)
                                                  build/rt_drv_pwm.o
                                                  build/shell.o
                                                  build/msh.o
                                                  build/finsh_var.o
                                                  build/finsh_token.o
                                                  build/finsh_parser.o
                                                  build/finsh_node.o
                                                  build/finsh_heap.o
                                                  build/finsh_compiler.o
                                                  build/board.o
                                                  /opt/gcc-arm-none-eabi-6-2017-q2-update/bin/../lib/gcc/arm-none-eabi/6.3.1/../../../../arm-none-eabi/lib/thumb/v7e-m/fpv4-sp/hard/crt0.o
msh_auto_complete                                 build/msh.o
                                                  build/shell.o
msh_exec                                          build/msh.o
                                                  build/shell.o
msh_help                                          build/msh.o
msh_is_used                                       build/msh.o
                                                  build/shell.o
my_button_register                                build/button.o
                                                  build/key.o
my_button_start                                   build/button.o
                                                  build/key.o
op_table                                          build/finsh_ops.o
                                                  build/finsh_vm.o
opt_delay                                         build/ili9341.o
pFlash                                            build/stm32f4xx_hal_flash.o
                                                  build/stm32f4xx_hal_flash_ex.o
pcf8574_deinit                                    build/pcf8574.o
                                                  build/pcf8574_sample.o
pcf8574_init                                      build/pcf8574.o
                                                  build/pcf8574_sample.o
pcf8574_pin_read                                  build/pcf8574.o
                                                  build/pcf8574_sample.o
pcf8574_pin_write                                 build/pcf8574.o
                                                  build/pcf8574_sample.o
pcf8574_port_read                                 build/pcf8574.o
pcf8574_port_write                                build/pcf8574.o
pcf8574_sample                                    build/pcf8574_sample.o
player                                            build/main.o
                                                  build/key.o
player_add_song                                   build/player.o
                                                  build/main.o
player_control                                    build/player.o
                                                  build/main.o
                                                  build/key.o
player_init                                       build/main.o
player_last                                       build/player.o
player_next                                       build/player.o
player_play                                       build/player.o
player_show                                       build/player.o
                                                  build/main.o
                                                  build/key.o
player_start                                      build/player.o
                                                  build/main.o
player_stop                                       build/player.o
pwm_device                                        build/beep.o
rt_application_init                               build/components.o
rt_calloc                                         build/mem.o
                                                  build/shell.o
                                                  build/pcf8574.o
rt_completion_done                                build/completion.o
                                                  build/serial.o
rt_completion_init                                build/completion.o
                                                  build/serial.o
rt_completion_wait                                build/completion.o
                                                  build/serial.o
rt_components_board_init                          build/components.o
                                                  build/board.o
rt_components_init                                build/components.o
rt_console_get_device                             build/kservice.o
                                                  build/shell.o
rt_console_set_device                             build/kservice.o
                                                  build/board.o
rt_critical_level                                 build/scheduler.o
rt_current_priority                               build/scheduler.o
rt_current_thread                                 build/scheduler.o
                                                  build/thread.o
rt_data_queue_init                                build/dataqueue.o
                                                  build/serial.o
rt_data_queue_peak                                build/dataqueue.o
                                                  build/serial.o
rt_data_queue_pop                                 build/dataqueue.o
                                                  build/serial.o
rt_data_queue_push                                build/dataqueue.o
                                                  build/serial.o
rt_data_queue_reset                               build/dataqueue.o
rt_delayed_work_init                              build/workqueue.o
rt_device_close                                   build/device.o
                                                  build/kservice.o
                                                  build/shell.o
rt_device_control                                 build/device.o
                                                  build/rt_drv_pwm.o
rt_device_create                                  build/device.o
rt_device_destroy                                 build/device.o
rt_device_find                                    build/device.o
                                                  build/i2c_core.o
                                                  build/rt_drv_pwm.o
                                                  build/kservice.o
                                                  build/shell.o
                                                  build/pipe.o
                                                  build/pcf8574.o
                                                  build/beep.o
rt_device_init                                    build/device.o
rt_device_init_all                                build/device.o
rt_device_open                                    build/device.o
                                                  build/kservice.o
                                                  build/shell.o
                                                  build/pcf8574.o
rt_device_pin_register                            build/pin.o
                                                  build/drv_gpio.o
rt_device_pwm_register                            build/rt_drv_pwm.o
                                                  build/drv_pwm.o
rt_device_read                                    build/device.o
                                                  build/shell.o
                                                  build/pcf8574.o
rt_device_register                                build/device.o
                                                  build/i2c_dev.o
                                                  build/rt_drv_pwm.o
                                                  build/pin.o
                                                  build/pipe.o
                                                  build/serial.o
rt_device_set_rx_indicate                         build/device.o
                                                  build/shell.o
rt_device_set_tx_complete                         build/device.o
rt_device_unregister                              build/device.o
                                                  build/pipe.o
rt_device_write                                   build/device.o
                                                  build/kservice.o
                                                  build/pcf8574.o
rt_enter_critical                                 build/scheduler.o
                                                  build/delay.o
                                                  build/thread.o
                                                  build/object.o
                                                  build/idle.o
                                                  build/device.o
                                                  build/workqueue.o
                                                  build/dataqueue.o
                                                  build/board.o
rt_event_control                                  build/ipc.o
rt_event_create                                   build/ipc.o
rt_event_delete                                   build/ipc.o
rt_event_detach                                   build/ipc.o
rt_event_init                                     build/ipc.o
rt_event_recv                                     build/ipc.o
rt_event_send                                     build/ipc.o
rt_exit_critical                                  build/scheduler.o
                                                  build/delay.o
                                                  build/thread.o
                                                  build/object.o
                                                  build/idle.o
                                                  build/device.o
                                                  build/workqueue.o
                                                  build/dataqueue.o
                                                  build/board.o
rt_free                                           build/mem.o
                                                  build/object.o
                                                  build/kservice.o
                                                  build/ipc.o
                                                  build/idle.o
                                                  build/device.o
                                                  build/shell.o
                                                  build/workqueue.o
                                                  build/ringbuffer.o
                                                  build/ringblk_buf.o
                                                  build/pipe.o
                                                  build/serial.o
                                                  build/pcf8574.o
rt_free_align                                     build/kservice.o
rt_free_sethook                                   build/mem.o
rt_get_errno                                      build/kservice.o
rt_heap_begin_get                                 build/board.o
rt_heap_end_get                                   build/board.o
rt_hw_board_init                                  build/board.o
                                                  build/components.o
rt_hw_console_output                              build/board.o
rt_hw_context_switch                              build/context_gcc.o
                                                  build/scheduler.o
rt_hw_context_switch_interrupt                    build/context_gcc.o
                                                  build/scheduler.o
rt_hw_context_switch_to                           build/context_gcc.o
                                                  build/scheduler.o
rt_hw_cpu_reset                                   build/cpuport.o
rt_hw_cpu_shutdown                                build/cpuport.o
rt_hw_exception_install                           build/cpuport.o
rt_hw_hard_fault_exception                        build/cpuport.o
                                                  build/context_gcc.o
rt_hw_interrupt_disable                           build/context_gcc.o
                                                  build/drv_usart.o
                                                  build/drv_gpio.o
                                                  build/timer.o
                                                  build/thread.o
                                                  build/scheduler.o
                                                  build/object.o
                                                  build/irq.o
                                                  build/ipc.o
                                                  build/idle.o
                                                  build/components.o
                                                  build/clock.o
                                                  build/cmd.o
                                                  build/workqueue.o
                                                  build/waitqueue.o
                                                  build/ringblk_buf.o
                                                  build/dataqueue.o
                                                  build/completion.o
                                                  build/serial.o
                                                  build/player.o
rt_hw_interrupt_enable                            build/context_gcc.o
                                                  build/drv_usart.o
                                                  build/drv_gpio.o
                                                  build/timer.o
                                                  build/thread.o
                                                  build/scheduler.o
                                                  build/object.o
                                                  build/irq.o
                                                  build/ipc.o
                                                  build/idle.o
                                                  build/clock.o
                                                  build/cmd.o
                                                  build/workqueue.o
                                                  build/waitqueue.o
                                                  build/ringblk_buf.o
                                                  build/dataqueue.o
                                                  build/completion.o
                                                  build/serial.o
                                                  build/player.o
rt_hw_interrupt_thread_switch                     build/context_gcc.o
rt_hw_pin_init                                    build/drv_gpio.o
                                                  build/board.o
rt_hw_serial_isr                                  build/serial.o
                                                  build/drv_usart.o
rt_hw_serial_register                             build/serial.o
                                                  build/drv_usart.o
rt_hw_stack_init                                  build/cpuport.o
                                                  build/thread.o
rt_hw_usart_init                                  build/drv_usart.o
                                                  build/board.o
rt_i2c_bit_add_bus                                build/i2c-bit-ops.o
                                                  build/drv_i2c.o
rt_i2c_bus_device_device_init                     build/i2c_dev.o
                                                  build/i2c_core.o
rt_i2c_bus_device_find                            build/i2c_core.o
rt_i2c_bus_device_register                        build/i2c_core.o
                                                  build/i2c-bit-ops.o
rt_i2c_core_init                                  build/i2c_core.o
rt_i2c_master_recv                                build/i2c_core.o
                                                  build/i2c_dev.o
rt_i2c_master_send                                build/i2c_core.o
                                                  build/i2c_dev.o
rt_i2c_transfer                                   build/i2c_core.o
                                                  build/i2c_dev.o
rt_interrupt_enter                                build/irq.o
                                                  build/drv_usart.o
                                                  build/drv_gpio.o
                                                  build/board.o
rt_interrupt_enter_sethook                        build/irq.o
rt_interrupt_from_thread                          build/cpuport.o
                                                  build/context_gcc.o
rt_interrupt_get_nest                             build/irq.o
                                                  build/kservice.o
rt_interrupt_leave                                build/irq.o
                                                  build/drv_usart.o
                                                  build/drv_gpio.o
                                                  build/board.o
rt_interrupt_leave_sethook                        build/irq.o
rt_interrupt_nest                                 build/irq.o
                                                  build/delay.o
                                                  build/scheduler.o
rt_interrupt_to_thread                            build/cpuport.o
                                                  build/context_gcc.o
rt_kprintf                                        build/kservice.o
                                                  build/rt_drv_pwm.o
                                                  build/drv_i2c.o
                                                  build/scheduler.o
                                                  build/mem.o
                                                  build/device.o
                                                  build/cpuport.o
                                                  build/shell.o
                                                  build/msh.o
                                                  build/cmd.o
                                                  build/pcf8574_sample.o
                                                  build/pcf8574.o
rt_kputs                                          build/kservice.o
rt_malloc                                         build/mem.o
                                                  build/thread.o
                                                  build/object.o
                                                  build/kservice.o
                                                  build/ipc.o
                                                  build/device.o
                                                  build/shell.o
                                                  build/finsh_vm.o
                                                  build/finsh_var.o
                                                  build/workqueue.o
                                                  build/ringbuffer.o
                                                  build/ringblk_buf.o
                                                  build/pipe.o
                                                  build/dataqueue.o
                                                  build/serial.o
rt_malloc_align                                   build/kservice.o
rt_malloc_sethook                                 build/mem.o
rt_memcmp                                         build/kservice.o
rt_memcpy                                         build/kservice.o
                                                  build/mem.o
                                                  build/ipc.o
                                                  build/serial.o
rt_memmove                                        build/kservice.o
                                                  build/shell.o
rt_memory_info                                    build/mem.o
rt_memset                                         build/kservice.o
                                                  build/drv_i2c.o
                                                  build/thread.o
                                                  build/object.o
                                                  build/mem.o
                                                  build/device.o
                                                  build/pipe.o
                                                  build/serial.o
rt_mq_control                                     build/ipc.o
rt_mq_create                                      build/ipc.o
rt_mq_delete                                      build/ipc.o
rt_mq_detach                                      build/ipc.o
rt_mq_init                                        build/ipc.o
rt_mq_recv                                        build/ipc.o
rt_mq_send                                        build/ipc.o
rt_mq_send_wait                                   build/ipc.o
rt_mq_urgent                                      build/ipc.o
rt_mutex_control                                  build/ipc.o
rt_mutex_create                                   build/ipc.o
rt_mutex_delete                                   build/ipc.o
rt_mutex_detach                                   build/ipc.o
                                                  build/pipe.o
rt_mutex_init                                     build/ipc.o
                                                  build/i2c_core.o
                                                  build/pipe.o
rt_mutex_release                                  build/ipc.o
                                                  build/i2c_core.o
                                                  build/pipe.o
rt_mutex_take                                     build/ipc.o
                                                  build/i2c_core.o
                                                  build/pipe.o
rt_object_allocate                                build/object.o
                                                  build/timer.o
                                                  build/thread.o
                                                  build/ipc.o
rt_object_attach_sethook                          build/object.o
rt_object_delete                                  build/object.o
                                                  build/timer.o
                                                  build/thread.o
                                                  build/ipc.o
                                                  build/idle.o
rt_object_detach                                  build/object.o
                                                  build/timer.o
                                                  build/thread.o
                                                  build/ipc.o
                                                  build/idle.o
                                                  build/device.o
rt_object_detach_sethook                          build/object.o
rt_object_find                                    build/object.o
rt_object_get_information                         build/object.o
                                                  build/thread.o
                                                  build/device.o
                                                  build/cmd.o
rt_object_get_type                                build/object.o
rt_object_init                                    build/object.o
                                                  build/timer.o
                                                  build/thread.o
                                                  build/ipc.o
                                                  build/device.o
rt_object_is_systemobject                         build/object.o
                                                  build/thread.o
                                                  build/idle.o
rt_object_put_hook                                build/object.o
                                                  build/timer.o
                                                  build/ipc.o
rt_object_put_sethook                             build/object.o
rt_object_take_hook                               build/object.o
                                                  build/timer.o
                                                  build/ipc.o
rt_object_take_sethook                            build/object.o
rt_object_trytake_hook                            build/object.o
                                                  build/ipc.o
rt_object_trytake_sethook                         build/object.o
rt_pin_attach_irq                                 build/pin.o
rt_pin_detach_irq                                 build/pin.o
rt_pin_irq_enable                                 build/pin.o
rt_pin_mode                                       build/pin.o
                                                  build/led.o
                                                  build/button.o
rt_pin_read                                       build/pin.o
                                                  build/led.o
                                                  build/button.o
rt_pin_write                                      build/pin.o
                                                  build/led.o
rt_pipe_close                                     build/pipe.o
rt_pipe_control                                   build/pipe.o
rt_pipe_create                                    build/pipe.o
rt_pipe_delete                                    build/pipe.o
rt_pipe_open                                      build/pipe.o
rt_pipe_read                                      build/pipe.o
rt_pipe_write                                     build/pipe.o
rt_pwm_disable                                    build/rt_drv_pwm.o
                                                  build/beep.o
rt_pwm_enable                                     build/rt_drv_pwm.o
                                                  build/beep.o
rt_pwm_set                                        build/rt_drv_pwm.o
                                                  build/beep.o
rt_rbb_blk_alloc                                  build/ringblk_buf.o
rt_rbb_blk_buf                                    build/ringblk_buf.o
rt_rbb_blk_free                                   build/ringblk_buf.o
rt_rbb_blk_get                                    build/ringblk_buf.o
rt_rbb_blk_put                                    build/ringblk_buf.o
rt_rbb_blk_queue_buf                              build/ringblk_buf.o
rt_rbb_blk_queue_free                             build/ringblk_buf.o
rt_rbb_blk_queue_get                              build/ringblk_buf.o
rt_rbb_blk_queue_len                              build/ringblk_buf.o
rt_rbb_blk_size                                   build/ringblk_buf.o
rt_rbb_create                                     build/ringblk_buf.o
rt_rbb_destroy                                    build/ringblk_buf.o
rt_rbb_get_buf_size                               build/ringblk_buf.o
rt_rbb_init                                       build/ringblk_buf.o
rt_rbb_next_blk_queue_len                         build/ringblk_buf.o
rt_realloc                                        build/mem.o
rt_ringbuffer_create                              build/ringbuffer.o
                                                  build/pipe.o
rt_ringbuffer_data_len                            build/ringbuffer.o
rt_ringbuffer_destroy                             build/ringbuffer.o
                                                  build/pipe.o
rt_ringbuffer_get                                 build/ringbuffer.o
                                                  build/pipe.o
rt_ringbuffer_getchar                             build/ringbuffer.o
rt_ringbuffer_init                                build/ringbuffer.o
rt_ringbuffer_put                                 build/ringbuffer.o
                                                  build/pipe.o
rt_ringbuffer_put_force                           build/ringbuffer.o
rt_ringbuffer_putchar                             build/ringbuffer.o
rt_ringbuffer_putchar_force                       build/ringbuffer.o
rt_ringbuffer_reset                               build/ringbuffer.o
rt_schedule                                       build/scheduler.o
                                                  build/thread.o
                                                  build/ipc.o
                                                  build/workqueue.o
                                                  build/waitqueue.o
                                                  build/dataqueue.o
                                                  build/completion.o
rt_schedule_insert_thread                         build/scheduler.o
                                                  build/thread.o
rt_schedule_remove_thread                         build/scheduler.o
                                                  build/thread.o
rt_scheduler_sethook                              build/scheduler.o
rt_sem_control                                    build/ipc.o
rt_sem_create                                     build/ipc.o
                                                  build/player.o
rt_sem_delete                                     build/ipc.o
                                                  build/player.o
rt_sem_detach                                     build/ipc.o
rt_sem_init                                       build/ipc.o
                                                  build/mem.o
                                                  build/shell.o
                                                  build/workqueue.o
rt_sem_release                                    build/ipc.o
                                                  build/mem.o
                                                  build/shell.o
                                                  build/workqueue.o
                                                  build/player.o
rt_sem_take                                       build/ipc.o
                                                  build/mem.o
                                                  build/shell.o
                                                  build/workqueue.o
                                                  build/player.o
rt_sem_trytake                                    build/ipc.o
                                                  build/workqueue.o
rt_set_errno                                      build/kservice.o
                                                  build/device.o
                                                  build/pipe.o
                                                  build/serial.o
rt_show_version                                   build/kservice.o
                                                  build/components.o
                                                  build/cmd.o
rt_snprintf                                       build/kservice.o
rt_sprintf                                        build/kservice.o
                                                  build/idle.o
rt_strcasecmp                                     build/kservice.o
rt_strcmp                                         build/kservice.o
rt_strdup                                         build/kservice.o
                                                  build/finsh_vm.o
                                                  build/finsh_var.o
rt_strlen                                         build/kservice.o
rt_strncmp                                        build/kservice.o
                                                  build/thread.o
                                                  build/object.o
                                                  build/device.o
rt_strncpy                                        build/kservice.o
                                                  build/object.o
                                                  build/msh.o
rt_strnlen                                        build/kservice.o
rt_strstr                                         build/kservice.o
rt_system_heap_init                               build/mem.o
                                                  build/board.o
rt_system_object_init                             build/object.o
rt_system_scheduler_init                          build/scheduler.o
                                                  build/components.o
rt_system_scheduler_start                         build/scheduler.o
                                                  build/components.o
rt_system_tick_init                               build/clock.o
rt_system_timer_init                              build/timer.o
                                                  build/components.o
rt_system_timer_thread_init                       build/timer.o
                                                  build/components.o
rt_thread_control                                 build/thread.o
                                                  build/ipc.o
rt_thread_create                                  build/thread.o
                                                  build/components.o
                                                  build/shell.o
                                                  build/workqueue.o
                                                  build/player.o
rt_thread_defunct                                 build/scheduler.o
                                                  build/thread.o
                                                  build/idle.o
rt_thread_delay                                   build/thread.o
                                                  build/i2c-bit-ops.o
                                                  build/delay.o
rt_thread_delay_until                             build/thread.o
rt_thread_delete                                  build/thread.o
                                                  build/workqueue.o
rt_thread_detach                                  build/thread.o
rt_thread_exit                                    build/thread.o
rt_thread_find                                    build/thread.o
rt_thread_idle_delhook                            build/idle.o
rt_thread_idle_excute                             build/idle.o
rt_thread_idle_gethandler                         build/idle.o
rt_thread_idle_init                               build/idle.o
                                                  build/components.o
rt_thread_idle_sethook                            build/idle.o
rt_thread_init                                    build/thread.o
                                                  build/idle.o
rt_thread_inited_sethook                          build/thread.o
rt_thread_mdelay                                  build/thread.o
                                                  build/main.o
                                                  build/pcf8574_sample.o
rt_thread_priority_table                          build/scheduler.o
rt_thread_ready_priority_group                    build/scheduler.o
rt_thread_resume                                  build/thread.o
                                                  build/ipc.o
                                                  build/workqueue.o
                                                  build/waitqueue.o
                                                  build/dataqueue.o
                                                  build/completion.o
rt_thread_resume_sethook                          build/thread.o
rt_thread_self                                    build/thread.o
                                                  build/kservice.o
                                                  build/ipc.o
                                                  build/device.o
                                                  build/clock.o
                                                  build/cpuport.o
                                                  build/workqueue.o
                                                  build/waitqueue.o
                                                  build/dataqueue.o
                                                  build/completion.o
rt_thread_sleep                                   build/thread.o
rt_thread_startup                                 build/thread.o
                                                  build/idle.o
                                                  build/components.o
                                                  build/shell.o
                                                  build/workqueue.o
                                                  build/player.o
rt_thread_suspend                                 build/thread.o
                                                  build/ipc.o
                                                  build/workqueue.o
                                                  build/waitqueue.o
                                                  build/dataqueue.o
                                                  build/completion.o
rt_thread_suspend_sethook                         build/thread.o
rt_thread_switch_interrupt_flag                   build/cpuport.o
                                                  build/context_gcc.o
rt_thread_timeout                                 build/thread.o
rt_thread_yield                                   build/thread.o
                                                  build/clock.o
rt_tick_from_millisecond                          build/clock.o
                                                  build/thread.o
                                                  build/waitqueue.o
rt_tick_get                                       build/clock.o
                                                  build/i2c-bit-ops.o
                                                  build/timer.o
                                                  build/thread.o
                                                  build/ipc.o
                                                  build/cmd.o
rt_tick_increase                                  build/clock.o
                                                  build/board.o
rt_tick_set                                       build/clock.o
rt_timer_check                                    build/timer.o
                                                  build/clock.o
rt_timer_control                                  build/timer.o
                                                  build/thread.o
                                                  build/ipc.o
                                                  build/waitqueue.o
                                                  build/dataqueue.o
                                                  build/completion.o
rt_timer_create                                   build/timer.o
                                                  build/button.o
rt_timer_delete                                   build/timer.o
rt_timer_detach                                   build/timer.o
                                                  build/thread.o
                                                  build/workqueue.o
rt_timer_enter_sethook                            build/timer.o
rt_timer_exit_sethook                             build/timer.o
rt_timer_init                                     build/timer.o
                                                  build/thread.o
                                                  build/workqueue.o
rt_timer_next_timeout_tick                        build/timer.o
rt_timer_start                                    build/timer.o
                                                  build/thread.o
                                                  build/ipc.o
                                                  build/workqueue.o
                                                  build/waitqueue.o
                                                  build/dataqueue.o
                                                  build/completion.o
                                                  build/button.o
rt_timer_stop                                     build/timer.o
                                                  build/thread.o
                                                  build/workqueue.o
rt_vsnprintf                                      build/kservice.o
rt_vsprintf                                       build/kservice.o
rt_workqueue_cancel_all_work                      build/workqueue.o
rt_workqueue_cancel_work                          build/workqueue.o
rt_workqueue_cancel_work_sync                     build/workqueue.o
rt_workqueue_create                               build/workqueue.o
rt_workqueue_critical_work                        build/workqueue.o
rt_workqueue_destroy                              build/workqueue.o
rt_workqueue_dowork                               build/workqueue.o
rt_workqueue_submit_work                          build/workqueue.o
rt_wqueue_add                                     build/waitqueue.o
rt_wqueue_remove                                  build/waitqueue.o
rt_wqueue_wait                                    build/waitqueue.o
rt_wqueue_wakeup                                  build/waitqueue.o
rtthread_startup                                  build/components.o
setlocale                                         /opt/gcc-arm-none-eabi-6-2017-q2-update/bin/../lib/gcc/arm-none-eabi/6.3.1/../../../../arm-none-eabi/lib/thumb/v7e-m/fpv4-sp/hard/libc_nano.a(lib_a-locale.o)
shell                                             build/shell.o
software_init_hook                                /opt/gcc-arm-none-eabi-6-2017-q2-update/bin/../lib/gcc/arm-none-eabi/6.3.1/../../../../arm-none-eabi/lib/thumb/v7e-m/fpv4-sp/hard/crt0.o
song1                                             build/main.o
song2                                             build/main.o
song3                                             build/main.o
song4                                             build/main.o
song5                                             build/main.o
strcmp                                            /opt/gcc-arm-none-eabi-6-2017-q2-update/bin/../lib/gcc/arm-none-eabi/6.3.1/../../../../arm-none-eabi/lib/thumb/v7e-m/fpv4-sp/hard/libc_nano.a(lib_a-strcmp.o)
                                                  /opt/gcc-arm-none-eabi-6-2017-q2-update/bin/../lib/gcc/arm-none-eabi/6.3.1/../../../../arm-none-eabi/lib/thumb/v7e-m/fpv4-sp/hard/libc_nano.a(lib_a-locale.o)
                                                  build/finsh_vm.o
                                                  build/finsh_var.o
                                                  build/finsh_token.o
strcpy                                            /opt/gcc-arm-none-eabi-6-2017-q2-update/bin/../lib/gcc/arm-none-eabi/6.3.1/../../../../arm-none-eabi/lib/thumb/v7e-m/fpv4-sp/hard/libc_nano.a(lib_a-strcpy.o)
                                                  build/shell.o
strlen                                            /opt/gcc-arm-none-eabi-6-2017-q2-update/bin/../lib/gcc/arm-none-eabi/6.3.1/../../../../arm-none-eabi/lib/thumb/v7e-m/fpv4-sp/hard/libc_nano.a(lib_a-strlen.o)
                                                  build/shell.o
                                                  build/msh.o
                                                  build/finsh_vm.o
                                                  build/finsh_var.o
                                                  build/finsh_token.o
                                                  build/finsh_node.o
strncmp                                           /opt/gcc-arm-none-eabi-6-2017-q2-update/bin/../lib/gcc/arm-none-eabi/6.3.1/../../../../arm-none-eabi/lib/thumb/v7e-m/fpv4-sp/hard/libc_nano.a(lib_a-strncmp.o)
                                                  build/msh.o
                                                  build/finsh_vm.o
                                                  build/finsh_var.o
                                                  build/cmd.o
strncpy                                           /opt/gcc-arm-none-eabi-6-2017-q2-update/bin/../lib/gcc/arm-none-eabi/6.3.1/../../../../arm-none-eabi/lib/thumb/v7e-m/fpv4-sp/hard/libc_nano.a(lib_a-strncpy.o)
                                                  build/shell.o
                                                  build/finsh_var.o
                                                  build/finsh_token.o
                                                  build/finsh_parser.o
                                                  build/finsh_node.o
strtol                                            /opt/gcc-arm-none-eabi-6-2017-q2-update/bin/../lib/gcc/arm-none-eabi/6.3.1/../../../../arm-none-eabi/lib/thumb/v7e-m/fpv4-sp/hard/libc_nano.a(lib_a-strtol.o)
                                                  /opt/gcc-arm-none-eabi-6-2017-q2-update/bin/../lib/gcc/arm-none-eabi/6.3.1/../../../../arm-none-eabi/lib/thumb/v7e-m/fpv4-sp/hard/libc_nano.a(lib_a-atoi.o)
strtol_l                                          /opt/gcc-arm-none-eabi-6-2017-q2-update/bin/../lib/gcc/arm-none-eabi/6.3.1/../../../../arm-none-eabi/lib/thumb/v7e-m/fpv4-sp/hard/libc_nano.a(lib_a-strtol.o)
text_segment                                      build/finsh_vm.o
                                                  build/finsh_compiler.o
token_get_string                                  build/finsh_token.o
uwTick                                            build/stm32f4xx_hal.o
uwTickFreq                                        build/stm32f4xx_hal.o
uwTickPrio                                        build/stm32f4xx_hal.o
                                                  build/stm32f4xx_hal_rcc_ex.o
                                                  build/stm32f4xx_hal_rcc.o
version                                           build/cmd.o
