ARM GAS  /tmp/ccnu8fiH.s 			page 1


   1              		.cpu cortex-m4
   2              		.eabi_attribute 27, 1
   3              		.eabi_attribute 28, 1
   4              		.eabi_attribute 20, 1
   5              		.eabi_attribute 21, 1
   6              		.eabi_attribute 23, 3
   7              		.eabi_attribute 24, 1
   8              		.eabi_attribute 25, 1
   9              		.eabi_attribute 26, 1
  10              		.eabi_attribute 30, 1
  11              		.eabi_attribute 34, 1
  12              		.eabi_attribute 18, 4
  13              		.file	"stm32f4xx_it.c"
  14              		.text
  15              	.Ltext0:
  16              		.cfi_sections	.debug_frame
  17              		.section	.text.NMI_Handler,"ax",%progbits
  18              		.align	1
  19              		.global	NMI_Handler
  20              		.syntax unified
  21              		.thumb
  22              		.thumb_func
  23              		.fpu fpv4-sp-d16
  25              	NMI_Handler:
  26              	.LFB119:
  27              		.file 1 "USER/stm32f4xx_it.c"
   1:USER/stm32f4xx_it.c **** /**
   2:USER/stm32f4xx_it.c ****   ******************************************************************************
   3:USER/stm32f4xx_it.c ****   * @file    Templates/Src/stm32f4xx_it.c 
   4:USER/stm32f4xx_it.c ****   * @author  MCD Application Team
   5:USER/stm32f4xx_it.c ****   * @brief   Main Interrupt Service Routines.
   6:USER/stm32f4xx_it.c ****   *          This file provides template for all exceptions handler and 
   7:USER/stm32f4xx_it.c ****   *          peripherals interrupt service routine.
   8:USER/stm32f4xx_it.c ****   ******************************************************************************
   9:USER/stm32f4xx_it.c ****   * @attention
  10:USER/stm32f4xx_it.c ****   *
  11:USER/stm32f4xx_it.c ****   * <h2><center>&copy; COPYRIGHT(c) 2017 STMicroelectronics</center></h2>
  12:USER/stm32f4xx_it.c ****   *
  13:USER/stm32f4xx_it.c ****   * Redistribution and use in source and binary forms, with or without modification,
  14:USER/stm32f4xx_it.c ****   * are permitted provided that the following conditions are met:
  15:USER/stm32f4xx_it.c ****   *   1. Redistributions of source code must retain the above copyright notice,
  16:USER/stm32f4xx_it.c ****   *      this list of conditions and the following disclaimer.
  17:USER/stm32f4xx_it.c ****   *   2. Redistributions in binary form must reproduce the above copyright notice,
  18:USER/stm32f4xx_it.c ****   *      this list of conditions and the following disclaimer in the documentation
  19:USER/stm32f4xx_it.c ****   *      and/or other materials provided with the distribution.
  20:USER/stm32f4xx_it.c ****   *   3. Neither the name of STMicroelectronics nor the names of its contributors
  21:USER/stm32f4xx_it.c ****   *      may be used to endorse or promote products derived from this software
  22:USER/stm32f4xx_it.c ****   *      without specific prior written permission.
  23:USER/stm32f4xx_it.c ****   *
  24:USER/stm32f4xx_it.c ****   * THIS SOFTWARE IS PROVIDED BY THE COPYRIGHT HOLDERS AND CONTRIBUTORS "AS IS"
  25:USER/stm32f4xx_it.c ****   * AND ANY EXPRESS OR IMPLIED WARRANTIES, INCLUDING, BUT NOT LIMITED TO, THE
  26:USER/stm32f4xx_it.c ****   * IMPLIED WARRANTIES OF MERCHANTABILITY AND FITNESS FOR A PARTICULAR PURPOSE ARE
  27:USER/stm32f4xx_it.c ****   * DISCLAIMED. IN NO EVENT SHALL THE COPYRIGHT HOLDER OR CONTRIBUTORS BE LIABLE
  28:USER/stm32f4xx_it.c ****   * FOR ANY DIRECT, INDIRECT, INCIDENTAL, SPECIAL, EXEMPLARY, OR CONSEQUENTIAL
  29:USER/stm32f4xx_it.c ****   * DAMAGES (INCLUDING, BUT NOT LIMITED TO, PROCUREMENT OF SUBSTITUTE GOODS OR
  30:USER/stm32f4xx_it.c ****   * SERVICES; LOSS OF USE, DATA, OR PROFITS; OR BUSINESS INTERRUPTION) HOWEVER
  31:USER/stm32f4xx_it.c ****   * CAUSED AND ON ANY THEORY OF LIABILITY, WHETHER IN CONTRACT, STRICT LIABILITY,
ARM GAS  /tmp/ccnu8fiH.s 			page 2


  32:USER/stm32f4xx_it.c ****   * OR TORT (INCLUDING NEGLIGENCE OR OTHERWISE) ARISING IN ANY WAY OUT OF THE USE
  33:USER/stm32f4xx_it.c ****   * OF THIS SOFTWARE, EVEN IF ADVISED OF THE POSSIBILITY OF SUCH DAMAGE.
  34:USER/stm32f4xx_it.c ****   *
  35:USER/stm32f4xx_it.c ****   ******************************************************************************
  36:USER/stm32f4xx_it.c ****   */
  37:USER/stm32f4xx_it.c **** 
  38:USER/stm32f4xx_it.c **** /* Includes ------------------------------------------------------------------*/
  39:USER/stm32f4xx_it.c **** #include "main.h"
  40:USER/stm32f4xx_it.c **** #include "stm32f4xx_it.h"
  41:USER/stm32f4xx_it.c **** 
  42:USER/stm32f4xx_it.c **** /** @addtogroup STM32F4xx_HAL_Examples
  43:USER/stm32f4xx_it.c ****   * @{
  44:USER/stm32f4xx_it.c ****   */
  45:USER/stm32f4xx_it.c **** 
  46:USER/stm32f4xx_it.c **** /** @addtogroup Templates
  47:USER/stm32f4xx_it.c ****   * @{
  48:USER/stm32f4xx_it.c ****   */
  49:USER/stm32f4xx_it.c **** 
  50:USER/stm32f4xx_it.c **** /* Private typedef -----------------------------------------------------------*/
  51:USER/stm32f4xx_it.c **** /* Private define ------------------------------------------------------------*/
  52:USER/stm32f4xx_it.c **** /* Private macro -------------------------------------------------------------*/
  53:USER/stm32f4xx_it.c **** /* Private variables ---------------------------------------------------------*/
  54:USER/stm32f4xx_it.c **** 
  55:USER/stm32f4xx_it.c **** /* Private function prototypes -----------------------------------------------*/
  56:USER/stm32f4xx_it.c **** /* Private functions ---------------------------------------------------------*/
  57:USER/stm32f4xx_it.c **** 
  58:USER/stm32f4xx_it.c **** /******************************************************************************/
  59:USER/stm32f4xx_it.c **** /*            Cortex-M4 Processor Exceptions Handlers                         */
  60:USER/stm32f4xx_it.c **** /******************************************************************************/
  61:USER/stm32f4xx_it.c **** 
  62:USER/stm32f4xx_it.c **** /**
  63:USER/stm32f4xx_it.c ****   * @brief  This function handles NMI exception.
  64:USER/stm32f4xx_it.c ****   * @param  None
  65:USER/stm32f4xx_it.c ****   * @retval None
  66:USER/stm32f4xx_it.c ****   */
  67:USER/stm32f4xx_it.c **** void NMI_Handler(void)
  68:USER/stm32f4xx_it.c **** {
  28              		.loc 1 68 0
  29              		.cfi_startproc
  30              		@ args = 0, pretend = 0, frame = 0
  31              		@ frame_needed = 0, uses_anonymous_args = 0
  32              		@ link register save eliminated.
  33 0000 7047     		bx	lr
  34              		.cfi_endproc
  35              	.LFE119:
  37              		.section	.text.Error_Handler,"ax",%progbits
  38              		.align	1
  39              		.global	Error_Handler
  40              		.syntax unified
  41              		.thumb
  42              		.thumb_func
  43              		.fpu fpv4-sp-d16
  45              	Error_Handler:
  46              	.LFB120:
  69:USER/stm32f4xx_it.c **** }
  70:USER/stm32f4xx_it.c **** void Error_Handler(void)
  71:USER/stm32f4xx_it.c **** {
ARM GAS  /tmp/ccnu8fiH.s 			page 3


  47              		.loc 1 71 0
  48              		.cfi_startproc
  49              		@ args = 0, pretend = 0, frame = 0
  50              		@ frame_needed = 0, uses_anonymous_args = 0
  51              		@ link register save eliminated.
  52 0000 7047     		bx	lr
  53              		.cfi_endproc
  54              	.LFE120:
  56              		.section	.text.MemManage_Handler,"ax",%progbits
  57              		.align	1
  58              		.global	MemManage_Handler
  59              		.syntax unified
  60              		.thumb
  61              		.thumb_func
  62              		.fpu fpv4-sp-d16
  64              	MemManage_Handler:
  65              	.LFB121:
  72:USER/stm32f4xx_it.c **** }
  73:USER/stm32f4xx_it.c **** 
  74:USER/stm32f4xx_it.c **** /**
  75:USER/stm32f4xx_it.c ****   * @brief  This function handles Hard Fault exception.
  76:USER/stm32f4xx_it.c ****   * @param  None
  77:USER/stm32f4xx_it.c ****   * @retval None
  78:USER/stm32f4xx_it.c ****   */
  79:USER/stm32f4xx_it.c **** /*void HardFault_Handler(void)*/
  80:USER/stm32f4xx_it.c **** /*{*/
  81:USER/stm32f4xx_it.c ****   /*[> Go to infinite loop when Hard Fault exception occurs <]*/
  82:USER/stm32f4xx_it.c ****   /*while (1)*/
  83:USER/stm32f4xx_it.c ****   /*{*/
  84:USER/stm32f4xx_it.c ****   /*}*/
  85:USER/stm32f4xx_it.c **** /*}*/
  86:USER/stm32f4xx_it.c **** 
  87:USER/stm32f4xx_it.c **** /**
  88:USER/stm32f4xx_it.c ****   * @brief  This function handles Memory Manage exception.
  89:USER/stm32f4xx_it.c ****   * @param  None
  90:USER/stm32f4xx_it.c ****   * @retval None
  91:USER/stm32f4xx_it.c ****   */
  92:USER/stm32f4xx_it.c **** void MemManage_Handler(void)
  93:USER/stm32f4xx_it.c **** {
  66              		.loc 1 93 0
  67              		.cfi_startproc
  68              		@ Volatile: function does not return.
  69              		@ args = 0, pretend = 0, frame = 0
  70              		@ frame_needed = 0, uses_anonymous_args = 0
  71              		@ link register save eliminated.
  72              	.L4:
  73 0000 FEE7     		b	.L4
  74              		.cfi_endproc
  75              	.LFE121:
  77              		.section	.text.BusFault_Handler,"ax",%progbits
  78              		.align	1
  79              		.global	BusFault_Handler
  80              		.syntax unified
  81              		.thumb
  82              		.thumb_func
  83              		.fpu fpv4-sp-d16
  85              	BusFault_Handler:
ARM GAS  /tmp/ccnu8fiH.s 			page 4


  86              	.LFB122:
  94:USER/stm32f4xx_it.c ****   /* Go to infinite loop when Memory Manage exception occurs */
  95:USER/stm32f4xx_it.c ****   while (1)
  96:USER/stm32f4xx_it.c ****   {
  97:USER/stm32f4xx_it.c ****   }
  98:USER/stm32f4xx_it.c **** }
  99:USER/stm32f4xx_it.c **** 
 100:USER/stm32f4xx_it.c **** /**
 101:USER/stm32f4xx_it.c ****   * @brief  This function handles Bus Fault exception.
 102:USER/stm32f4xx_it.c ****   * @param  None
 103:USER/stm32f4xx_it.c ****   * @retval None
 104:USER/stm32f4xx_it.c ****   */
 105:USER/stm32f4xx_it.c **** void BusFault_Handler(void)
 106:USER/stm32f4xx_it.c **** {
  87              		.loc 1 106 0
  88              		.cfi_startproc
  89              		@ Volatile: function does not return.
  90              		@ args = 0, pretend = 0, frame = 0
  91              		@ frame_needed = 0, uses_anonymous_args = 0
  92              		@ link register save eliminated.
  93              	.L6:
  94 0000 FEE7     		b	.L6
  95              		.cfi_endproc
  96              	.LFE122:
  98              		.section	.text.UsageFault_Handler,"ax",%progbits
  99              		.align	1
 100              		.global	UsageFault_Handler
 101              		.syntax unified
 102              		.thumb
 103              		.thumb_func
 104              		.fpu fpv4-sp-d16
 106              	UsageFault_Handler:
 107              	.LFB123:
 107:USER/stm32f4xx_it.c ****   /* Go to infinite loop when Bus Fault exception occurs */
 108:USER/stm32f4xx_it.c ****   while (1)
 109:USER/stm32f4xx_it.c ****   {
 110:USER/stm32f4xx_it.c ****   }
 111:USER/stm32f4xx_it.c **** }
 112:USER/stm32f4xx_it.c **** 
 113:USER/stm32f4xx_it.c **** /**
 114:USER/stm32f4xx_it.c ****   * @brief  This function handles Usage Fault exception.
 115:USER/stm32f4xx_it.c ****   * @param  None
 116:USER/stm32f4xx_it.c ****   * @retval None
 117:USER/stm32f4xx_it.c ****   */
 118:USER/stm32f4xx_it.c **** void UsageFault_Handler(void)
 119:USER/stm32f4xx_it.c **** {
 108              		.loc 1 119 0
 109              		.cfi_startproc
 110              		@ Volatile: function does not return.
 111              		@ args = 0, pretend = 0, frame = 0
 112              		@ frame_needed = 0, uses_anonymous_args = 0
 113              		@ link register save eliminated.
 114              	.L8:
 115 0000 FEE7     		b	.L8
 116              		.cfi_endproc
 117              	.LFE123:
 119              		.section	.text.SVC_Handler,"ax",%progbits
ARM GAS  /tmp/ccnu8fiH.s 			page 5


 120              		.align	1
 121              		.global	SVC_Handler
 122              		.syntax unified
 123              		.thumb
 124              		.thumb_func
 125              		.fpu fpv4-sp-d16
 127              	SVC_Handler:
 128              	.LFB124:
 120:USER/stm32f4xx_it.c ****   /* Go to infinite loop when Usage Fault exception occurs */
 121:USER/stm32f4xx_it.c ****   while (1)
 122:USER/stm32f4xx_it.c ****   {
 123:USER/stm32f4xx_it.c ****   }
 124:USER/stm32f4xx_it.c **** }
 125:USER/stm32f4xx_it.c **** 
 126:USER/stm32f4xx_it.c **** /**
 127:USER/stm32f4xx_it.c ****   * @brief  This function handles SVCall exception.
 128:USER/stm32f4xx_it.c ****   * @param  None
 129:USER/stm32f4xx_it.c ****   * @retval None
 130:USER/stm32f4xx_it.c ****   */
 131:USER/stm32f4xx_it.c **** void SVC_Handler(void)
 132:USER/stm32f4xx_it.c **** {
 129              		.loc 1 132 0
 130              		.cfi_startproc
 131              		@ args = 0, pretend = 0, frame = 0
 132              		@ frame_needed = 0, uses_anonymous_args = 0
 133              		@ link register save eliminated.
 134 0000 7047     		bx	lr
 135              		.cfi_endproc
 136              	.LFE124:
 138              		.section	.text.DebugMon_Handler,"ax",%progbits
 139              		.align	1
 140              		.global	DebugMon_Handler
 141              		.syntax unified
 142              		.thumb
 143              		.thumb_func
 144              		.fpu fpv4-sp-d16
 146              	DebugMon_Handler:
 147              	.LFB125:
 133:USER/stm32f4xx_it.c **** }
 134:USER/stm32f4xx_it.c **** 
 135:USER/stm32f4xx_it.c **** /**
 136:USER/stm32f4xx_it.c ****   * @brief  This function handles Debug Monitor exception.
 137:USER/stm32f4xx_it.c ****   * @param  None
 138:USER/stm32f4xx_it.c ****   * @retval None
 139:USER/stm32f4xx_it.c ****   */
 140:USER/stm32f4xx_it.c **** void DebugMon_Handler(void)
 141:USER/stm32f4xx_it.c **** {
 148              		.loc 1 141 0
 149              		.cfi_startproc
 150              		@ args = 0, pretend = 0, frame = 0
 151              		@ frame_needed = 0, uses_anonymous_args = 0
 152              		@ link register save eliminated.
 153 0000 7047     		bx	lr
 154              		.cfi_endproc
 155              	.LFE125:
 157              		.text
 158              	.Letext0:
ARM GAS  /tmp/ccnu8fiH.s 			page 6


 159              		.file 2 "/opt/gcc-arm-none-eabi-6-2017-q2-update/arm-none-eabi/include/machine/_default_types.h"
 160              		.file 3 "/opt/gcc-arm-none-eabi-6-2017-q2-update/arm-none-eabi/include/sys/_stdint.h"
 161              		.file 4 "CORE/core_cm4.h"
 162              		.file 5 "USER/system_stm32f4xx.h"
 163              		.file 6 "HALLIB/Inc/stm32f4xx_hal.h"
ARM GAS  /tmp/ccnu8fiH.s 			page 7

