ARM GAS  /tmp/ccgkzRfM.s 			page 1


   1              		.cpu cortex-m4
   2              		.eabi_attribute 27, 1
   3              		.eabi_attribute 28, 1
   4              		.eabi_attribute 20, 1
   5              		.eabi_attribute 21, 1
   6              		.eabi_attribute 23, 3
   7              		.eabi_attribute 24, 1
   8              		.eabi_attribute 25, 1
   9              		.eabi_attribute 26, 1
  10              		.eabi_attribute 30, 1
  11              		.eabi_attribute 34, 1
  12              		.eabi_attribute 18, 4
  13              		.file	"sys.c"
  14              		.text
  15              	.Ltext0:
  16              		.cfi_sections	.debug_frame
  17              		.section	.text.Stm32_Clock_Init,"ax",%progbits
  18              		.align	1
  19              		.global	Stm32_Clock_Init
  20              		.syntax unified
  21              		.thumb
  22              		.thumb_func
  23              		.fpu fpv4-sp-d16
  25              	Stm32_Clock_Init:
  26              	.LFB119:
  27              		.file 1 "SYSTEM/sys/sys.c"
   1:SYSTEM/sys/sys.c **** #include "sys.h"
   2:SYSTEM/sys/sys.c **** //////////////////////////////////////////////////////////////////////////////////	 
   3:SYSTEM/sys/sys.c **** //æœ¬ç¨‹åºåªä¾›å­¦ä¹ ä½¿ç”¨ï¼Œæœªç»ä½œè€…è®¸å¯ï¼Œä¸å¾—ç”¨äºå…¶å®ƒä»»ä½•ç”¨é€”
   4:SYSTEM/sys/sys.c **** //ALIENTEK STM32F429å¼€å‘æ¿
   5:SYSTEM/sys/sys.c **** //ç³»ç»Ÿæ—¶é’Ÿåˆå§‹åŒ–	
   6:SYSTEM/sys/sys.c **** //åŒ…æ‹¬æ—¶é’Ÿè®¾ç½®/ä¸­æ–­ç®¡ç†/GPIOè®¾ç½®ç­‰
   7:SYSTEM/sys/sys.c **** //æ­£ç‚¹åŸå­@ALIENTEK
   8:SYSTEM/sys/sys.c **** //æŠ€æœ¯è®ºå›:www.openedv.com
   9:SYSTEM/sys/sys.c **** //åˆ›å»ºæ—¥æœŸ:2016/1/5
  10:SYSTEM/sys/sys.c **** //ç‰ˆæœ¬ï¼šV1.0
  11:SYSTEM/sys/sys.c **** //ç‰ˆæƒæ‰€æœ‰ï¼Œç›—ç‰ˆå¿…ç©¶ã€‚
  12:SYSTEM/sys/sys.c **** //Copyright(C) å¹¿å·å¸‚æ˜Ÿç¿¼ç”µå­ç§‘æŠ€æœ‰é™å…¬å¸ 2014-2024
  13:SYSTEM/sys/sys.c **** //All rights reserved
  14:SYSTEM/sys/sys.c **** //********************************************************************************
  15:SYSTEM/sys/sys.c **** //ä¿®æ”¹è¯´æ˜
  16:SYSTEM/sys/sys.c **** //æ— 
  17:SYSTEM/sys/sys.c **** ////////////////////////////////////////////////////////////////////////////////// 
  18:SYSTEM/sys/sys.c **** 
  19:SYSTEM/sys/sys.c **** //æ—¶é’Ÿç³»ç»Ÿé…ç½®å‡½æ•°
  20:SYSTEM/sys/sys.c **** //Fvco=Fs*(plln/pllm);
  21:SYSTEM/sys/sys.c **** //SYSCLK=Fvco/pllp=Fs*(plln/(pllm*pllp));
  22:SYSTEM/sys/sys.c **** //Fusb=Fvco/pllq=Fs*(plln/(pllm*pllq));
  23:SYSTEM/sys/sys.c **** 
  24:SYSTEM/sys/sys.c **** //Fvco:VCOé¢‘ç‡
  25:SYSTEM/sys/sys.c **** //SYSCLK:ç³»ç»Ÿæ—¶é’Ÿé¢‘ç‡
  26:SYSTEM/sys/sys.c **** //Fusb:USB,SDIO,RNGç­‰çš„æ—¶é’Ÿé¢‘ç‡
  27:SYSTEM/sys/sys.c **** //Fs:PLLè¾“å…¥æ—¶é’Ÿé¢‘ç‡,å¯ä»¥æ˜¯HSI,HSEç­‰. 
  28:SYSTEM/sys/sys.c **** //plln:ä¸»PLLå€é¢‘ç³»æ•°(PLLå€é¢‘),å–å€¼èŒƒå›´:64~432.
  29:SYSTEM/sys/sys.c **** //pllm:ä¸»PLLå’ŒéŸ³é¢‘PLLåˆ†é¢‘ç³»æ•°(PLLä¹‹å‰çš„åˆ†é¢‘),å–å€¼èŒƒå›´:2~63.
  30:SYSTEM/sys/sys.c **** //pllp:ç³»ç»Ÿæ—¶é’Ÿçš„ä¸»PLLåˆ†é¢‘ç³»æ•°(PLLä¹‹åçš„åˆ†é¢‘),å–å€¼èŒƒå›´:2,4,6,8.(ä»…é™è¿™4ä¸ªå€¼
  31:SYSTEM/sys/sys.c **** //pllq:USB/SDIO/éšæœºæ•°äº§ç”Ÿå™¨ç­‰çš„ä¸»PLLåˆ†é¢‘ç³»æ•°(PLLä¹‹åçš„åˆ†é¢‘),å–å€¼èŒƒå›´:2~15.
ARM GAS  /tmp/ccgkzRfM.s 			page 2


  32:SYSTEM/sys/sys.c **** 
  33:SYSTEM/sys/sys.c **** //å¤–éƒ¨æ™¶æŒ¯ä¸º25Mçš„æ—¶å€™,æ¨èå€¼:plln=360,pllm=25,pllp=2,pllq=8.
  34:SYSTEM/sys/sys.c **** //å¾—åˆ°:Fvco=25*(360/25)=360Mhz
  35:SYSTEM/sys/sys.c **** //     SYSCLK=360/2=180Mhz
  36:SYSTEM/sys/sys.c **** //     Fusb=360/8=45Mhz
  37:SYSTEM/sys/sys.c **** //è¿”å›å€¼:0,æˆåŠŸ;1,å¤±è´¥
  38:SYSTEM/sys/sys.c **** void Stm32_Clock_Init(u32 plln,u32 pllm,u32 pllp,u32 pllq)
  39:SYSTEM/sys/sys.c **** {
  28              		.loc 1 39 0
  29              		.cfi_startproc
  30              		@ args = 0, pretend = 0, frame = 80
  31              		@ frame_needed = 0, uses_anonymous_args = 0
  32              	.LVL0:
  33 0000 70B5     		push	{r4, r5, r6, lr}
  34              	.LCFI0:
  35              		.cfi_def_cfa_offset 16
  36              		.cfi_offset 4, -16
  37              		.cfi_offset 5, -12
  38              		.cfi_offset 6, -8
  39              		.cfi_offset 14, -4
  40 0002 94B0     		sub	sp, sp, #80
  41              	.LCFI1:
  42              		.cfi_def_cfa_offset 96
  43              	.LVL1:
  44              	.LBB2:
  40:SYSTEM/sys/sys.c ****     HAL_StatusTypeDef ret = HAL_OK;
  41:SYSTEM/sys/sys.c ****     RCC_OscInitTypeDef RCC_OscInitStructure; 
  42:SYSTEM/sys/sys.c ****     RCC_ClkInitTypeDef RCC_ClkInitStructure;
  43:SYSTEM/sys/sys.c ****     
  44:SYSTEM/sys/sys.c ****     __HAL_RCC_PWR_CLK_ENABLE(); //ä½¿èƒ½PWRæ—¶é’Ÿ
  45              		.loc 1 44 0
  46 0004 0026     		movs	r6, #0
  47 0006 0196     		str	r6, [sp, #4]
  48 0008 1F4C     		ldr	r4, .L9
  49 000a 256C     		ldr	r5, [r4, #64]
  50 000c 45F08055 		orr	r5, r5, #268435456
  51 0010 2564     		str	r5, [r4, #64]
  52 0012 246C     		ldr	r4, [r4, #64]
  53 0014 04F08054 		and	r4, r4, #268435456
  54 0018 0194     		str	r4, [sp, #4]
  55 001a 019C     		ldr	r4, [sp, #4]
  56              	.LBE2:
  57              	.LBB3:
  45:SYSTEM/sys/sys.c ****     
  46:SYSTEM/sys/sys.c ****     //ä¸‹é¢è¿™ä¸ªè®¾ç½®ç”¨æ¥è®¾ç½®è°ƒå‹å™¨è¾“å‡ºç”µå‹çº§åˆ«ï¼Œä»¥ä¾¿åœ¨å™¨ä»¶æœªä»¥æœ€å¤§é¢‘ç‡
  47:SYSTEM/sys/sys.c ****     //æ—¶ä½¿æ€§èƒ½ä¸åŠŸè€—å®ç°å¹³è¡¡ï¼Œæ­¤åŠŸèƒ½åªæœ‰STM32F42xxå’ŒSTM32F43xxå™¨ä»¶æœ‰ï¼Œ
  48:SYSTEM/sys/sys.c ****     __HAL_PWR_VOLTAGESCALING_CONFIG(PWR_REGULATOR_VOLTAGE_SCALE1);//è®¾ç½®è°ƒå‹å™¨è¾“å‡ºç”µå‹çº§å
  58              		.loc 1 48 0
  59 001c 0296     		str	r6, [sp, #8]
  60 001e 1B4C     		ldr	r4, .L9+4
  61 0020 2568     		ldr	r5, [r4]
  62 0022 45F44045 		orr	r5, r5, #49152
  63 0026 2560     		str	r5, [r4]
  64 0028 2468     		ldr	r4, [r4]
  65 002a 04F44044 		and	r4, r4, #49152
  66 002e 0294     		str	r4, [sp, #8]
  67 0030 029C     		ldr	r4, [sp, #8]
ARM GAS  /tmp/ccgkzRfM.s 			page 3


  68              	.LBE3:
  49:SYSTEM/sys/sys.c ****     
  50:SYSTEM/sys/sys.c ****     RCC_OscInitStructure.OscillatorType=RCC_OSCILLATORTYPE_HSE;    //æ—¶é’Ÿæºä¸ºHSE
  69              		.loc 1 50 0
  70 0032 0124     		movs	r4, #1
  71 0034 0894     		str	r4, [sp, #32]
  51:SYSTEM/sys/sys.c ****     RCC_OscInitStructure.HSEState=RCC_HSE_ON;                      //æ‰“å¼€HSE
  72              		.loc 1 51 0
  73 0036 4FF48034 		mov	r4, #65536
  74 003a 0994     		str	r4, [sp, #36]
  52:SYSTEM/sys/sys.c ****     RCC_OscInitStructure.PLL.PLLState=RCC_PLL_ON;//æ‰“å¼€PLL
  75              		.loc 1 52 0
  76 003c 0224     		movs	r4, #2
  77 003e 0E94     		str	r4, [sp, #56]
  53:SYSTEM/sys/sys.c ****     RCC_OscInitStructure.PLL.PLLSource=RCC_PLLSOURCE_HSE;//PLLæ—¶é’Ÿæºé€‰æ‹©HSE
  78              		.loc 1 53 0
  79 0040 4FF48004 		mov	r4, #4194304
  80 0044 0F94     		str	r4, [sp, #60]
  54:SYSTEM/sys/sys.c ****     RCC_OscInitStructure.PLL.PLLM=pllm; //ä¸»PLLå’ŒéŸ³é¢‘PLLåˆ†é¢‘ç³»æ•°(PLLä¹‹å‰çš„åˆ†é¢‘),å–å€¼
  81              		.loc 1 54 0
  82 0046 1091     		str	r1, [sp, #64]
  55:SYSTEM/sys/sys.c ****     RCC_OscInitStructure.PLL.PLLN=plln; //ä¸»PLLå€é¢‘ç³»æ•°(PLLå€é¢‘),å–å€¼èŒƒå›´:64~432.  
  83              		.loc 1 55 0
  84 0048 1190     		str	r0, [sp, #68]
  56:SYSTEM/sys/sys.c ****     RCC_OscInitStructure.PLL.PLLP=pllp; //ç³»ç»Ÿæ—¶é’Ÿçš„ä¸»PLLåˆ†é¢‘ç³»æ•°(PLLä¹‹åçš„åˆ†é¢‘),å–
  85              		.loc 1 56 0
  86 004a 1292     		str	r2, [sp, #72]
  57:SYSTEM/sys/sys.c ****     RCC_OscInitStructure.PLL.PLLQ=pllq; //USB/SDIO/éšæœºæ•°äº§ç”Ÿå™¨ç­‰çš„ä¸»PLLåˆ†é¢‘ç³»æ•°(PLLä¹
  87              		.loc 1 57 0
  88 004c 1393     		str	r3, [sp, #76]
  58:SYSTEM/sys/sys.c ****     ret=HAL_RCC_OscConfig(&RCC_OscInitStructure);//åˆå§‹åŒ–
  89              		.loc 1 58 0
  90 004e 08A8     		add	r0, sp, #32
  91              	.LVL2:
  92 0050 FFF7FEFF 		bl	HAL_RCC_OscConfig
  93              	.LVL3:
  59:SYSTEM/sys/sys.c **** 	
  60:SYSTEM/sys/sys.c ****     if(ret!=HAL_OK) while(1);
  94              		.loc 1 60 0
  95 0054 00B1     		cbz	r0, .L2
  96              	.L3:
  97 0056 FEE7     		b	.L3
  98              	.L2:
  61:SYSTEM/sys/sys.c ****     
  62:SYSTEM/sys/sys.c ****     ret=HAL_PWREx_EnableOverDrive(); //å¼€å¯Over-DriveråŠŸèƒ½
  99              		.loc 1 62 0
 100 0058 FFF7FEFF 		bl	HAL_PWREx_EnableOverDrive
 101              	.LVL4:
  63:SYSTEM/sys/sys.c ****     if(ret!=HAL_OK) while(1);
 102              		.loc 1 63 0
 103 005c 00B1     		cbz	r0, .L4
 104              	.L5:
 105 005e FEE7     		b	.L5
 106              	.L4:
  64:SYSTEM/sys/sys.c ****     
  65:SYSTEM/sys/sys.c ****     //é€‰ä¸­PLLä½œä¸ºç³»ç»Ÿæ—¶é’Ÿæºå¹¶ä¸”é…ç½®HCLK,PCLK1å’ŒPCLK2
  66:SYSTEM/sys/sys.c ****     RCC_ClkInitStructure.ClockType=(RCC_CLOCKTYPE_SYSCLK|RCC_CLOCKTYPE_HCLK|RCC_CLOCKTYPE_PCLK1|RCC
ARM GAS  /tmp/ccgkzRfM.s 			page 4


 107              		.loc 1 66 0
 108 0060 0F23     		movs	r3, #15
 109 0062 0393     		str	r3, [sp, #12]
  67:SYSTEM/sys/sys.c ****     RCC_ClkInitStructure.SYSCLKSource=RCC_SYSCLKSOURCE_PLLCLK;//è®¾ç½®ç³»ç»Ÿæ—¶é’Ÿæ—¶é’Ÿæºä¸ºPLL
 110              		.loc 1 67 0
 111 0064 0223     		movs	r3, #2
 112 0066 0493     		str	r3, [sp, #16]
  68:SYSTEM/sys/sys.c ****     RCC_ClkInitStructure.AHBCLKDivider=RCC_SYSCLK_DIV1;//AHBåˆ†é¢‘ç³»æ•°ä¸º1
 113              		.loc 1 68 0
 114 0068 0023     		movs	r3, #0
 115 006a 0593     		str	r3, [sp, #20]
  69:SYSTEM/sys/sys.c ****     RCC_ClkInitStructure.APB1CLKDivider=RCC_HCLK_DIV4; //APB1åˆ†é¢‘ç³»æ•°ä¸º4
 116              		.loc 1 69 0
 117 006c 4FF4A053 		mov	r3, #5120
 118 0070 0693     		str	r3, [sp, #24]
  70:SYSTEM/sys/sys.c ****     RCC_ClkInitStructure.APB2CLKDivider=RCC_HCLK_DIV2; //APB2åˆ†é¢‘ç³»æ•°ä¸º2
 119              		.loc 1 70 0
 120 0072 4FF48053 		mov	r3, #4096
 121 0076 0793     		str	r3, [sp, #28]
  71:SYSTEM/sys/sys.c ****     ret=HAL_RCC_ClockConfig(&RCC_ClkInitStructure,FLASH_LATENCY_5);//åŒæ—¶è®¾ç½®FLASHå»¶æ—¶å‘¨æœŸä
 122              		.loc 1 71 0
 123 0078 0521     		movs	r1, #5
 124 007a 03A8     		add	r0, sp, #12
 125              	.LVL5:
 126 007c FFF7FEFF 		bl	HAL_RCC_ClockConfig
 127              	.LVL6:
  72:SYSTEM/sys/sys.c **** 		
  73:SYSTEM/sys/sys.c ****     if(ret!=HAL_OK) while(1);
 128              		.loc 1 73 0
 129 0080 00B1     		cbz	r0, .L1
 130              	.L7:
 131 0082 FEE7     		b	.L7
 132              	.L1:
  74:SYSTEM/sys/sys.c **** }
 133              		.loc 1 74 0
 134 0084 14B0     		add	sp, sp, #80
 135              	.LCFI2:
 136              		.cfi_def_cfa_offset 16
 137              		@ sp needed
 138 0086 70BD     		pop	{r4, r5, r6, pc}
 139              	.L10:
 140              		.align	2
 141              	.L9:
 142 0088 00380240 		.word	1073887232
 143 008c 00700040 		.word	1073770496
 144              		.cfi_endproc
 145              	.LFE119:
 147              		.section	.text.WFI_SET,"ax",%progbits
 148              		.align	1
 149              		.global	WFI_SET
 150              		.syntax unified
 151              		.thumb
 152              		.thumb_func
 153              		.fpu fpv4-sp-d16
 155              	WFI_SET:
 156              	.LFB120:
  75:SYSTEM/sys/sys.c **** 
ARM GAS  /tmp/ccgkzRfM.s 			page 5


  76:SYSTEM/sys/sys.c **** #ifdef  USE_FULL_ASSERT
  77:SYSTEM/sys/sys.c **** //å½“ç¼–è¯‘æç¤ºå‡ºé”™çš„æ—¶å€™æ­¤å‡½æ•°ç”¨æ¥æŠ¥å‘Šé”™è¯¯çš„æ–‡ä»¶å’Œæ‰€åœ¨è¡Œ
  78:SYSTEM/sys/sys.c **** //fileï¼šæŒ‡å‘æºæ–‡ä»¶
  79:SYSTEM/sys/sys.c **** //lineï¼šæŒ‡å‘åœ¨æ–‡ä»¶ä¸­çš„è¡Œæ•°
  80:SYSTEM/sys/sys.c **** void assert_failed(uint8_t* file, uint32_t line)
  81:SYSTEM/sys/sys.c **** { 
  82:SYSTEM/sys/sys.c **** 	while (1)
  83:SYSTEM/sys/sys.c **** 	{
  84:SYSTEM/sys/sys.c **** 	}
  85:SYSTEM/sys/sys.c **** }
  86:SYSTEM/sys/sys.c **** #endif
  87:SYSTEM/sys/sys.c **** 
  88:SYSTEM/sys/sys.c **** //THUMBæŒ‡ä»¤ä¸æ”¯æŒæ±‡ç¼–å†…è”
  89:SYSTEM/sys/sys.c **** //é‡‡ç”¨å¦‚ä¸‹æ–¹æ³•å®ç°æ‰§è¡Œæ±‡ç¼–æŒ‡ä»¤WFI  
  90:SYSTEM/sys/sys.c **** /*__asm void WFI_SET(void)*/
  91:SYSTEM/sys/sys.c **** /*{*/
  92:SYSTEM/sys/sys.c **** 	/*WFI;		  */
  93:SYSTEM/sys/sys.c **** /*}*/
  94:SYSTEM/sys/sys.c **** void WFI_SET(void)
  95:SYSTEM/sys/sys.c **** {
 157              		.loc 1 95 0
 158              		.cfi_startproc
 159              		@ args = 0, pretend = 0, frame = 0
 160              		@ frame_needed = 0, uses_anonymous_args = 0
 161              		@ link register save eliminated.
  96:SYSTEM/sys/sys.c **** 	__ASM volatile("WFI");		  
 162              		.loc 1 96 0
 163              		.syntax unified
 164              	@ 96 "SYSTEM/sys/sys.c" 1
 165 0000 30BF     		WFI
 166              	@ 0 "" 2
 167              		.thumb
 168              		.syntax unified
 169 0002 7047     		bx	lr
 170              		.cfi_endproc
 171              	.LFE120:
 173              		.section	.text.INTX_DISABLE,"ax",%progbits
 174              		.align	1
 175              		.global	INTX_DISABLE
 176              		.syntax unified
 177              		.thumb
 178              		.thumb_func
 179              		.fpu fpv4-sp-d16
 181              	INTX_DISABLE:
 182              	.LFB121:
  97:SYSTEM/sys/sys.c **** }
  98:SYSTEM/sys/sys.c **** //å…³é—­æ‰€æœ‰ä¸­æ–­(ä½†æ˜¯ä¸åŒ…æ‹¬faultå’ŒNMIä¸­æ–­)
  99:SYSTEM/sys/sys.c **** /*__asm void INTX_DISABLE(void)*/
 100:SYSTEM/sys/sys.c **** /*{*/
 101:SYSTEM/sys/sys.c **** 	/*CPSID   I*/
 102:SYSTEM/sys/sys.c **** 	/*BX      LR	  */
 103:SYSTEM/sys/sys.c **** /*}*/
 104:SYSTEM/sys/sys.c **** void INTX_DISABLE(void)
 105:SYSTEM/sys/sys.c **** {
 183              		.loc 1 105 0
 184              		.cfi_startproc
 185              		@ args = 0, pretend = 0, frame = 0
ARM GAS  /tmp/ccgkzRfM.s 			page 6


 186              		@ frame_needed = 0, uses_anonymous_args = 0
 187              		@ link register save eliminated.
 106:SYSTEM/sys/sys.c **** 	__ASM volatile("CPSID I");
 188              		.loc 1 106 0
 189              		.syntax unified
 190              	@ 106 "SYSTEM/sys/sys.c" 1
 191 0000 72B6     		CPSID I
 192              	@ 0 "" 2
 107:SYSTEM/sys/sys.c **** 	__ASM volatile("BX LR");
 193              		.loc 1 107 0
 194              	@ 107 "SYSTEM/sys/sys.c" 1
 195 0002 7047     		BX LR
 196              	@ 0 "" 2
 197              		.thumb
 198              		.syntax unified
 199 0004 7047     		bx	lr
 200              		.cfi_endproc
 201              	.LFE121:
 203              		.section	.text.INTX_ENABLE,"ax",%progbits
 204              		.align	1
 205              		.global	INTX_ENABLE
 206              		.syntax unified
 207              		.thumb
 208              		.thumb_func
 209              		.fpu fpv4-sp-d16
 211              	INTX_ENABLE:
 212              	.LFB122:
 108:SYSTEM/sys/sys.c **** }
 109:SYSTEM/sys/sys.c **** //å¼€å¯æ‰€æœ‰ä¸­æ–­
 110:SYSTEM/sys/sys.c **** /*__asm void INTX_ENABLE(void)*/
 111:SYSTEM/sys/sys.c **** /*{*/
 112:SYSTEM/sys/sys.c **** 	/*CPSIE   I*/
 113:SYSTEM/sys/sys.c **** 	/*BX      LR  */
 114:SYSTEM/sys/sys.c **** /*}*/
 115:SYSTEM/sys/sys.c **** void INTX_ENABLE(void)
 116:SYSTEM/sys/sys.c **** {
 213              		.loc 1 116 0
 214              		.cfi_startproc
 215              		@ args = 0, pretend = 0, frame = 0
 216              		@ frame_needed = 0, uses_anonymous_args = 0
 217              		@ link register save eliminated.
 117:SYSTEM/sys/sys.c **** 	__ASM volatile("CPSIE I");
 218              		.loc 1 117 0
 219              		.syntax unified
 220              	@ 117 "SYSTEM/sys/sys.c" 1
 221 0000 62B6     		CPSIE I
 222              	@ 0 "" 2
 118:SYSTEM/sys/sys.c **** 	__ASM volatile("BX LR");
 223              		.loc 1 118 0
 224              	@ 118 "SYSTEM/sys/sys.c" 1
 225 0002 7047     		BX LR
 226              	@ 0 "" 2
 227              		.thumb
 228              		.syntax unified
 229 0004 7047     		bx	lr
 230              		.cfi_endproc
 231              	.LFE122:
ARM GAS  /tmp/ccgkzRfM.s 			page 7


 233              		.section	.text.MSR_MSP,"ax",%progbits
 234              		.align	1
 235              		.global	MSR_MSP
 236              		.syntax unified
 237              		.thumb
 238              		.thumb_func
 239              		.fpu fpv4-sp-d16
 241              	MSR_MSP:
 242              	.LFB123:
 119:SYSTEM/sys/sys.c **** }
 120:SYSTEM/sys/sys.c **** //è®¾ç½®æ ˆé¡¶åœ°å€
 121:SYSTEM/sys/sys.c **** //addr:æ ˆé¡¶åœ°å€
 122:SYSTEM/sys/sys.c **** /*__asm void MSR_MSP(u32 addr) */
 123:SYSTEM/sys/sys.c **** /*{*/
 124:SYSTEM/sys/sys.c **** 	/*MSR MSP, r0 			//set Main Stack value*/
 125:SYSTEM/sys/sys.c **** 	/*BX r14*/
 126:SYSTEM/sys/sys.c **** /*}*/
 127:SYSTEM/sys/sys.c **** void MSR_MSP(u32 addr) 
 128:SYSTEM/sys/sys.c **** {
 243              		.loc 1 128 0
 244              		.cfi_startproc
 245              		@ args = 0, pretend = 0, frame = 0
 246              		@ frame_needed = 0, uses_anonymous_args = 0
 247              		@ link register save eliminated.
 248              	.LVL7:
 129:SYSTEM/sys/sys.c **** 	__ASM volatile("MSR MSP, r0");
 249              		.loc 1 129 0
 250              		.syntax unified
 251              	@ 129 "SYSTEM/sys/sys.c" 1
 252 0000 80F30888 		MSR MSP, r0
 253              	@ 0 "" 2
 130:SYSTEM/sys/sys.c **** 	__ASM volatile("BX r14");
 254              		.loc 1 130 0
 255              	@ 130 "SYSTEM/sys/sys.c" 1
 256 0004 7047     		BX r14
 257              	@ 0 "" 2
 258              		.thumb
 259              		.syntax unified
 260 0006 7047     		bx	lr
 261              		.cfi_endproc
 262              	.LFE123:
 264              		.text
 265              	.Letext0:
 266              		.file 2 "/opt/gcc-arm-none-eabi-6-2017-q2-update/arm-none-eabi/include/machine/_default_types.h"
 267              		.file 3 "/opt/gcc-arm-none-eabi-6-2017-q2-update/arm-none-eabi/include/sys/_stdint.h"
 268              		.file 4 "CORE/core_cm4.h"
 269              		.file 5 "USER/system_stm32f4xx.h"
 270              		.file 6 "USER/stm32f429xx.h"
 271              		.file 7 "HALLIB/Inc/stm32f4xx_hal_def.h"
 272              		.file 8 "HALLIB/Inc/stm32f4xx_hal_rcc_ex.h"
 273              		.file 9 "HALLIB/Inc/stm32f4xx_hal_rcc.h"
 274              		.file 10 "HALLIB/Inc/stm32f4xx_hal.h"
 275              		.file 11 "HALLIB/Inc/stm32f4xx_hal_pwr_ex.h"
 276              		.file 12 "SYSTEM/sys/sys.h"
ARM GAS  /tmp/ccgkzRfM.s 			page 8

