ARM GAS  /tmp/cc6J2cgq.s 			page 1


   1              		.cpu cortex-m4
   2              		.eabi_attribute 27, 1
   3              		.eabi_attribute 28, 1
   4              		.eabi_attribute 20, 1
   5              		.eabi_attribute 21, 1
   6              		.eabi_attribute 23, 3
   7              		.eabi_attribute 24, 1
   8              		.eabi_attribute 25, 1
   9              		.eabi_attribute 26, 1
  10              		.eabi_attribute 30, 1
  11              		.eabi_attribute 34, 1
  12              		.eabi_attribute 18, 4
  13              		.file	"delay.c"
  14              		.text
  15              	.Ltext0:
  16              		.cfi_sections	.debug_frame
  17              		.section	.text.delay_init,"ax",%progbits
  18              		.align	1
  19              		.global	delay_init
  20              		.syntax unified
  21              		.thumb
  22              		.thumb_func
  23              		.fpu fpv4-sp-d16
  25              	delay_init:
  26              	.LFB119:
  27              		.file 1 "SYSTEM/delay/delay.c"
   1:SYSTEM/delay/delay.c **** #include "delay.h"
   2:SYSTEM/delay/delay.c **** #include "sys.h"
   3:SYSTEM/delay/delay.c **** ////////////////////////////////////////////////////////////////////////////////// 	 
   4:SYSTEM/delay/delay.c **** //Â¶ÇÊûú‰ΩøÁî®ucos,ÂàôÂåÖÊã¨‰∏ãÈù¢ÁöÑÂ§¥Êñá‰ª∂Âç≥ÂèØ.
   5:SYSTEM/delay/delay.c **** #if SYSTEM_SUPPORT_OS
   6:SYSTEM/delay/delay.c **** #include "rtthread.h"					//ucos ‰ΩøÁî®	  
   7:SYSTEM/delay/delay.c **** #endif
   8:SYSTEM/delay/delay.c **** //////////////////////////////////////////////////////////////////////////////////  
   9:SYSTEM/delay/delay.c **** //Êú¨Á®ãÂ∫èÂè™‰æõÂ≠¶‰π†‰ΩøÁî®ÔºåÊú™Áªè‰ΩúËÄÖËÆ∏ÂèØÔºå‰∏çÂæóÁî®‰∫éÂÖ∂ÂÆÉ‰ªª‰ΩïÁî®ÈÄî
  10:SYSTEM/delay/delay.c **** //ALIENTEK STM32F429ÂºÄÂèëÊùø
  11:SYSTEM/delay/delay.c **** //‰ΩøÁî®SysTickÁöÑÊôÆÈÄöËÆ°Êï∞Ê®°ÂºèÂØπÂª∂ËøüËøõË°åÁÆ°ÁêÜ(ÊîØÊåÅucosii/ucosiii)
  12:SYSTEM/delay/delay.c **** //ÂåÖÊã¨delay_us,delay_ms
  13:SYSTEM/delay/delay.c **** //Ê≠£ÁÇπÂéüÂ≠ê@ALIENTEK
  14:SYSTEM/delay/delay.c **** //ÊäÄÊúØËÆ∫Âùõ:www.openedv.com
  15:SYSTEM/delay/delay.c **** //ÂàõÂª∫Êó•Êúü:2015/6/10
  16:SYSTEM/delay/delay.c **** //ÁâàÊú¨ÔºöV1.1
  17:SYSTEM/delay/delay.c **** //ÁâàÊùÉÊâÄÊúâÔºåÁõóÁâàÂøÖÁ©∂„ÄÇ
  18:SYSTEM/delay/delay.c **** //Copyright(C) ÂπøÂ∑ûÂ∏ÇÊòüÁøºÁîµÂ≠êÁßëÊäÄÊúâÈôêÂÖ¨Âè∏ 2014-2024
  19:SYSTEM/delay/delay.c **** //All rights reserved
  20:SYSTEM/delay/delay.c **** //********************************************************************************
  21:SYSTEM/delay/delay.c **** //‰øÆÊîπËØ¥Êòé
  22:SYSTEM/delay/delay.c **** ////////////////////////////////////////////////////////////////////////////////// 
  23:SYSTEM/delay/delay.c **** 
  24:SYSTEM/delay/delay.c **** static u8  fac_us=0;							//usÂª∂Êó∂ÂÄç‰πòÊï∞			   
  25:SYSTEM/delay/delay.c **** static u16 fac_ms=0;							//msÂª∂Êó∂ÂÄç‰πòÊï∞,Âú®os‰∏ã,‰ª£Ë°®ÊØè‰∏™ËäÇÊãçÁöÑmsÊï∞
  26:SYSTEM/delay/delay.c **** 	
  27:SYSTEM/delay/delay.c **** #if SYSTEM_SUPPORT_OS	           //Â¶ÇÊûúSYSTEM_SUPPORT_OSÂÆö‰πâ‰∫Ü,ËØ¥ÊòéË¶ÅÊîØÊåÅOS‰∫Ü(‰∏çÈôê‰∫éU
  28:SYSTEM/delay/delay.c **** 
  29:SYSTEM/delay/delay.c **** 
  30:SYSTEM/delay/delay.c **** //Êú¨‰æãÁ®ã‰ªÖ‰ΩúRT-ThreadÁöÑÊîØÊåÅ,ÂÖ∂‰ªñOS,ËØ∑Ëá™Ë°åÂèÇËÄÉÁùÄÁßªÊ§ç
  31:SYSTEM/delay/delay.c **** //ÊîØÊåÅRT-Thread
ARM GAS  /tmp/cc6J2cgq.s 			page 2


  32:SYSTEM/delay/delay.c **** extern volatile rt_uint8_t rt_interrupt_nest;
  33:SYSTEM/delay/delay.c **** 
  34:SYSTEM/delay/delay.c **** //Âú®board.cÊñá‰ª∂ÁöÑrt_hw_board_init()ÈáåÈù¢Â∞ÜÂÖ∂ÁΩÆ‰∏∫1
  35:SYSTEM/delay/delay.c **** uint8_t OSRunning=0;
  36:SYSTEM/delay/delay.c **** 
  37:SYSTEM/delay/delay.c **** #ifdef 	RT_THREAD_PRIORITY_MAX					         //RT_THREAD_PRIORITY_MAXÂÆö‰πâ‰∫Ü,ËØ¥ÊòéË¶ÅÊîØÊåÅRT-Thr
  38:SYSTEM/delay/delay.c **** #define delay_osrunning		  OSRunning			       //OSÊòØÂê¶ËøêË°åÊ†áËÆ∞,0,‰∏çËøêË°å;1,Âú®ËøêË°å
  39:SYSTEM/delay/delay.c **** #define delay_ostickspersec	RT_TICK_PER_SECOND	//OSÊó∂ÈíüËäÇÊãç,Âç≥ÊØèÁßíË∞ÉÂ∫¶Ê¨°Êï∞
  40:SYSTEM/delay/delay.c **** #define delay_osintnesting 	rt_interrupt_nest		//‰∏≠Êñ≠ÂµåÂ•óÁ∫ßÂà´,Âç≥‰∏≠Êñ≠ÂµåÂ•óÊ¨°Êï∞
  41:SYSTEM/delay/delay.c **** #endif
  42:SYSTEM/delay/delay.c **** 
  43:SYSTEM/delay/delay.c **** 
  44:SYSTEM/delay/delay.c **** //usÁ∫ßÂª∂Êó∂Êó∂,ÂÖ≥Èó≠‰ªªÂä°Ë∞ÉÂ∫¶(Èò≤Ê≠¢ÊâìÊñ≠usÁ∫ßÂª∂Ëøü)
  45:SYSTEM/delay/delay.c **** void delay_osschedlock(void)
  46:SYSTEM/delay/delay.c **** {
  47:SYSTEM/delay/delay.c **** #ifdef RT_THREAD_PRIORITY_MAX
  48:SYSTEM/delay/delay.c **** 	 rt_enter_critical();
  49:SYSTEM/delay/delay.c **** #endif	
  50:SYSTEM/delay/delay.c **** }
  51:SYSTEM/delay/delay.c **** 
  52:SYSTEM/delay/delay.c **** //usÁ∫ßÂª∂Êó∂Êó∂,ÊÅ¢Â§ç‰ªªÂä°Ë∞ÉÂ∫¶
  53:SYSTEM/delay/delay.c **** void delay_osschedunlock(void)
  54:SYSTEM/delay/delay.c **** {	
  55:SYSTEM/delay/delay.c **** #ifdef RT_THREAD_PRIORITY_MAX
  56:SYSTEM/delay/delay.c **** 	  rt_exit_critical();
  57:SYSTEM/delay/delay.c **** #endif	
  58:SYSTEM/delay/delay.c **** }
  59:SYSTEM/delay/delay.c **** 
  60:SYSTEM/delay/delay.c **** //Ë∞ÉÁî®OSËá™Â∏¶ÁöÑÂª∂Êó∂ÂáΩÊï∞Âª∂Êó∂
  61:SYSTEM/delay/delay.c **** //ticks:Âª∂Êó∂ÁöÑËäÇÊãçÊï∞
  62:SYSTEM/delay/delay.c **** void delay_ostimedly(u32 ticks)
  63:SYSTEM/delay/delay.c **** {
  64:SYSTEM/delay/delay.c **** #ifdef RT_THREAD_PRIORITY_MAX
  65:SYSTEM/delay/delay.c **** 	  rt_thread_delay(ticks);
  66:SYSTEM/delay/delay.c **** #endif	
  67:SYSTEM/delay/delay.c **** }
  68:SYSTEM/delay/delay.c ****  
  69:SYSTEM/delay/delay.c **** #endif
  70:SYSTEM/delay/delay.c ****  
  71:SYSTEM/delay/delay.c ****  
  72:SYSTEM/delay/delay.c **** 			   
  73:SYSTEM/delay/delay.c **** //ÂàùÂßãÂåñÂª∂ËøüÂáΩÊï∞
  74:SYSTEM/delay/delay.c **** //ÂΩì‰ΩøÁî®ucosÁöÑÊó∂ÂÄô,Ê≠§ÂáΩÊï∞‰ºöÂàùÂßãÂåñucosÁöÑÊó∂ÈíüËäÇÊãç
  75:SYSTEM/delay/delay.c **** //SYSTICKÁöÑÊó∂ÈíüÂõ∫ÂÆö‰∏∫AHBÊó∂Èíü
  76:SYSTEM/delay/delay.c **** //SYSCLK:Á≥ªÁªüÊó∂ÈíüÈ¢ëÁéá
  77:SYSTEM/delay/delay.c **** void delay_init(u8 SYSCLK)
  78:SYSTEM/delay/delay.c **** {
  28              		.loc 1 78 0
  29              		.cfi_startproc
  30              		@ args = 0, pretend = 0, frame = 0
  31              		@ frame_needed = 0, uses_anonymous_args = 0
  32              	.LVL0:
  33 0000 10B5     		push	{r4, lr}
  34              	.LCFI0:
  35              		.cfi_def_cfa_offset 8
  36              		.cfi_offset 4, -8
  37              		.cfi_offset 14, -4
ARM GAS  /tmp/cc6J2cgq.s 			page 3


  38 0002 0446     		mov	r4, r0
  79:SYSTEM/delay/delay.c **** #if SYSTEM_SUPPORT_OS 						//Â¶ÇÊûúÈúÄË¶ÅÊîØÊåÅOS.
  80:SYSTEM/delay/delay.c **** 	u32 reload;
  81:SYSTEM/delay/delay.c **** #endif
  82:SYSTEM/delay/delay.c ****     HAL_SYSTICK_CLKSourceConfig(SYSTICK_CLKSOURCE_HCLK);//SysTickÈ¢ëÁéá‰∏∫HCLK
  39              		.loc 1 82 0
  40 0004 0420     		movs	r0, #4
  41              	.LVL1:
  42 0006 FFF7FEFF 		bl	HAL_SYSTICK_CLKSourceConfig
  43              	.LVL2:
  83:SYSTEM/delay/delay.c **** 	fac_us=SYSCLK;						//‰∏çËÆ∫ÊòØÂê¶‰ΩøÁî®OS,fac_usÈÉΩÈúÄË¶Å‰ΩøÁî®
  44              		.loc 1 83 0
  45 000a 054B     		ldr	r3, .L3
  46 000c 1C70     		strb	r4, [r3]
  84:SYSTEM/delay/delay.c **** #if SYSTEM_SUPPORT_OS 						//Â¶ÇÊûúÈúÄË¶ÅÊîØÊåÅOS.
  85:SYSTEM/delay/delay.c **** 	reload=SYSCLK;						//ÊØèÁßíÈíüÁöÑËÆ°Êï∞Ê¨°Êï∞ Âçï‰Ωç‰∏∫M	   
  86:SYSTEM/delay/delay.c **** 	reload*=1000000/delay_ostickspersec;	//Ê†πÊçÆdelay_ostickspersecËÆæÂÆöÊ∫¢Âá∫Êó∂Èó¥
  87:SYSTEM/delay/delay.c **** 											//reload‰∏∫24‰ΩçÂØÑÂ≠òÂô®,ÊúÄÂ§ßÂÄº:16777216,Âú®168M‰∏ã,Á∫¶Âêà0.7989sÂ∑¶Âè≥	
  88:SYSTEM/delay/delay.c **** 	fac_ms=1000/delay_ostickspersec;		//‰ª£Ë°®OSÂèØ‰ª•Âª∂Êó∂ÁöÑÊúÄÂ∞ëÂçï‰Ωç	   
  89:SYSTEM/delay/delay.c **** 	SysTick->CTRL|=SysTick_CTRL_TICKINT_Msk;   	//ÂºÄÂêØSYSTICK‰∏≠Êñ≠
  90:SYSTEM/delay/delay.c **** 	SysTick->LOAD=reload; 					//ÊØè1/delay_ostickspersecÁßí‰∏≠Êñ≠‰∏ÄÊ¨°	
  91:SYSTEM/delay/delay.c **** 	SysTick->CTRL|=SysTick_CTRL_ENABLE_Msk; 	//ÂºÄÂêØSYSTICK    
  92:SYSTEM/delay/delay.c **** #else
  93:SYSTEM/delay/delay.c **** 	fac_ms=(u16)fac_us*1000;				//ÈùûOS‰∏ã,‰ª£Ë°®ÊØè‰∏™msÈúÄË¶ÅÁöÑsystickÊó∂ÈíüÊï∞   
  47              		.loc 1 93 0
  48 000e C4EB4413 		rsb	r3, r4, r4, lsl #5
  49 0012 04EB8304 		add	r4, r4, r3, lsl #2
  50 0016 E300     		lsls	r3, r4, #3
  51 0018 024A     		ldr	r2, .L3+4
  52 001a 1380     		strh	r3, [r2]	@ movhi
  53 001c 10BD     		pop	{r4, pc}
  54              	.L4:
  55 001e 00BF     		.align	2
  56              	.L3:
  57 0020 00000000 		.word	.LANCHOR0
  58 0024 00000000 		.word	.LANCHOR1
  59              		.cfi_endproc
  60              	.LFE119:
  62              		.section	.text.delay_us,"ax",%progbits
  63              		.align	1
  64              		.global	delay_us
  65              		.syntax unified
  66              		.thumb
  67              		.thumb_func
  68              		.fpu fpv4-sp-d16
  70              	delay_us:
  71              	.LFB120:
  94:SYSTEM/delay/delay.c **** #endif
  95:SYSTEM/delay/delay.c **** }								    
  96:SYSTEM/delay/delay.c **** 
  97:SYSTEM/delay/delay.c **** #if SYSTEM_SUPPORT_OS 						//Â¶ÇÊûúÈúÄË¶ÅÊîØÊåÅOS.
  98:SYSTEM/delay/delay.c **** //Âª∂Êó∂nus
  99:SYSTEM/delay/delay.c **** //nus:Ë¶ÅÂª∂Êó∂ÁöÑusÊï∞.	
 100:SYSTEM/delay/delay.c **** //nus:0~204522252(ÊúÄÂ§ßÂÄºÂç≥2^32/fac_us@fac_us=21)	    								   
 101:SYSTEM/delay/delay.c **** void delay_us(u32 nus)
 102:SYSTEM/delay/delay.c **** {		
 103:SYSTEM/delay/delay.c **** 	u32 ticks;
ARM GAS  /tmp/cc6J2cgq.s 			page 4


 104:SYSTEM/delay/delay.c **** 	u32 told,tnow,tcnt=0;
 105:SYSTEM/delay/delay.c **** 	u32 reload=SysTick->LOAD;				//LOADÁöÑÂÄº	    	 
 106:SYSTEM/delay/delay.c **** 	ticks=nus*fac_us; 						//ÈúÄË¶ÅÁöÑËäÇÊãçÊï∞ 
 107:SYSTEM/delay/delay.c **** 	delay_osschedlock();					//ÈòªÊ≠¢OSË∞ÉÂ∫¶ÔºåÈò≤Ê≠¢ÊâìÊñ≠usÂª∂Êó∂
 108:SYSTEM/delay/delay.c **** 	told=SysTick->VAL;        				//ÂàöËøõÂÖ•Êó∂ÁöÑËÆ°Êï∞Âô®ÂÄº
 109:SYSTEM/delay/delay.c **** 	while(1)
 110:SYSTEM/delay/delay.c **** 	{
 111:SYSTEM/delay/delay.c **** 		tnow=SysTick->VAL;	
 112:SYSTEM/delay/delay.c **** 		if(tnow!=told)
 113:SYSTEM/delay/delay.c **** 		{	    
 114:SYSTEM/delay/delay.c **** 			if(tnow<told)tcnt+=told-tnow;	//ËøôÈáåÊ≥®ÊÑè‰∏Ä‰∏ãSYSTICKÊòØ‰∏Ä‰∏™ÈÄíÂáèÁöÑËÆ°Êï∞Âô®Â∞±ÂèØ‰ª•‰∫Ü
 115:SYSTEM/delay/delay.c **** 			else tcnt+=reload-tnow+told;	    
 116:SYSTEM/delay/delay.c **** 			told=tnow;
 117:SYSTEM/delay/delay.c **** 			if(tcnt>=ticks)break;			//Êó∂Èó¥Ë∂ÖËøá/Á≠â‰∫éË¶ÅÂª∂ËøüÁöÑÊó∂Èó¥,ÂàôÈÄÄÂá∫.
 118:SYSTEM/delay/delay.c **** 		}  
 119:SYSTEM/delay/delay.c **** 	};
 120:SYSTEM/delay/delay.c **** 	delay_osschedunlock();					//ÊÅ¢Â§çOSË∞ÉÂ∫¶											    
 121:SYSTEM/delay/delay.c **** }  
 122:SYSTEM/delay/delay.c **** //Âª∂Êó∂nms
 123:SYSTEM/delay/delay.c **** //nms:Ë¶ÅÂª∂Êó∂ÁöÑmsÊï∞
 124:SYSTEM/delay/delay.c **** //nms:0~65535
 125:SYSTEM/delay/delay.c **** void delay_ms(u16 nms)
 126:SYSTEM/delay/delay.c **** {	
 127:SYSTEM/delay/delay.c **** 	if(delay_osrunning&&delay_osintnesting==0)//Â¶ÇÊûúOSÂ∑≤ÁªèÂú®Ë∑ë‰∫Ü,Âπ∂‰∏î‰∏çÊòØÂú®‰∏≠Êñ≠ÈáåÈù¢(‰∏
 128:SYSTEM/delay/delay.c **** 	{		 
 129:SYSTEM/delay/delay.c **** 		if(nms>=fac_ms)						//Âª∂Êó∂ÁöÑÊó∂Èó¥Â§ß‰∫éOSÁöÑÊúÄÂ∞ëÊó∂Èó¥Âë®Êúü 
 130:SYSTEM/delay/delay.c **** 		{ 
 131:SYSTEM/delay/delay.c ****    			delay_ostimedly(nms/fac_ms);	//OSÂª∂Êó∂
 132:SYSTEM/delay/delay.c **** 		}
 133:SYSTEM/delay/delay.c **** 		nms%=fac_ms;						//OSÂ∑≤ÁªèÊó†Ê≥ïÊèê‰æõËøô‰πàÂ∞èÁöÑÂª∂Êó∂‰∫Ü,ÈááÁî®ÊôÆÈÄöÊñπÂºèÂª∂Êó∂    
 134:SYSTEM/delay/delay.c **** 	}
 135:SYSTEM/delay/delay.c **** 	delay_us((u32)(nms*1000));				//ÊôÆÈÄöÊñπÂºèÂª∂Êó∂
 136:SYSTEM/delay/delay.c **** }
 137:SYSTEM/delay/delay.c **** #else  
 138:SYSTEM/delay/delay.c **** //‰∏çÁî®osÊó∂
 139:SYSTEM/delay/delay.c **** //Âª∂Êó∂nus
 140:SYSTEM/delay/delay.c **** //nus‰∏∫Ë¶ÅÂª∂Êó∂ÁöÑusÊï∞.	
 141:SYSTEM/delay/delay.c **** //Ê≥®ÊÑè:nusÁöÑÂÄº,‰∏çË¶ÅÂ§ß‰∫é798915us(ÊúÄÂ§ßÂÄºÂç≥2^24/fac_us@fac_us=21)
 142:SYSTEM/delay/delay.c **** void delay_us(u32 nus)
 143:SYSTEM/delay/delay.c **** {		
  72              		.loc 1 143 0
  73              		.cfi_startproc
  74              		@ args = 0, pretend = 0, frame = 0
  75              		@ frame_needed = 0, uses_anonymous_args = 0
  76              		@ link register save eliminated.
  77              	.LVL3:
 144:SYSTEM/delay/delay.c **** 	u32 temp;	    	 
 145:SYSTEM/delay/delay.c **** 	SysTick->LOAD=nus*fac_us; 				//Êó∂Èó¥Âä†ËΩΩ	  		 
  78              		.loc 1 145 0
  79 0000 0C4B     		ldr	r3, .L7
  80 0002 1B78     		ldrb	r3, [r3]	@ zero_extendqisi2
  81 0004 00FB03F0 		mul	r0, r0, r3
  82              	.LVL4:
  83 0008 0B4B     		ldr	r3, .L7+4
  84 000a 5860     		str	r0, [r3, #4]
 146:SYSTEM/delay/delay.c **** 	SysTick->VAL=0x00;        				//Ê∏ÖÁ©∫ËÆ°Êï∞Âô®
  85              		.loc 1 146 0
ARM GAS  /tmp/cc6J2cgq.s 			page 5


  86 000c 0022     		movs	r2, #0
  87 000e 9A60     		str	r2, [r3, #8]
 147:SYSTEM/delay/delay.c **** 	SysTick->CTRL|=SysTick_CTRL_ENABLE_Msk ; //ÂºÄÂßãÂÄíÊï∞ 	 
  88              		.loc 1 147 0
  89 0010 1A68     		ldr	r2, [r3]
  90 0012 42F00102 		orr	r2, r2, #1
  91 0016 1A60     		str	r2, [r3]
  92              	.L6:
 148:SYSTEM/delay/delay.c **** 	do
 149:SYSTEM/delay/delay.c **** 	{
 150:SYSTEM/delay/delay.c **** 		temp=SysTick->CTRL;
  93              		.loc 1 150 0 discriminator 1
  94 0018 074B     		ldr	r3, .L7+4
  95 001a 1B68     		ldr	r3, [r3]
  96              	.LVL5:
 151:SYSTEM/delay/delay.c **** 	}while((temp&0x01)&&!(temp&(1<<16)));	//Á≠âÂæÖÊó∂Èó¥Âà∞Ëææ   
  97              		.loc 1 151 0 discriminator 1
  98 001c 03F00113 		and	r3, r3, #65537
  99              	.LVL6:
 100 0020 012B     		cmp	r3, #1
 101 0022 F9D0     		beq	.L6
 152:SYSTEM/delay/delay.c **** 	SysTick->CTRL&=~SysTick_CTRL_ENABLE_Msk; //ÂÖ≥Èó≠ËÆ°Êï∞Âô®
 102              		.loc 1 152 0
 103 0024 044B     		ldr	r3, .L7+4
 104 0026 1A68     		ldr	r2, [r3]
 105 0028 22F00102 		bic	r2, r2, #1
 106 002c 1A60     		str	r2, [r3]
 153:SYSTEM/delay/delay.c **** 	SysTick->VAL =0X00;       				//Ê∏ÖÁ©∫ËÆ°Êï∞Âô® 
 107              		.loc 1 153 0
 108 002e 0022     		movs	r2, #0
 109 0030 9A60     		str	r2, [r3, #8]
 110 0032 7047     		bx	lr
 111              	.L8:
 112              		.align	2
 113              	.L7:
 114 0034 00000000 		.word	.LANCHOR0
 115 0038 10E000E0 		.word	-536813552
 116              		.cfi_endproc
 117              	.LFE120:
 119              		.section	.text.delay_xms,"ax",%progbits
 120              		.align	1
 121              		.global	delay_xms
 122              		.syntax unified
 123              		.thumb
 124              		.thumb_func
 125              		.fpu fpv4-sp-d16
 127              	delay_xms:
 128              	.LFB121:
 154:SYSTEM/delay/delay.c **** }
 155:SYSTEM/delay/delay.c **** //Âª∂Êó∂nms
 156:SYSTEM/delay/delay.c **** //Ê≥®ÊÑènmsÁöÑËåÉÂõ¥
 157:SYSTEM/delay/delay.c **** //SysTick->LOAD‰∏∫24‰ΩçÂØÑÂ≠òÂô®,ÊâÄ‰ª•,ÊúÄÂ§ßÂª∂Êó∂‰∏∫:
 158:SYSTEM/delay/delay.c **** //nms<=0xffffff*8*1000/SYSCLK
 159:SYSTEM/delay/delay.c **** //SYSCLKÂçï‰Ωç‰∏∫Hz,nmsÂçï‰Ωç‰∏∫ms
 160:SYSTEM/delay/delay.c **** //ÂØπ168MÊù°‰ª∂‰∏ã,nms<=798ms 
 161:SYSTEM/delay/delay.c **** void delay_xms(u16 nms)
 162:SYSTEM/delay/delay.c **** {	 		  	  
ARM GAS  /tmp/cc6J2cgq.s 			page 6


 129              		.loc 1 162 0
 130              		.cfi_startproc
 131              		@ args = 0, pretend = 0, frame = 0
 132              		@ frame_needed = 0, uses_anonymous_args = 0
 133              		@ link register save eliminated.
 134              	.LVL7:
 163:SYSTEM/delay/delay.c **** 	u32 temp;		   
 164:SYSTEM/delay/delay.c **** 	SysTick->LOAD=(u32)nms*fac_ms;			//Êó∂Èó¥Âä†ËΩΩ(SysTick->LOAD‰∏∫24bit)
 135              		.loc 1 164 0
 136 0000 0C4B     		ldr	r3, .L11
 137 0002 1B88     		ldrh	r3, [r3]
 138 0004 00FB03F0 		mul	r0, r0, r3
 139              	.LVL8:
 140 0008 0B4B     		ldr	r3, .L11+4
 141 000a 5860     		str	r0, [r3, #4]
 165:SYSTEM/delay/delay.c **** 	SysTick->VAL =0x00;           			//Ê∏ÖÁ©∫ËÆ°Êï∞Âô®
 142              		.loc 1 165 0
 143 000c 0022     		movs	r2, #0
 144 000e 9A60     		str	r2, [r3, #8]
 166:SYSTEM/delay/delay.c **** 	SysTick->CTRL|=SysTick_CTRL_ENABLE_Msk ;          //ÂºÄÂßãÂÄíÊï∞ 
 145              		.loc 1 166 0
 146 0010 1A68     		ldr	r2, [r3]
 147 0012 42F00102 		orr	r2, r2, #1
 148 0016 1A60     		str	r2, [r3]
 149              	.L10:
 167:SYSTEM/delay/delay.c **** 	do
 168:SYSTEM/delay/delay.c **** 	{
 169:SYSTEM/delay/delay.c **** 		temp=SysTick->CTRL;
 150              		.loc 1 169 0 discriminator 1
 151 0018 074B     		ldr	r3, .L11+4
 152 001a 1B68     		ldr	r3, [r3]
 153              	.LVL9:
 170:SYSTEM/delay/delay.c **** 	}while((temp&0x01)&&!(temp&(1<<16)));	//Á≠âÂæÖÊó∂Èó¥Âà∞Ëææ   
 154              		.loc 1 170 0 discriminator 1
 155 001c 03F00113 		and	r3, r3, #65537
 156              	.LVL10:
 157 0020 012B     		cmp	r3, #1
 158 0022 F9D0     		beq	.L10
 171:SYSTEM/delay/delay.c **** 	SysTick->CTRL&=~SysTick_CTRL_ENABLE_Msk;       //ÂÖ≥Èó≠ËÆ°Êï∞Âô®
 159              		.loc 1 171 0
 160 0024 044B     		ldr	r3, .L11+4
 161 0026 1A68     		ldr	r2, [r3]
 162 0028 22F00102 		bic	r2, r2, #1
 163 002c 1A60     		str	r2, [r3]
 172:SYSTEM/delay/delay.c **** 	SysTick->VAL =0X00;     		  		//Ê∏ÖÁ©∫ËÆ°Êï∞Âô®	  	    
 164              		.loc 1 172 0
 165 002e 0022     		movs	r2, #0
 166 0030 9A60     		str	r2, [r3, #8]
 167 0032 7047     		bx	lr
 168              	.L12:
 169              		.align	2
 170              	.L11:
 171 0034 00000000 		.word	.LANCHOR1
 172 0038 10E000E0 		.word	-536813552
 173              		.cfi_endproc
 174              	.LFE121:
 176              		.section	.text.delay_ms,"ax",%progbits
ARM GAS  /tmp/cc6J2cgq.s 			page 7


 177              		.align	1
 178              		.global	delay_ms
 179              		.syntax unified
 180              		.thumb
 181              		.thumb_func
 182              		.fpu fpv4-sp-d16
 184              	delay_ms:
 185              	.LFB122:
 173:SYSTEM/delay/delay.c **** } 
 174:SYSTEM/delay/delay.c **** //Âª∂Êó∂nms 
 175:SYSTEM/delay/delay.c **** //nms:0~65535
 176:SYSTEM/delay/delay.c **** void delay_ms(u16 nms)
 177:SYSTEM/delay/delay.c **** {	 	 
 186              		.loc 1 177 0
 187              		.cfi_startproc
 188              		@ args = 0, pretend = 0, frame = 0
 189              		@ frame_needed = 0, uses_anonymous_args = 0
 190              	.LVL11:
 191 0000 38B5     		push	{r3, r4, r5, lr}
 192              	.LCFI1:
 193              		.cfi_def_cfa_offset 16
 194              		.cfi_offset 3, -16
 195              		.cfi_offset 4, -12
 196              		.cfi_offset 5, -8
 197              		.cfi_offset 14, -4
 178:SYSTEM/delay/delay.c **** 	u8 repeat=nms/540;						//ËøôÈáåÁî®540,ÊòØËÄÉËôëÂà∞Êüê‰∫õÂÆ¢Êà∑ÂèØËÉΩË∂ÖÈ¢ë‰ΩøÁî®,
 198              		.loc 1 178 0
 199 0002 0C4B     		ldr	r3, .L19
 200 0004 A3FB0023 		umull	r2, r3, r3, r0
 201 0008 5B0A     		lsrs	r3, r3, #9
 202 000a DCB2     		uxtb	r4, r3
 203              	.LVL12:
 179:SYSTEM/delay/delay.c **** 											//ÊØîÂ¶ÇË∂ÖÈ¢ëÂà∞248MÁöÑÊó∂ÂÄô,delay_xmsÊúÄÂ§ßÂè™ËÉΩÂª∂Êó∂541msÂ∑¶Âè≥‰∫Ü
 180:SYSTEM/delay/delay.c **** 	u16 remain=nms%540;
 204              		.loc 1 180 0
 205 000c 4FF40775 		mov	r5, #540
 206 0010 05FB1303 		mls	r3, r5, r3, r0
 207 0014 9DB2     		uxth	r5, r3
 208              	.LVL13:
 181:SYSTEM/delay/delay.c **** 	while(repeat)
 209              		.loc 1 181 0
 210 0016 05E0     		b	.L14
 211              	.LVL14:
 212              	.L15:
 182:SYSTEM/delay/delay.c **** 	{
 183:SYSTEM/delay/delay.c **** 		delay_xms(540);
 213              		.loc 1 183 0
 214 0018 4FF40770 		mov	r0, #540
 215 001c FFF7FEFF 		bl	delay_xms
 216              	.LVL15:
 184:SYSTEM/delay/delay.c **** 		repeat--;
 217              		.loc 1 184 0
 218 0020 013C     		subs	r4, r4, #1
 219              	.LVL16:
 220 0022 E4B2     		uxtb	r4, r4
 221              	.LVL17:
 222              	.L14:
ARM GAS  /tmp/cc6J2cgq.s 			page 8


 181:SYSTEM/delay/delay.c **** 	while(repeat)
 223              		.loc 1 181 0
 224 0024 002C     		cmp	r4, #0
 225 0026 F7D1     		bne	.L15
 185:SYSTEM/delay/delay.c **** 	}
 186:SYSTEM/delay/delay.c **** 	if(remain)delay_xms(remain);
 226              		.loc 1 186 0
 227 0028 05B9     		cbnz	r5, .L18
 228              	.L13:
 229 002a 38BD     		pop	{r3, r4, r5, pc}
 230              	.LVL18:
 231              	.L18:
 232              		.loc 1 186 0 is_stmt 0 discriminator 1
 233 002c 2846     		mov	r0, r5
 234 002e FFF7FEFF 		bl	delay_xms
 235              	.LVL19:
 187:SYSTEM/delay/delay.c **** } 
 236              		.loc 1 187 0 is_stmt 1 discriminator 1
 237 0032 FAE7     		b	.L13
 238              	.L20:
 239              		.align	2
 240              	.L19:
 241 0034 49D6B9F2 		.word	-222702007
 242              		.cfi_endproc
 243              	.LFE122:
 245              		.section	.bss.fac_ms,"aw",%nobits
 246              		.align	1
 247              		.set	.LANCHOR1,. + 0
 250              	fac_ms:
 251 0000 0000     		.space	2
 252              		.section	.bss.fac_us,"aw",%nobits
 253              		.set	.LANCHOR0,. + 0
 256              	fac_us:
 257 0000 00       		.space	1
 258              		.text
 259              	.Letext0:
 260              		.file 2 "/opt/gcc-arm-none-eabi-6-2017-q2-update/arm-none-eabi/include/machine/_default_types.h"
 261              		.file 3 "/opt/gcc-arm-none-eabi-6-2017-q2-update/arm-none-eabi/include/sys/_stdint.h"
 262              		.file 4 "CORE/core_cm4.h"
 263              		.file 5 "USER/system_stm32f4xx.h"
 264              		.file 6 "HALLIB/Inc/stm32f4xx_hal.h"
 265              		.file 7 "SYSTEM/sys/sys.h"
 266              		.file 8 "HALLIB/Inc/stm32f4xx_hal_cortex.h"
ARM GAS  /tmp/cc6J2cgq.s 			page 9

