ARM GAS  /tmp/ccTFczt9.s 			page 1


   1              		.cpu cortex-m4
   2              		.eabi_attribute 27, 1
   3              		.eabi_attribute 28, 1
   4              		.eabi_attribute 20, 1
   5              		.eabi_attribute 21, 1
   6              		.eabi_attribute 23, 3
   7              		.eabi_attribute 24, 1
   8              		.eabi_attribute 25, 1
   9              		.eabi_attribute 26, 1
  10              		.eabi_attribute 30, 1
  11              		.eabi_attribute 34, 1
  12              		.eabi_attribute 18, 4
  13              		.file	"finsh_var.c"
  14              		.text
  15              	.Ltext0:
  16              		.cfi_sections	.debug_frame
  17              		.section	.text.finsh_var_init,"ax",%progbits
  18              		.align	1
  19              		.global	finsh_var_init
  20              		.syntax unified
  21              		.thumb
  22              		.thumb_func
  23              		.fpu fpv4-sp-d16
  25              	finsh_var_init:
  26              	.LFB16:
  27              		.file 1 "rt-thread/components/finsh/finsh_var.c"
   1:rt-thread/components/finsh/finsh_var.c **** /*
   2:rt-thread/components/finsh/finsh_var.c ****  * Copyright (c) 2006-2018, RT-Thread Development Team
   3:rt-thread/components/finsh/finsh_var.c ****  *
   4:rt-thread/components/finsh/finsh_var.c ****  * SPDX-License-Identifier: Apache-2.0
   5:rt-thread/components/finsh/finsh_var.c ****  *
   6:rt-thread/components/finsh/finsh_var.c ****  * Change Logs:
   7:rt-thread/components/finsh/finsh_var.c ****  * Date           Author       Notes
   8:rt-thread/components/finsh/finsh_var.c ****  * 2010-03-22     Bernard      first version
   9:rt-thread/components/finsh/finsh_var.c ****  * 2012-04-27     Bernard      fixed finsh_var_delete issue which
  10:rt-thread/components/finsh/finsh_var.c ****  *                             is found by Grissiom.
  11:rt-thread/components/finsh/finsh_var.c ****  */
  12:rt-thread/components/finsh/finsh_var.c **** #include <finsh.h>
  13:rt-thread/components/finsh/finsh_var.c **** #include "finsh_var.h"
  14:rt-thread/components/finsh/finsh_var.c **** 
  15:rt-thread/components/finsh/finsh_var.c **** struct finsh_var global_variable[FINSH_VARIABLE_MAX];
  16:rt-thread/components/finsh/finsh_var.c **** struct finsh_sysvar_item* global_sysvar_list;
  17:rt-thread/components/finsh/finsh_var.c **** 
  18:rt-thread/components/finsh/finsh_var.c **** int finsh_var_init()
  19:rt-thread/components/finsh/finsh_var.c **** {
  28              		.loc 1 19 0
  29              		.cfi_startproc
  30              		@ args = 0, pretend = 0, frame = 0
  31              		@ frame_needed = 0, uses_anonymous_args = 0
  32 0000 08B5     		push	{r3, lr}
  33              	.LCFI0:
  34              		.cfi_def_cfa_offset 8
  35              		.cfi_offset 3, -8
  36              		.cfi_offset 14, -4
  20:rt-thread/components/finsh/finsh_var.c ****     memset(global_variable, 0, sizeof(global_variable));
  37              		.loc 1 20 0
  38 0002 C022     		movs	r2, #192
ARM GAS  /tmp/ccTFczt9.s 			page 2


  39 0004 0021     		movs	r1, #0
  40 0006 0248     		ldr	r0, .L3
  41 0008 FFF7FEFF 		bl	memset
  42              	.LVL0:
  21:rt-thread/components/finsh/finsh_var.c **** 
  22:rt-thread/components/finsh/finsh_var.c ****     return 0;
  23:rt-thread/components/finsh/finsh_var.c **** }
  43              		.loc 1 23 0
  44 000c 0020     		movs	r0, #0
  45 000e 08BD     		pop	{r3, pc}
  46              	.L4:
  47              		.align	2
  48              	.L3:
  49 0010 00000000 		.word	global_variable
  50              		.cfi_endproc
  51              	.LFE16:
  53              		.section	.text.finsh_var_insert,"ax",%progbits
  54              		.align	1
  55              		.global	finsh_var_insert
  56              		.syntax unified
  57              		.thumb
  58              		.thumb_func
  59              		.fpu fpv4-sp-d16
  61              	finsh_var_insert:
  62              	.LFB17:
  24:rt-thread/components/finsh/finsh_var.c **** 
  25:rt-thread/components/finsh/finsh_var.c **** int finsh_var_insert(const char* name, int type)
  26:rt-thread/components/finsh/finsh_var.c **** {
  63              		.loc 1 26 0
  64              		.cfi_startproc
  65              		@ args = 0, pretend = 0, frame = 0
  66              		@ frame_needed = 0, uses_anonymous_args = 0
  67              	.LVL1:
  68 0000 F8B5     		push	{r3, r4, r5, r6, r7, lr}
  69              	.LCFI1:
  70              		.cfi_def_cfa_offset 24
  71              		.cfi_offset 3, -24
  72              		.cfi_offset 4, -20
  73              		.cfi_offset 5, -16
  74              		.cfi_offset 6, -12
  75              		.cfi_offset 7, -8
  76              		.cfi_offset 14, -4
  77 0002 0646     		mov	r6, r0
  78 0004 0F46     		mov	r7, r1
  79              	.LVL2:
  27:rt-thread/components/finsh/finsh_var.c ****     int i, empty;
  28:rt-thread/components/finsh/finsh_var.c **** 
  29:rt-thread/components/finsh/finsh_var.c ****     empty = -1;
  80              		.loc 1 29 0
  81 0006 4FF0FF35 		mov	r5, #-1
  30:rt-thread/components/finsh/finsh_var.c ****     for (i = 0; i < FINSH_VARIABLE_MAX; i ++)
  82              		.loc 1 30 0
  83 000a 0024     		movs	r4, #0
  84 000c 00E0     		b	.L6
  85              	.LVL3:
  86              	.L8:
  87              		.loc 1 30 0 is_stmt 0 discriminator 2
ARM GAS  /tmp/ccTFczt9.s 			page 3


  88 000e 0134     		adds	r4, r4, #1
  89              	.LVL4:
  90              	.L6:
  91              		.loc 1 30 0 discriminator 1
  92 0010 072C     		cmp	r4, #7
  93 0012 16DC     		bgt	.L13
  31:rt-thread/components/finsh/finsh_var.c ****     {
  32:rt-thread/components/finsh/finsh_var.c ****         /* there is a same name variable exist. */
  33:rt-thread/components/finsh/finsh_var.c ****         if (strncmp(global_variable[i].name, name, FINSH_NAME_MAX) == 0)
  94              		.loc 1 33 0 is_stmt 1
  95 0014 04EB4402 		add	r2, r4, r4, lsl #1
  96 0018 D300     		lsls	r3, r2, #3
  97 001a 1022     		movs	r2, #16
  98 001c 3146     		mov	r1, r6
  99 001e 1248     		ldr	r0, .L14
 100 0020 1844     		add	r0, r0, r3
 101 0022 FFF7FEFF 		bl	strncmp
 102              	.LVL5:
 103 0026 E0B1     		cbz	r0, .L10
  34:rt-thread/components/finsh/finsh_var.c ****             return -1;
  35:rt-thread/components/finsh/finsh_var.c **** 
  36:rt-thread/components/finsh/finsh_var.c ****         if (global_variable[i].type == finsh_type_unknown && empty == -1)
 104              		.loc 1 36 0
 105 0028 04EB4403 		add	r3, r4, r4, lsl #1
 106 002c DA00     		lsls	r2, r3, #3
 107 002e 0E4B     		ldr	r3, .L14
 108 0030 1344     		add	r3, r3, r2
 109 0032 5B7C     		ldrb	r3, [r3, #17]	@ zero_extendqisi2
 110 0034 002B     		cmp	r3, #0
 111 0036 EAD1     		bne	.L8
 112              		.loc 1 36 0 is_stmt 0 discriminator 1
 113 0038 B5F1FF3F 		cmp	r5, #-1
 114 003c E7D1     		bne	.L8
  37:rt-thread/components/finsh/finsh_var.c ****         {
  38:rt-thread/components/finsh/finsh_var.c ****             empty = i;
 115              		.loc 1 38 0 is_stmt 1
 116 003e 2546     		mov	r5, r4
 117              	.LVL6:
 118 0040 E5E7     		b	.L8
 119              	.LVL7:
 120              	.L13:
  39:rt-thread/components/finsh/finsh_var.c ****         }
  40:rt-thread/components/finsh/finsh_var.c ****     }
  41:rt-thread/components/finsh/finsh_var.c **** 
  42:rt-thread/components/finsh/finsh_var.c ****     /* there is no empty entry */
  43:rt-thread/components/finsh/finsh_var.c ****     if (empty == -1) return -1;
 121              		.loc 1 43 0
 122 0042 B5F1FF3F 		cmp	r5, #-1
 123 0046 0AD0     		beq	.L5
  44:rt-thread/components/finsh/finsh_var.c **** 
  45:rt-thread/components/finsh/finsh_var.c ****     /* insert entry */
  46:rt-thread/components/finsh/finsh_var.c ****     strncpy(global_variable[empty].name, name, FINSH_NAME_MAX);
 124              		.loc 1 46 0
 125 0048 6B00     		lsls	r3, r5, #1
 126 004a 2B44     		add	r3, r3, r5
 127 004c DC00     		lsls	r4, r3, #3
 128              	.LVL8:
ARM GAS  /tmp/ccTFczt9.s 			page 4


 129 004e 064B     		ldr	r3, .L14
 130 0050 1C44     		add	r4, r4, r3
 131 0052 1022     		movs	r2, #16
 132 0054 3146     		mov	r1, r6
 133 0056 2046     		mov	r0, r4
 134 0058 FFF7FEFF 		bl	strncpy
 135              	.LVL9:
  47:rt-thread/components/finsh/finsh_var.c ****     global_variable[empty].type = type;
 136              		.loc 1 47 0
 137 005c 6774     		strb	r7, [r4, #17]
 138              	.LVL10:
 139              	.L5:
  48:rt-thread/components/finsh/finsh_var.c **** 
  49:rt-thread/components/finsh/finsh_var.c ****     /* return the offset */
  50:rt-thread/components/finsh/finsh_var.c ****     return empty;
  51:rt-thread/components/finsh/finsh_var.c **** }
 140              		.loc 1 51 0
 141 005e 2846     		mov	r0, r5
 142 0060 F8BD     		pop	{r3, r4, r5, r6, r7, pc}
 143              	.LVL11:
 144              	.L10:
  34:rt-thread/components/finsh/finsh_var.c **** 
 145              		.loc 1 34 0
 146 0062 4FF0FF35 		mov	r5, #-1
 147              	.LVL12:
 148 0066 FAE7     		b	.L5
 149              	.L15:
 150              		.align	2
 151              	.L14:
 152 0068 00000000 		.word	global_variable
 153              		.cfi_endproc
 154              	.LFE17:
 156              		.section	.text.finsh_var_delete,"ax",%progbits
 157              		.align	1
 158              		.global	finsh_var_delete
 159              		.syntax unified
 160              		.thumb
 161              		.thumb_func
 162              		.fpu fpv4-sp-d16
 164              	finsh_var_delete:
 165              	.LFB18:
  52:rt-thread/components/finsh/finsh_var.c **** 
  53:rt-thread/components/finsh/finsh_var.c **** int finsh_var_delete(const char* name)
  54:rt-thread/components/finsh/finsh_var.c **** {
 166              		.loc 1 54 0
 167              		.cfi_startproc
 168              		@ args = 0, pretend = 0, frame = 0
 169              		@ frame_needed = 0, uses_anonymous_args = 0
 170              	.LVL13:
 171 0000 38B5     		push	{r3, r4, r5, lr}
 172              	.LCFI2:
 173              		.cfi_def_cfa_offset 16
 174              		.cfi_offset 3, -16
 175              		.cfi_offset 4, -12
 176              		.cfi_offset 5, -8
 177              		.cfi_offset 14, -4
 178 0002 0546     		mov	r5, r0
ARM GAS  /tmp/ccTFczt9.s 			page 5


 179              	.LVL14:
  55:rt-thread/components/finsh/finsh_var.c ****     int i;
  56:rt-thread/components/finsh/finsh_var.c **** 
  57:rt-thread/components/finsh/finsh_var.c ****     for (i = 0; i < FINSH_VARIABLE_MAX; i ++)
 180              		.loc 1 57 0
 181 0004 0024     		movs	r4, #0
 182              	.LVL15:
 183              	.L17:
 184              		.loc 1 57 0 is_stmt 0 discriminator 1
 185 0006 072C     		cmp	r4, #7
 186 0008 0BDC     		bgt	.L18
  58:rt-thread/components/finsh/finsh_var.c ****     {
  59:rt-thread/components/finsh/finsh_var.c ****         if (strncmp(global_variable[i].name, name, FINSH_NAME_MAX) == 0)
 187              		.loc 1 59 0 is_stmt 1
 188 000a 04EB4402 		add	r2, r4, r4, lsl #1
 189 000e D300     		lsls	r3, r2, #3
 190 0010 1022     		movs	r2, #16
 191 0012 2946     		mov	r1, r5
 192 0014 0C48     		ldr	r0, .L23
 193 0016 1844     		add	r0, r0, r3
 194 0018 FFF7FEFF 		bl	strncmp
 195              	.LVL16:
 196 001c 08B1     		cbz	r0, .L18
  57:rt-thread/components/finsh/finsh_var.c ****     {
 197              		.loc 1 57 0 discriminator 2
 198 001e 0134     		adds	r4, r4, #1
 199              	.LVL17:
 200 0020 F1E7     		b	.L17
 201              	.L18:
  60:rt-thread/components/finsh/finsh_var.c ****             break;
  61:rt-thread/components/finsh/finsh_var.c ****     }
  62:rt-thread/components/finsh/finsh_var.c **** 
  63:rt-thread/components/finsh/finsh_var.c ****     /* can't find variable */
  64:rt-thread/components/finsh/finsh_var.c ****     if (i == FINSH_VARIABLE_MAX) return -1;
 202              		.loc 1 64 0
 203 0022 082C     		cmp	r4, #8
 204 0024 0CD0     		beq	.L21
  65:rt-thread/components/finsh/finsh_var.c **** 
  66:rt-thread/components/finsh/finsh_var.c ****     memset(&global_variable[i], 0, sizeof(struct finsh_var));
 205              		.loc 1 66 0
 206 0026 04EB4404 		add	r4, r4, r4, lsl #1
 207              	.LVL18:
 208 002a E200     		lsls	r2, r4, #3
 209 002c 0649     		ldr	r1, .L23
 210 002e 5318     		adds	r3, r2, r1
 211 0030 0020     		movs	r0, #0
 212 0032 5050     		str	r0, [r2, r1]	@ unaligned
 213 0034 5860     		str	r0, [r3, #4]	@ unaligned
 214 0036 9860     		str	r0, [r3, #8]	@ unaligned
 215 0038 D860     		str	r0, [r3, #12]	@ unaligned
 216 003a 1861     		str	r0, [r3, #16]	@ unaligned
 217 003c 5861     		str	r0, [r3, #20]	@ unaligned
  67:rt-thread/components/finsh/finsh_var.c **** 
  68:rt-thread/components/finsh/finsh_var.c ****     return 0;
 218              		.loc 1 68 0
 219 003e 38BD     		pop	{r3, r4, r5, pc}
 220              	.LVL19:
ARM GAS  /tmp/ccTFczt9.s 			page 6


 221              	.L21:
  64:rt-thread/components/finsh/finsh_var.c **** 
 222              		.loc 1 64 0
 223 0040 4FF0FF30 		mov	r0, #-1
  69:rt-thread/components/finsh/finsh_var.c **** }
 224              		.loc 1 69 0
 225 0044 38BD     		pop	{r3, r4, r5, pc}
 226              	.LVL20:
 227              	.L24:
 228 0046 00BF     		.align	2
 229              	.L23:
 230 0048 00000000 		.word	global_variable
 231              		.cfi_endproc
 232              	.LFE18:
 234              		.section	.text.finsh_var_lookup,"ax",%progbits
 235              		.align	1
 236              		.global	finsh_var_lookup
 237              		.syntax unified
 238              		.thumb
 239              		.thumb_func
 240              		.fpu fpv4-sp-d16
 242              	finsh_var_lookup:
 243              	.LFB19:
  70:rt-thread/components/finsh/finsh_var.c **** 
  71:rt-thread/components/finsh/finsh_var.c **** struct finsh_var* finsh_var_lookup(const char* name)
  72:rt-thread/components/finsh/finsh_var.c **** {
 244              		.loc 1 72 0
 245              		.cfi_startproc
 246              		@ args = 0, pretend = 0, frame = 0
 247              		@ frame_needed = 0, uses_anonymous_args = 0
 248              	.LVL21:
 249 0000 38B5     		push	{r3, r4, r5, lr}
 250              	.LCFI3:
 251              		.cfi_def_cfa_offset 16
 252              		.cfi_offset 3, -16
 253              		.cfi_offset 4, -12
 254              		.cfi_offset 5, -8
 255              		.cfi_offset 14, -4
 256 0002 0546     		mov	r5, r0
 257              	.LVL22:
  73:rt-thread/components/finsh/finsh_var.c ****     int i;
  74:rt-thread/components/finsh/finsh_var.c **** 
  75:rt-thread/components/finsh/finsh_var.c ****     for (i = 0; i < FINSH_VARIABLE_MAX; i ++)
 258              		.loc 1 75 0
 259 0004 0024     		movs	r4, #0
 260              	.LVL23:
 261              	.L26:
 262              		.loc 1 75 0 is_stmt 0 discriminator 1
 263 0006 072C     		cmp	r4, #7
 264 0008 0BDC     		bgt	.L27
  76:rt-thread/components/finsh/finsh_var.c ****     {
  77:rt-thread/components/finsh/finsh_var.c ****         if (strncmp(global_variable[i].name, name, FINSH_NAME_MAX) == 0)
 265              		.loc 1 77 0 is_stmt 1
 266 000a 04EB4402 		add	r2, r4, r4, lsl #1
 267 000e D300     		lsls	r3, r2, #3
 268 0010 1022     		movs	r2, #16
 269 0012 2946     		mov	r1, r5
ARM GAS  /tmp/ccTFczt9.s 			page 7


 270 0014 0848     		ldr	r0, .L32
 271 0016 1844     		add	r0, r0, r3
 272 0018 FFF7FEFF 		bl	strncmp
 273              	.LVL24:
 274 001c 08B1     		cbz	r0, .L27
  75:rt-thread/components/finsh/finsh_var.c ****     {
 275              		.loc 1 75 0 discriminator 2
 276 001e 0134     		adds	r4, r4, #1
 277              	.LVL25:
 278 0020 F1E7     		b	.L26
 279              	.L27:
  78:rt-thread/components/finsh/finsh_var.c ****             break;
  79:rt-thread/components/finsh/finsh_var.c ****     }
  80:rt-thread/components/finsh/finsh_var.c **** 
  81:rt-thread/components/finsh/finsh_var.c ****     /* can't find variable */
  82:rt-thread/components/finsh/finsh_var.c ****     if (i == FINSH_VARIABLE_MAX) return NULL;
 280              		.loc 1 82 0
 281 0022 082C     		cmp	r4, #8
 282 0024 05D0     		beq	.L30
  83:rt-thread/components/finsh/finsh_var.c **** 
  84:rt-thread/components/finsh/finsh_var.c ****     return &global_variable[i];
 283              		.loc 1 84 0
 284 0026 04EB4404 		add	r4, r4, r4, lsl #1
 285              	.LVL26:
 286 002a E000     		lsls	r0, r4, #3
 287 002c 024B     		ldr	r3, .L32
 288 002e 1844     		add	r0, r0, r3
 289 0030 38BD     		pop	{r3, r4, r5, pc}
 290              	.LVL27:
 291              	.L30:
  82:rt-thread/components/finsh/finsh_var.c **** 
 292              		.loc 1 82 0
 293 0032 0020     		movs	r0, #0
  85:rt-thread/components/finsh/finsh_var.c **** }
 294              		.loc 1 85 0
 295 0034 38BD     		pop	{r3, r4, r5, pc}
 296              	.LVL28:
 297              	.L33:
 298 0036 00BF     		.align	2
 299              	.L32:
 300 0038 00000000 		.word	global_variable
 301              		.cfi_endproc
 302              	.LFE19:
 304              		.section	.text.finsh_sysvar_append,"ax",%progbits
 305              		.align	1
 306              		.global	finsh_sysvar_append
 307              		.syntax unified
 308              		.thumb
 309              		.thumb_func
 310              		.fpu fpv4-sp-d16
 312              	finsh_sysvar_append:
 313              	.LFB20:
  86:rt-thread/components/finsh/finsh_var.c **** 
  87:rt-thread/components/finsh/finsh_var.c **** #ifdef RT_USING_HEAP
  88:rt-thread/components/finsh/finsh_var.c **** void finsh_sysvar_append(const char* name, uint8_t type, void* var_addr)
  89:rt-thread/components/finsh/finsh_var.c **** {
 314              		.loc 1 89 0
ARM GAS  /tmp/ccTFczt9.s 			page 8


 315              		.cfi_startproc
 316              		@ args = 0, pretend = 0, frame = 0
 317              		@ frame_needed = 0, uses_anonymous_args = 0
 318              	.LVL29:
 319 0000 F8B5     		push	{r3, r4, r5, r6, r7, lr}
 320              	.LCFI4:
 321              		.cfi_def_cfa_offset 24
 322              		.cfi_offset 3, -24
 323              		.cfi_offset 4, -20
 324              		.cfi_offset 5, -16
 325              		.cfi_offset 6, -12
 326              		.cfi_offset 7, -8
 327              		.cfi_offset 14, -4
 328 0002 0746     		mov	r7, r0
 329 0004 0E46     		mov	r6, r1
 330 0006 1546     		mov	r5, r2
  90:rt-thread/components/finsh/finsh_var.c ****     /* create a sysvar */
  91:rt-thread/components/finsh/finsh_var.c ****     struct finsh_sysvar_item* item;
  92:rt-thread/components/finsh/finsh_var.c **** 
  93:rt-thread/components/finsh/finsh_var.c ****     item = (struct finsh_sysvar_item*) rt_malloc (sizeof(struct finsh_sysvar_item));
 331              		.loc 1 93 0
 332 0008 1020     		movs	r0, #16
 333              	.LVL30:
 334 000a FFF7FEFF 		bl	rt_malloc
 335              	.LVL31:
  94:rt-thread/components/finsh/finsh_var.c ****     if (item != NULL)
 336              		.loc 1 94 0
 337 000e 70B1     		cbz	r0, .L34
 338 0010 0446     		mov	r4, r0
  95:rt-thread/components/finsh/finsh_var.c ****     {
  96:rt-thread/components/finsh/finsh_var.c ****         item->next = NULL;
 339              		.loc 1 96 0
 340 0012 0023     		movs	r3, #0
 341 0014 0360     		str	r3, [r0]
  97:rt-thread/components/finsh/finsh_var.c ****         item->sysvar.name = rt_strdup(name);
 342              		.loc 1 97 0
 343 0016 3846     		mov	r0, r7
 344              	.LVL32:
 345 0018 FFF7FEFF 		bl	rt_strdup
 346              	.LVL33:
 347 001c 6060     		str	r0, [r4, #4]
  98:rt-thread/components/finsh/finsh_var.c ****         item->sysvar.type = type;
 348              		.loc 1 98 0
 349 001e 2672     		strb	r6, [r4, #8]
  99:rt-thread/components/finsh/finsh_var.c ****         item->sysvar.var = var_addr;
 350              		.loc 1 99 0
 351 0020 E560     		str	r5, [r4, #12]
 100:rt-thread/components/finsh/finsh_var.c **** 
 101:rt-thread/components/finsh/finsh_var.c ****         if (global_sysvar_list == NULL)
 352              		.loc 1 101 0
 353 0022 054B     		ldr	r3, .L39
 354 0024 1B68     		ldr	r3, [r3]
 355 0026 1BB1     		cbz	r3, .L38
 102:rt-thread/components/finsh/finsh_var.c ****         {
 103:rt-thread/components/finsh/finsh_var.c ****             global_sysvar_list = item;
 104:rt-thread/components/finsh/finsh_var.c ****         }
 105:rt-thread/components/finsh/finsh_var.c ****         else
ARM GAS  /tmp/ccTFczt9.s 			page 9


 106:rt-thread/components/finsh/finsh_var.c ****         {
 107:rt-thread/components/finsh/finsh_var.c ****             item->next = global_sysvar_list;
 356              		.loc 1 107 0
 357 0028 2360     		str	r3, [r4]
 108:rt-thread/components/finsh/finsh_var.c ****             global_sysvar_list = item;
 358              		.loc 1 108 0
 359 002a 034B     		ldr	r3, .L39
 360 002c 1C60     		str	r4, [r3]
 361              	.LVL34:
 362              	.L34:
 363 002e F8BD     		pop	{r3, r4, r5, r6, r7, pc}
 364              	.LVL35:
 365              	.L38:
 103:rt-thread/components/finsh/finsh_var.c ****         }
 366              		.loc 1 103 0
 367 0030 014B     		ldr	r3, .L39
 368 0032 1C60     		str	r4, [r3]
 369 0034 F8BD     		pop	{r3, r4, r5, r6, r7, pc}
 370              	.LVL36:
 371              	.L40:
 372 0036 00BF     		.align	2
 373              	.L39:
 374 0038 00000000 		.word	global_sysvar_list
 375              		.cfi_endproc
 376              	.LFE20:
 378              		.section	.text.finsh_sysvar_lookup,"ax",%progbits
 379              		.align	1
 380              		.global	finsh_sysvar_lookup
 381              		.syntax unified
 382              		.thumb
 383              		.thumb_func
 384              		.fpu fpv4-sp-d16
 386              	finsh_sysvar_lookup:
 387              	.LFB21:
 109:rt-thread/components/finsh/finsh_var.c ****         }
 110:rt-thread/components/finsh/finsh_var.c ****     }
 111:rt-thread/components/finsh/finsh_var.c **** }
 112:rt-thread/components/finsh/finsh_var.c **** #endif
 113:rt-thread/components/finsh/finsh_var.c **** 
 114:rt-thread/components/finsh/finsh_var.c **** struct finsh_sysvar* finsh_sysvar_lookup(const char* name)
 115:rt-thread/components/finsh/finsh_var.c **** {
 388              		.loc 1 115 0
 389              		.cfi_startproc
 390              		@ args = 0, pretend = 0, frame = 0
 391              		@ frame_needed = 0, uses_anonymous_args = 0
 392              	.LVL37:
 393 0000 38B5     		push	{r3, r4, r5, lr}
 394              	.LCFI5:
 395              		.cfi_def_cfa_offset 16
 396              		.cfi_offset 3, -16
 397              		.cfi_offset 4, -12
 398              		.cfi_offset 5, -8
 399              		.cfi_offset 14, -4
 400 0002 0546     		mov	r5, r0
 116:rt-thread/components/finsh/finsh_var.c ****     struct finsh_sysvar* index;
 117:rt-thread/components/finsh/finsh_var.c ****     struct finsh_sysvar_item* item;
 118:rt-thread/components/finsh/finsh_var.c **** 
ARM GAS  /tmp/ccTFczt9.s 			page 10


 119:rt-thread/components/finsh/finsh_var.c ****     for (index = _sysvar_table_begin;
 401              		.loc 1 119 0
 402 0004 0E4B     		ldr	r3, .L51
 403 0006 1C68     		ldr	r4, [r3]
 404              	.LVL38:
 405              	.L42:
 120:rt-thread/components/finsh/finsh_var.c ****          index < _sysvar_table_end;
 406              		.loc 1 120 0 discriminator 1
 407 0008 0E4B     		ldr	r3, .L51+4
 408 000a 1B68     		ldr	r3, [r3]
 119:rt-thread/components/finsh/finsh_var.c ****          index < _sysvar_table_end;
 409              		.loc 1 119 0 discriminator 1
 410 000c 9C42     		cmp	r4, r3
 411 000e 06D2     		bcs	.L49
 121:rt-thread/components/finsh/finsh_var.c ****          FINSH_NEXT_SYSVAR(index))
 122:rt-thread/components/finsh/finsh_var.c ****     {
 123:rt-thread/components/finsh/finsh_var.c ****         if (strcmp(index->name, name) == 0)
 412              		.loc 1 123 0
 413 0010 2946     		mov	r1, r5
 414 0012 2068     		ldr	r0, [r4]
 415 0014 FFF7FEFF 		bl	strcmp
 416              	.LVL39:
 417 0018 80B1     		cbz	r0, .L41
 121:rt-thread/components/finsh/finsh_var.c ****          FINSH_NEXT_SYSVAR(index))
 418              		.loc 1 121 0
 419 001a 0C34     		adds	r4, r4, #12
 420              	.LVL40:
 421 001c F4E7     		b	.L42
 422              	.L49:
 124:rt-thread/components/finsh/finsh_var.c ****             return index;
 125:rt-thread/components/finsh/finsh_var.c ****     }
 126:rt-thread/components/finsh/finsh_var.c **** 
 127:rt-thread/components/finsh/finsh_var.c ****     /* find in sysvar list */
 128:rt-thread/components/finsh/finsh_var.c ****     item = global_sysvar_list;
 423              		.loc 1 128 0
 424 001e 0A4B     		ldr	r3, .L51+8
 425 0020 1C68     		ldr	r4, [r3]
 426              	.LVL41:
 427              	.L45:
 129:rt-thread/components/finsh/finsh_var.c ****     while (item != NULL)
 428              		.loc 1 129 0
 429 0022 5CB1     		cbz	r4, .L41
 130:rt-thread/components/finsh/finsh_var.c ****     {
 131:rt-thread/components/finsh/finsh_var.c ****         if (strncmp(item->sysvar.name, name, strlen(name)) == 0)
 430              		.loc 1 131 0
 431 0024 2846     		mov	r0, r5
 432 0026 FFF7FEFF 		bl	strlen
 433              	.LVL42:
 434 002a 0246     		mov	r2, r0
 435 002c 2946     		mov	r1, r5
 436 002e 6068     		ldr	r0, [r4, #4]
 437 0030 FFF7FEFF 		bl	strncmp
 438              	.LVL43:
 439 0034 08B1     		cbz	r0, .L50
 132:rt-thread/components/finsh/finsh_var.c ****         {
 133:rt-thread/components/finsh/finsh_var.c ****             return &(item->sysvar);
 134:rt-thread/components/finsh/finsh_var.c ****         }
ARM GAS  /tmp/ccTFczt9.s 			page 11


 135:rt-thread/components/finsh/finsh_var.c **** 
 136:rt-thread/components/finsh/finsh_var.c ****         /* move to next item */
 137:rt-thread/components/finsh/finsh_var.c ****         item = item->next;
 440              		.loc 1 137 0
 441 0036 2468     		ldr	r4, [r4]
 442              	.LVL44:
 443 0038 F3E7     		b	.L45
 444              	.L50:
 133:rt-thread/components/finsh/finsh_var.c ****         }
 445              		.loc 1 133 0
 446 003a 0434     		adds	r4, r4, #4
 447              	.LVL45:
 448              	.L41:
 138:rt-thread/components/finsh/finsh_var.c ****     }
 139:rt-thread/components/finsh/finsh_var.c **** 
 140:rt-thread/components/finsh/finsh_var.c ****     /* can't find variable */
 141:rt-thread/components/finsh/finsh_var.c ****     return NULL;
 142:rt-thread/components/finsh/finsh_var.c **** }
 449              		.loc 1 142 0
 450 003c 2046     		mov	r0, r4
 451 003e 38BD     		pop	{r3, r4, r5, pc}
 452              	.LVL46:
 453              	.L52:
 454              		.align	2
 455              	.L51:
 456 0040 00000000 		.word	_sysvar_table_begin
 457 0044 00000000 		.word	_sysvar_table_end
 458 0048 00000000 		.word	global_sysvar_list
 459              		.cfi_endproc
 460              	.LFE21:
 462              		.comm	global_sysvar_list,4,4
 463              		.comm	global_variable,192,4
 464              		.text
 465              	.Letext0:
 466              		.file 2 "rt-thread/include/rtdef.h"
 467              		.file 3 "/opt/gcc-arm-none-eabi-6-2017-q2-update/arm-none-eabi/include/machine/_default_types.h"
 468              		.file 4 "/opt/gcc-arm-none-eabi-6-2017-q2-update/arm-none-eabi/include/sys/lock.h"
 469              		.file 5 "/opt/gcc-arm-none-eabi-6-2017-q2-update/arm-none-eabi/include/sys/_types.h"
 470              		.file 6 "/opt/gcc-arm-none-eabi-6-2017-q2-update/lib/gcc/arm-none-eabi/6.3.1/include/stddef.h"
 471              		.file 7 "/opt/gcc-arm-none-eabi-6-2017-q2-update/arm-none-eabi/include/sys/reent.h"
 472              		.file 8 "/opt/gcc-arm-none-eabi-6-2017-q2-update/arm-none-eabi/include/sys/_stdint.h"
 473              		.file 9 "/opt/gcc-arm-none-eabi-6-2017-q2-update/arm-none-eabi/include/time.h"
 474              		.file 10 "/opt/gcc-arm-none-eabi-6-2017-q2-update/arm-none-eabi/include/sys/errno.h"
 475              		.file 11 "rt-thread/include/rtthread.h"
 476              		.file 12 "rt-thread/components/finsh/finsh_api.h"
 477              		.file 13 "/opt/gcc-arm-none-eabi-6-2017-q2-update/arm-none-eabi/include/ctype.h"
 478              		.file 14 "/opt/gcc-arm-none-eabi-6-2017-q2-update/arm-none-eabi/include/stdlib.h"
 479              		.file 15 "rt-thread/components/finsh/finsh.h"
 480              		.file 16 "rt-thread/components/finsh/finsh_var.h"
 481              		.file 17 "/opt/gcc-arm-none-eabi-6-2017-q2-update/arm-none-eabi/include/string.h"
ARM GAS  /tmp/ccTFczt9.s 			page 12

