ARM GAS  /tmp/cccwEpxI.s 			page 1


   1              		.cpu cortex-m4
   2              		.eabi_attribute 27, 1
   3              		.eabi_attribute 28, 1
   4              		.eabi_attribute 20, 1
   5              		.eabi_attribute 21, 1
   6              		.eabi_attribute 23, 3
   7              		.eabi_attribute 24, 1
   8              		.eabi_attribute 25, 1
   9              		.eabi_attribute 26, 1
  10              		.eabi_attribute 30, 1
  11              		.eabi_attribute 34, 1
  12              		.eabi_attribute 18, 4
  13              		.file	"finsh_compiler.c"
  14              		.text
  15              	.Ltext0:
  16              		.cfi_sections	.debug_frame
  17              		.section	.text.finsh_type_check,"ax",%progbits
  18              		.align	1
  19              		.syntax unified
  20              		.thumb
  21              		.thumb_func
  22              		.fpu fpv4-sp-d16
  24              	finsh_type_check:
  25              	.LFB17:
  26              		.file 1 "rt-thread/components/finsh/finsh_compiler.c"
   1:rt-thread/components/finsh/finsh_compiler.c **** /*
   2:rt-thread/components/finsh/finsh_compiler.c ****  * Copyright (c) 2006-2018, RT-Thread Development Team
   3:rt-thread/components/finsh/finsh_compiler.c ****  *
   4:rt-thread/components/finsh/finsh_compiler.c ****  * SPDX-License-Identifier: Apache-2.0
   5:rt-thread/components/finsh/finsh_compiler.c ****  *
   6:rt-thread/components/finsh/finsh_compiler.c ****  * Change Logs:
   7:rt-thread/components/finsh/finsh_compiler.c ****  * Date           Author       Notes
   8:rt-thread/components/finsh/finsh_compiler.c ****  * 2010-03-22     Bernard      first version
   9:rt-thread/components/finsh/finsh_compiler.c ****  */
  10:rt-thread/components/finsh/finsh_compiler.c **** #include <finsh.h>
  11:rt-thread/components/finsh/finsh_compiler.c **** 
  12:rt-thread/components/finsh/finsh_compiler.c **** #include "finsh_node.h"
  13:rt-thread/components/finsh/finsh_compiler.c **** #include "finsh_error.h"
  14:rt-thread/components/finsh/finsh_compiler.c **** #include "finsh_var.h"
  15:rt-thread/components/finsh/finsh_compiler.c **** #include "finsh_ops.h"
  16:rt-thread/components/finsh/finsh_compiler.c **** 
  17:rt-thread/components/finsh/finsh_compiler.c **** union finsh_value*  finsh_compile_sp;       /* stack pointer */
  18:rt-thread/components/finsh/finsh_compiler.c **** uint8_t*            finsh_compile_pc;       /* PC */
  19:rt-thread/components/finsh/finsh_compiler.c **** 
  20:rt-thread/components/finsh/finsh_compiler.c **** #define finsh_code_byte(x)  do { *finsh_compile_pc = (x); finsh_compile_pc ++; } while(0)
  21:rt-thread/components/finsh/finsh_compiler.c **** #define finsh_code_word(x)  do { FINSH_SET16(finsh_compile_pc, x); finsh_compile_pc +=2; } while(0)
  22:rt-thread/components/finsh/finsh_compiler.c **** #define finsh_code_dword(x) do { FINSH_SET32(finsh_compile_pc, x); finsh_compile_pc +=4; } while(0)
  23:rt-thread/components/finsh/finsh_compiler.c **** 
  24:rt-thread/components/finsh/finsh_compiler.c **** static int finsh_compile(struct finsh_node* node)
  25:rt-thread/components/finsh/finsh_compiler.c **** {
  26:rt-thread/components/finsh/finsh_compiler.c ****     if (node != NULL)
  27:rt-thread/components/finsh/finsh_compiler.c ****     {
  28:rt-thread/components/finsh/finsh_compiler.c ****         /* compile child node */
  29:rt-thread/components/finsh/finsh_compiler.c ****         if (finsh_node_child(node) != NULL)
  30:rt-thread/components/finsh/finsh_compiler.c ****             finsh_compile(finsh_node_child(node));
  31:rt-thread/components/finsh/finsh_compiler.c **** 
  32:rt-thread/components/finsh/finsh_compiler.c ****         /* compile current node */
ARM GAS  /tmp/cccwEpxI.s 			page 2


  33:rt-thread/components/finsh/finsh_compiler.c ****         switch (node->node_type)
  34:rt-thread/components/finsh/finsh_compiler.c ****         {
  35:rt-thread/components/finsh/finsh_compiler.c ****         case FINSH_NODE_ID:
  36:rt-thread/components/finsh/finsh_compiler.c ****             {
  37:rt-thread/components/finsh/finsh_compiler.c ****                 /* identifier::syscall */
  38:rt-thread/components/finsh/finsh_compiler.c ****                 if (node->idtype & FINSH_IDTYPE_SYSCALL)
  39:rt-thread/components/finsh/finsh_compiler.c ****                 {
  40:rt-thread/components/finsh/finsh_compiler.c ****                     /* load address */
  41:rt-thread/components/finsh/finsh_compiler.c ****                     finsh_code_byte(FINSH_OP_LD_DWORD);
  42:rt-thread/components/finsh/finsh_compiler.c ****                     finsh_code_dword((long)node->id.syscall->func);
  43:rt-thread/components/finsh/finsh_compiler.c ****                 }
  44:rt-thread/components/finsh/finsh_compiler.c ****                 /* identifier::sysvar */
  45:rt-thread/components/finsh/finsh_compiler.c ****                 else if (node->idtype & FINSH_IDTYPE_SYSVAR)
  46:rt-thread/components/finsh/finsh_compiler.c ****                 {
  47:rt-thread/components/finsh/finsh_compiler.c ****                     struct finsh_sysvar* sysvar;
  48:rt-thread/components/finsh/finsh_compiler.c **** 
  49:rt-thread/components/finsh/finsh_compiler.c ****                     sysvar = node->id.sysvar;
  50:rt-thread/components/finsh/finsh_compiler.c ****                     if (sysvar != NULL)
  51:rt-thread/components/finsh/finsh_compiler.c ****                     {
  52:rt-thread/components/finsh/finsh_compiler.c ****                         switch (sysvar->type)
  53:rt-thread/components/finsh/finsh_compiler.c ****                         {
  54:rt-thread/components/finsh/finsh_compiler.c ****                         case finsh_type_char:
  55:rt-thread/components/finsh/finsh_compiler.c ****                         case finsh_type_uchar:
  56:rt-thread/components/finsh/finsh_compiler.c ****                             if (node->idtype & FINSH_IDTYPE_ADDRESS)
  57:rt-thread/components/finsh/finsh_compiler.c ****                             {
  58:rt-thread/components/finsh/finsh_compiler.c ****                                 /* load address */
  59:rt-thread/components/finsh/finsh_compiler.c ****                                 finsh_code_byte(FINSH_OP_LD_DWORD);
  60:rt-thread/components/finsh/finsh_compiler.c ****                             }
  61:rt-thread/components/finsh/finsh_compiler.c ****                             else
  62:rt-thread/components/finsh/finsh_compiler.c ****                             {
  63:rt-thread/components/finsh/finsh_compiler.c ****                                 /* load value */
  64:rt-thread/components/finsh/finsh_compiler.c ****                                 finsh_code_byte(FINSH_OP_LD_VALUE_BYTE);
  65:rt-thread/components/finsh/finsh_compiler.c ****                             }
  66:rt-thread/components/finsh/finsh_compiler.c **** 
  67:rt-thread/components/finsh/finsh_compiler.c ****                             finsh_code_dword((long)(sysvar->var));
  68:rt-thread/components/finsh/finsh_compiler.c ****                             break;
  69:rt-thread/components/finsh/finsh_compiler.c **** 
  70:rt-thread/components/finsh/finsh_compiler.c ****                         case finsh_type_short:
  71:rt-thread/components/finsh/finsh_compiler.c ****                         case finsh_type_ushort:
  72:rt-thread/components/finsh/finsh_compiler.c ****                             if (node->idtype & FINSH_IDTYPE_ADDRESS)
  73:rt-thread/components/finsh/finsh_compiler.c ****                             {
  74:rt-thread/components/finsh/finsh_compiler.c ****                                 /* load address */
  75:rt-thread/components/finsh/finsh_compiler.c ****                                 finsh_code_byte(FINSH_OP_LD_DWORD);
  76:rt-thread/components/finsh/finsh_compiler.c ****                             }
  77:rt-thread/components/finsh/finsh_compiler.c ****                             else
  78:rt-thread/components/finsh/finsh_compiler.c ****                             {
  79:rt-thread/components/finsh/finsh_compiler.c ****                                 /* load value */
  80:rt-thread/components/finsh/finsh_compiler.c ****                                 finsh_code_byte(FINSH_OP_LD_VALUE_WORD);
  81:rt-thread/components/finsh/finsh_compiler.c ****                             }
  82:rt-thread/components/finsh/finsh_compiler.c **** 
  83:rt-thread/components/finsh/finsh_compiler.c ****                             finsh_code_dword((long)(sysvar->var));
  84:rt-thread/components/finsh/finsh_compiler.c ****                             break;
  85:rt-thread/components/finsh/finsh_compiler.c **** 
  86:rt-thread/components/finsh/finsh_compiler.c ****                         case finsh_type_int:
  87:rt-thread/components/finsh/finsh_compiler.c ****                         case finsh_type_uint:
  88:rt-thread/components/finsh/finsh_compiler.c ****                         case finsh_type_long:
  89:rt-thread/components/finsh/finsh_compiler.c ****                         case finsh_type_ulong:
ARM GAS  /tmp/cccwEpxI.s 			page 3


  90:rt-thread/components/finsh/finsh_compiler.c ****                         case finsh_type_charp:
  91:rt-thread/components/finsh/finsh_compiler.c ****                         case finsh_type_shortp:
  92:rt-thread/components/finsh/finsh_compiler.c ****                         case finsh_type_intp:
  93:rt-thread/components/finsh/finsh_compiler.c ****                         case finsh_type_longp:
  94:rt-thread/components/finsh/finsh_compiler.c ****                             if (node->idtype & FINSH_IDTYPE_ADDRESS)
  95:rt-thread/components/finsh/finsh_compiler.c ****                             {
  96:rt-thread/components/finsh/finsh_compiler.c ****                                 /* load address */
  97:rt-thread/components/finsh/finsh_compiler.c ****                                 finsh_code_byte(FINSH_OP_LD_DWORD);
  98:rt-thread/components/finsh/finsh_compiler.c ****                             }
  99:rt-thread/components/finsh/finsh_compiler.c ****                             else
 100:rt-thread/components/finsh/finsh_compiler.c ****                             {
 101:rt-thread/components/finsh/finsh_compiler.c ****                                 /* load value */
 102:rt-thread/components/finsh/finsh_compiler.c ****                                 finsh_code_byte(FINSH_OP_LD_VALUE_DWORD);
 103:rt-thread/components/finsh/finsh_compiler.c ****                             }
 104:rt-thread/components/finsh/finsh_compiler.c **** 
 105:rt-thread/components/finsh/finsh_compiler.c ****                             finsh_code_dword((long)(sysvar->var));
 106:rt-thread/components/finsh/finsh_compiler.c ****                             break;
 107:rt-thread/components/finsh/finsh_compiler.c ****                         }
 108:rt-thread/components/finsh/finsh_compiler.c ****                     }
 109:rt-thread/components/finsh/finsh_compiler.c ****                 }
 110:rt-thread/components/finsh/finsh_compiler.c ****                 /* identifier::var */
 111:rt-thread/components/finsh/finsh_compiler.c ****                 else
 112:rt-thread/components/finsh/finsh_compiler.c ****                 {
 113:rt-thread/components/finsh/finsh_compiler.c ****                     struct finsh_var* var;
 114:rt-thread/components/finsh/finsh_compiler.c **** 
 115:rt-thread/components/finsh/finsh_compiler.c ****                     var = node->id.var;
 116:rt-thread/components/finsh/finsh_compiler.c ****                     if (var != NULL)
 117:rt-thread/components/finsh/finsh_compiler.c ****                     {
 118:rt-thread/components/finsh/finsh_compiler.c ****                         switch (var->type)
 119:rt-thread/components/finsh/finsh_compiler.c ****                         {
 120:rt-thread/components/finsh/finsh_compiler.c ****                         case finsh_type_char:
 121:rt-thread/components/finsh/finsh_compiler.c ****                         case finsh_type_uchar:
 122:rt-thread/components/finsh/finsh_compiler.c ****                             if (node->idtype & FINSH_IDTYPE_ADDRESS)
 123:rt-thread/components/finsh/finsh_compiler.c ****                             {
 124:rt-thread/components/finsh/finsh_compiler.c ****                                 /* load address */
 125:rt-thread/components/finsh/finsh_compiler.c ****                                 finsh_code_byte(FINSH_OP_LD_DWORD);
 126:rt-thread/components/finsh/finsh_compiler.c ****                             }
 127:rt-thread/components/finsh/finsh_compiler.c ****                             else
 128:rt-thread/components/finsh/finsh_compiler.c ****                             {
 129:rt-thread/components/finsh/finsh_compiler.c ****                                 /* load value */
 130:rt-thread/components/finsh/finsh_compiler.c ****                                 finsh_code_byte(FINSH_OP_LD_VALUE_BYTE);
 131:rt-thread/components/finsh/finsh_compiler.c ****                             }
 132:rt-thread/components/finsh/finsh_compiler.c **** 
 133:rt-thread/components/finsh/finsh_compiler.c ****                             finsh_code_dword((long)&(var->value.char_value));
 134:rt-thread/components/finsh/finsh_compiler.c ****                             break;
 135:rt-thread/components/finsh/finsh_compiler.c **** 
 136:rt-thread/components/finsh/finsh_compiler.c ****                         case finsh_type_short:
 137:rt-thread/components/finsh/finsh_compiler.c ****                         case finsh_type_ushort:
 138:rt-thread/components/finsh/finsh_compiler.c ****                             if (node->idtype & FINSH_IDTYPE_ADDRESS)
 139:rt-thread/components/finsh/finsh_compiler.c ****                             {
 140:rt-thread/components/finsh/finsh_compiler.c ****                                 /* load address */
 141:rt-thread/components/finsh/finsh_compiler.c ****                                 finsh_code_byte(FINSH_OP_LD_DWORD);
 142:rt-thread/components/finsh/finsh_compiler.c ****                             }
 143:rt-thread/components/finsh/finsh_compiler.c ****                             else
 144:rt-thread/components/finsh/finsh_compiler.c ****                             {
 145:rt-thread/components/finsh/finsh_compiler.c ****                                 /* load value */
 146:rt-thread/components/finsh/finsh_compiler.c ****                                 finsh_code_byte(FINSH_OP_LD_VALUE_WORD);
ARM GAS  /tmp/cccwEpxI.s 			page 4


 147:rt-thread/components/finsh/finsh_compiler.c ****                             }
 148:rt-thread/components/finsh/finsh_compiler.c **** 
 149:rt-thread/components/finsh/finsh_compiler.c ****                             finsh_code_dword((long)&(var->value.short_value));
 150:rt-thread/components/finsh/finsh_compiler.c ****                             break;
 151:rt-thread/components/finsh/finsh_compiler.c **** 
 152:rt-thread/components/finsh/finsh_compiler.c ****                         case finsh_type_int:
 153:rt-thread/components/finsh/finsh_compiler.c ****                         case finsh_type_uint:
 154:rt-thread/components/finsh/finsh_compiler.c ****                         case finsh_type_long:
 155:rt-thread/components/finsh/finsh_compiler.c ****                         case finsh_type_ulong:
 156:rt-thread/components/finsh/finsh_compiler.c ****                         case finsh_type_charp:
 157:rt-thread/components/finsh/finsh_compiler.c ****                         case finsh_type_shortp:
 158:rt-thread/components/finsh/finsh_compiler.c ****                         case finsh_type_intp:
 159:rt-thread/components/finsh/finsh_compiler.c ****                         case finsh_type_longp:
 160:rt-thread/components/finsh/finsh_compiler.c ****                             if (node->idtype & FINSH_IDTYPE_ADDRESS)
 161:rt-thread/components/finsh/finsh_compiler.c ****                             {
 162:rt-thread/components/finsh/finsh_compiler.c ****                                 /* load address */
 163:rt-thread/components/finsh/finsh_compiler.c ****                                 finsh_code_byte(FINSH_OP_LD_DWORD);
 164:rt-thread/components/finsh/finsh_compiler.c ****                             }
 165:rt-thread/components/finsh/finsh_compiler.c ****                             else
 166:rt-thread/components/finsh/finsh_compiler.c ****                             {
 167:rt-thread/components/finsh/finsh_compiler.c ****                                 /* load value */
 168:rt-thread/components/finsh/finsh_compiler.c ****                                 finsh_code_byte(FINSH_OP_LD_VALUE_DWORD);
 169:rt-thread/components/finsh/finsh_compiler.c ****                             }
 170:rt-thread/components/finsh/finsh_compiler.c **** 
 171:rt-thread/components/finsh/finsh_compiler.c ****                             finsh_code_dword((long)&(var->value.long_value));
 172:rt-thread/components/finsh/finsh_compiler.c ****                             break;
 173:rt-thread/components/finsh/finsh_compiler.c ****                         }
 174:rt-thread/components/finsh/finsh_compiler.c ****                     }
 175:rt-thread/components/finsh/finsh_compiler.c ****                 }
 176:rt-thread/components/finsh/finsh_compiler.c ****             }
 177:rt-thread/components/finsh/finsh_compiler.c ****             break;
 178:rt-thread/components/finsh/finsh_compiler.c **** 
 179:rt-thread/components/finsh/finsh_compiler.c ****         /* load const */
 180:rt-thread/components/finsh/finsh_compiler.c ****         case FINSH_NODE_VALUE_CHAR:
 181:rt-thread/components/finsh/finsh_compiler.c ****             finsh_code_byte(FINSH_OP_LD_BYTE);
 182:rt-thread/components/finsh/finsh_compiler.c ****             finsh_code_byte(node->value.char_value);
 183:rt-thread/components/finsh/finsh_compiler.c ****             break;
 184:rt-thread/components/finsh/finsh_compiler.c **** 
 185:rt-thread/components/finsh/finsh_compiler.c ****         case FINSH_NODE_VALUE_INT:
 186:rt-thread/components/finsh/finsh_compiler.c ****         case FINSH_NODE_VALUE_LONG:
 187:rt-thread/components/finsh/finsh_compiler.c ****             finsh_code_byte(FINSH_OP_LD_DWORD);
 188:rt-thread/components/finsh/finsh_compiler.c ****             finsh_code_dword(node->value.long_value);
 189:rt-thread/components/finsh/finsh_compiler.c ****             break;
 190:rt-thread/components/finsh/finsh_compiler.c **** 
 191:rt-thread/components/finsh/finsh_compiler.c ****         case FINSH_NODE_VALUE_NULL:
 192:rt-thread/components/finsh/finsh_compiler.c ****         case FINSH_NODE_VALUE_STRING:
 193:rt-thread/components/finsh/finsh_compiler.c ****             finsh_code_byte(FINSH_OP_LD_DWORD);
 194:rt-thread/components/finsh/finsh_compiler.c ****             finsh_code_dword((uint32_t)node->value.ptr);
 195:rt-thread/components/finsh/finsh_compiler.c ****             break;
 196:rt-thread/components/finsh/finsh_compiler.c **** 
 197:rt-thread/components/finsh/finsh_compiler.c ****         /* arithmetic operation */
 198:rt-thread/components/finsh/finsh_compiler.c ****         case FINSH_NODE_SYS_ADD:
 199:rt-thread/components/finsh/finsh_compiler.c ****             if (node->data_type == FINSH_DATA_TYPE_BYTE) finsh_code_byte(FINSH_OP_ADD_BYTE);
 200:rt-thread/components/finsh/finsh_compiler.c ****             else if (node->data_type == FINSH_DATA_TYPE_WORD) finsh_code_byte(FINSH_OP_ADD_WORD);
 201:rt-thread/components/finsh/finsh_compiler.c ****             else if (node->data_type == FINSH_DATA_TYPE_DWORD) finsh_code_byte(FINSH_OP_ADD_DWORD);
 202:rt-thread/components/finsh/finsh_compiler.c ****             break;
 203:rt-thread/components/finsh/finsh_compiler.c **** 
ARM GAS  /tmp/cccwEpxI.s 			page 5


 204:rt-thread/components/finsh/finsh_compiler.c ****         case FINSH_NODE_SYS_SUB:
 205:rt-thread/components/finsh/finsh_compiler.c ****             if (node->data_type == FINSH_DATA_TYPE_BYTE) finsh_code_byte(FINSH_OP_SUB_BYTE);
 206:rt-thread/components/finsh/finsh_compiler.c ****             else if (node->data_type == FINSH_DATA_TYPE_WORD) finsh_code_byte(FINSH_OP_SUB_WORD);
 207:rt-thread/components/finsh/finsh_compiler.c ****             else if (node->data_type == FINSH_DATA_TYPE_DWORD) finsh_code_byte(FINSH_OP_SUB_DWORD);
 208:rt-thread/components/finsh/finsh_compiler.c ****             break;
 209:rt-thread/components/finsh/finsh_compiler.c **** 
 210:rt-thread/components/finsh/finsh_compiler.c ****         case FINSH_NODE_SYS_MUL:
 211:rt-thread/components/finsh/finsh_compiler.c ****             if (node->data_type == FINSH_DATA_TYPE_BYTE) finsh_code_byte(FINSH_OP_MUL_BYTE);
 212:rt-thread/components/finsh/finsh_compiler.c ****             else if (node->data_type == FINSH_DATA_TYPE_WORD) finsh_code_byte(FINSH_OP_MUL_WORD);
 213:rt-thread/components/finsh/finsh_compiler.c ****             else if (node->data_type == FINSH_DATA_TYPE_DWORD) finsh_code_byte(FINSH_OP_MUL_DWORD);
 214:rt-thread/components/finsh/finsh_compiler.c ****             break;
 215:rt-thread/components/finsh/finsh_compiler.c **** 
 216:rt-thread/components/finsh/finsh_compiler.c ****         case FINSH_NODE_SYS_DIV:
 217:rt-thread/components/finsh/finsh_compiler.c ****             if (node->data_type == FINSH_DATA_TYPE_BYTE) finsh_code_byte(FINSH_OP_DIV_BYTE);
 218:rt-thread/components/finsh/finsh_compiler.c ****             else if (node->data_type == FINSH_DATA_TYPE_WORD) finsh_code_byte(FINSH_OP_DIV_WORD);
 219:rt-thread/components/finsh/finsh_compiler.c ****             else if (node->data_type == FINSH_DATA_TYPE_DWORD) finsh_code_byte(FINSH_OP_DIV_DWORD);
 220:rt-thread/components/finsh/finsh_compiler.c ****             break;
 221:rt-thread/components/finsh/finsh_compiler.c **** 
 222:rt-thread/components/finsh/finsh_compiler.c ****         case FINSH_NODE_SYS_MOD:
 223:rt-thread/components/finsh/finsh_compiler.c ****             if (node->data_type == FINSH_DATA_TYPE_BYTE) finsh_code_byte(FINSH_OP_MOD_BYTE);
 224:rt-thread/components/finsh/finsh_compiler.c ****             else if (node->data_type == FINSH_DATA_TYPE_WORD) finsh_code_byte(FINSH_OP_MOD_WORD);
 225:rt-thread/components/finsh/finsh_compiler.c ****             else if (node->data_type == FINSH_DATA_TYPE_DWORD) finsh_code_byte(FINSH_OP_MOD_DWORD);
 226:rt-thread/components/finsh/finsh_compiler.c ****             break;
 227:rt-thread/components/finsh/finsh_compiler.c **** 
 228:rt-thread/components/finsh/finsh_compiler.c ****         /* bit operation */
 229:rt-thread/components/finsh/finsh_compiler.c ****         case FINSH_NODE_SYS_AND:
 230:rt-thread/components/finsh/finsh_compiler.c ****             if (node->data_type == FINSH_DATA_TYPE_BYTE) finsh_code_byte(FINSH_OP_AND_BYTE);
 231:rt-thread/components/finsh/finsh_compiler.c ****             else if (node->data_type == FINSH_DATA_TYPE_WORD) finsh_code_byte(FINSH_OP_AND_WORD);
 232:rt-thread/components/finsh/finsh_compiler.c ****             else if (node->data_type == FINSH_DATA_TYPE_DWORD) finsh_code_byte(FINSH_OP_AND_DWORD);
 233:rt-thread/components/finsh/finsh_compiler.c ****             break;
 234:rt-thread/components/finsh/finsh_compiler.c **** 
 235:rt-thread/components/finsh/finsh_compiler.c ****         case FINSH_NODE_SYS_OR:
 236:rt-thread/components/finsh/finsh_compiler.c ****             if (node->data_type == FINSH_DATA_TYPE_BYTE) finsh_code_byte(FINSH_OP_OR_BYTE);
 237:rt-thread/components/finsh/finsh_compiler.c ****             else if (node->data_type == FINSH_DATA_TYPE_WORD) finsh_code_byte(FINSH_OP_OR_WORD);
 238:rt-thread/components/finsh/finsh_compiler.c ****             else if (node->data_type == FINSH_DATA_TYPE_DWORD) finsh_code_byte(FINSH_OP_OR_DWORD);
 239:rt-thread/components/finsh/finsh_compiler.c ****             break;
 240:rt-thread/components/finsh/finsh_compiler.c **** 
 241:rt-thread/components/finsh/finsh_compiler.c ****         case FINSH_NODE_SYS_XOR:
 242:rt-thread/components/finsh/finsh_compiler.c ****             if (node->data_type == FINSH_DATA_TYPE_BYTE) finsh_code_byte(FINSH_OP_XOR_BYTE);
 243:rt-thread/components/finsh/finsh_compiler.c ****             else if (node->data_type == FINSH_DATA_TYPE_WORD) finsh_code_byte(FINSH_OP_XOR_WORD);
 244:rt-thread/components/finsh/finsh_compiler.c ****             else if (node->data_type == FINSH_DATA_TYPE_DWORD) finsh_code_byte(FINSH_OP_XOR_DWORD);
 245:rt-thread/components/finsh/finsh_compiler.c ****             break;
 246:rt-thread/components/finsh/finsh_compiler.c **** 
 247:rt-thread/components/finsh/finsh_compiler.c ****         case FINSH_NODE_SYS_BITWISE:
 248:rt-thread/components/finsh/finsh_compiler.c ****             if (node->data_type == FINSH_DATA_TYPE_BYTE) finsh_code_byte(FINSH_OP_BITWISE_BYTE);
 249:rt-thread/components/finsh/finsh_compiler.c ****             else if (node->data_type == FINSH_DATA_TYPE_WORD) finsh_code_byte(FINSH_OP_BITWISE_WORD
 250:rt-thread/components/finsh/finsh_compiler.c ****             else if (node->data_type == FINSH_DATA_TYPE_DWORD) finsh_code_byte(FINSH_OP_BITWISE_DWO
 251:rt-thread/components/finsh/finsh_compiler.c ****             break;
 252:rt-thread/components/finsh/finsh_compiler.c **** 
 253:rt-thread/components/finsh/finsh_compiler.c ****         case FINSH_NODE_SYS_SHL:
 254:rt-thread/components/finsh/finsh_compiler.c ****             if (node->data_type == FINSH_DATA_TYPE_BYTE) finsh_code_byte(FINSH_OP_SHL_BYTE);
 255:rt-thread/components/finsh/finsh_compiler.c ****             else if (node->data_type == FINSH_DATA_TYPE_WORD) finsh_code_byte(FINSH_OP_SHL_WORD);
 256:rt-thread/components/finsh/finsh_compiler.c ****             else if (node->data_type == FINSH_DATA_TYPE_DWORD) finsh_code_byte(FINSH_OP_SHL_DWORD);
 257:rt-thread/components/finsh/finsh_compiler.c ****             break;
 258:rt-thread/components/finsh/finsh_compiler.c **** 
 259:rt-thread/components/finsh/finsh_compiler.c ****         case FINSH_NODE_SYS_SHR:
 260:rt-thread/components/finsh/finsh_compiler.c ****             if (node->data_type == FINSH_DATA_TYPE_BYTE) finsh_code_byte(FINSH_OP_SHR_BYTE);
ARM GAS  /tmp/cccwEpxI.s 			page 6


 261:rt-thread/components/finsh/finsh_compiler.c ****             else if (node->data_type == FINSH_DATA_TYPE_WORD) finsh_code_byte(FINSH_OP_SHR_WORD);
 262:rt-thread/components/finsh/finsh_compiler.c ****             else if (node->data_type == FINSH_DATA_TYPE_DWORD) finsh_code_byte(FINSH_OP_SHR_DWORD);
 263:rt-thread/components/finsh/finsh_compiler.c ****             break;
 264:rt-thread/components/finsh/finsh_compiler.c **** 
 265:rt-thread/components/finsh/finsh_compiler.c ****         /* syscall */
 266:rt-thread/components/finsh/finsh_compiler.c ****         case FINSH_NODE_SYS_FUNC:
 267:rt-thread/components/finsh/finsh_compiler.c ****             {
 268:rt-thread/components/finsh/finsh_compiler.c ****                 int parameters;
 269:rt-thread/components/finsh/finsh_compiler.c ****                 struct finsh_node* sibling;
 270:rt-thread/components/finsh/finsh_compiler.c **** 
 271:rt-thread/components/finsh/finsh_compiler.c ****                 parameters = 0;
 272:rt-thread/components/finsh/finsh_compiler.c ****                 if (finsh_node_child(node) != NULL)
 273:rt-thread/components/finsh/finsh_compiler.c ****                 {
 274:rt-thread/components/finsh/finsh_compiler.c ****                     sibling = finsh_node_sibling(finsh_node_child(node));
 275:rt-thread/components/finsh/finsh_compiler.c ****                     while (sibling != NULL)
 276:rt-thread/components/finsh/finsh_compiler.c ****                     {
 277:rt-thread/components/finsh/finsh_compiler.c ****                         parameters ++;
 278:rt-thread/components/finsh/finsh_compiler.c ****                         sibling = finsh_node_sibling(sibling);
 279:rt-thread/components/finsh/finsh_compiler.c ****                     }
 280:rt-thread/components/finsh/finsh_compiler.c **** 
 281:rt-thread/components/finsh/finsh_compiler.c ****                     /* load address of function */
 282:rt-thread/components/finsh/finsh_compiler.c ****                     // finsh_code_dword((long)&(node->var->value.ptr));
 283:rt-thread/components/finsh/finsh_compiler.c **** 
 284:rt-thread/components/finsh/finsh_compiler.c ****                     /* syscall parameters */
 285:rt-thread/components/finsh/finsh_compiler.c ****                     finsh_code_byte(FINSH_OP_SYSCALL);
 286:rt-thread/components/finsh/finsh_compiler.c ****                     finsh_code_byte(parameters);
 287:rt-thread/components/finsh/finsh_compiler.c ****                 }
 288:rt-thread/components/finsh/finsh_compiler.c ****             }
 289:rt-thread/components/finsh/finsh_compiler.c ****             break;
 290:rt-thread/components/finsh/finsh_compiler.c **** 
 291:rt-thread/components/finsh/finsh_compiler.c ****         /* assign expression */
 292:rt-thread/components/finsh/finsh_compiler.c ****         case FINSH_NODE_SYS_ASSIGN:
 293:rt-thread/components/finsh/finsh_compiler.c ****             if (finsh_node_child(node) && finsh_node_child(node)->node_type == FINSH_NODE_ID)
 294:rt-thread/components/finsh/finsh_compiler.c ****             {
 295:rt-thread/components/finsh/finsh_compiler.c ****                 switch (finsh_node_child(node)->data_type)
 296:rt-thread/components/finsh/finsh_compiler.c ****                 {
 297:rt-thread/components/finsh/finsh_compiler.c ****                 case FINSH_DATA_TYPE_BYTE:
 298:rt-thread/components/finsh/finsh_compiler.c ****                     finsh_code_byte(FINSH_OP_ST_BYTE);
 299:rt-thread/components/finsh/finsh_compiler.c **** 
 300:rt-thread/components/finsh/finsh_compiler.c ****                     /* load value again */
 301:rt-thread/components/finsh/finsh_compiler.c ****                     finsh_code_byte(FINSH_OP_LD_VALUE_BYTE_STACK);
 302:rt-thread/components/finsh/finsh_compiler.c ****                     break;
 303:rt-thread/components/finsh/finsh_compiler.c **** 
 304:rt-thread/components/finsh/finsh_compiler.c ****                 case FINSH_DATA_TYPE_WORD:
 305:rt-thread/components/finsh/finsh_compiler.c ****                     finsh_code_byte(FINSH_OP_ST_WORD);
 306:rt-thread/components/finsh/finsh_compiler.c **** 
 307:rt-thread/components/finsh/finsh_compiler.c ****                     /* load value again */
 308:rt-thread/components/finsh/finsh_compiler.c ****                     finsh_code_byte(FINSH_OP_LD_VALUE_WORD_STACK);
 309:rt-thread/components/finsh/finsh_compiler.c ****                     break;
 310:rt-thread/components/finsh/finsh_compiler.c **** 
 311:rt-thread/components/finsh/finsh_compiler.c ****                 case FINSH_DATA_TYPE_DWORD:
 312:rt-thread/components/finsh/finsh_compiler.c ****                     finsh_code_byte(FINSH_OP_ST_DWORD);
 313:rt-thread/components/finsh/finsh_compiler.c **** 
 314:rt-thread/components/finsh/finsh_compiler.c ****                     /* load value again */
 315:rt-thread/components/finsh/finsh_compiler.c ****                     finsh_code_byte(FINSH_OP_LD_VALUE_DWORD_STACK);
 316:rt-thread/components/finsh/finsh_compiler.c ****                     break;
 317:rt-thread/components/finsh/finsh_compiler.c **** 
ARM GAS  /tmp/cccwEpxI.s 			page 7


 318:rt-thread/components/finsh/finsh_compiler.c ****                 default:
 319:rt-thread/components/finsh/finsh_compiler.c ****                     finsh_error_set(FINSH_ERROR_UNKNOWN_TYPE);
 320:rt-thread/components/finsh/finsh_compiler.c ****                 }
 321:rt-thread/components/finsh/finsh_compiler.c ****             }
 322:rt-thread/components/finsh/finsh_compiler.c ****             else if (finsh_node_child(node)->node_type == FINSH_NODE_SYS_GETVALUE)
 323:rt-thread/components/finsh/finsh_compiler.c ****             {
 324:rt-thread/components/finsh/finsh_compiler.c ****                 switch ((finsh_node_child(node)->data_type) & 0x0F)
 325:rt-thread/components/finsh/finsh_compiler.c ****                 {
 326:rt-thread/components/finsh/finsh_compiler.c ****                 case FINSH_DATA_TYPE_BYTE:
 327:rt-thread/components/finsh/finsh_compiler.c ****                     finsh_code_byte(FINSH_OP_ST_BYTE);
 328:rt-thread/components/finsh/finsh_compiler.c **** 
 329:rt-thread/components/finsh/finsh_compiler.c ****                     /* load value again */
 330:rt-thread/components/finsh/finsh_compiler.c ****                     finsh_code_byte(FINSH_OP_LD_VALUE_BYTE_STACK);
 331:rt-thread/components/finsh/finsh_compiler.c ****                     break;
 332:rt-thread/components/finsh/finsh_compiler.c **** 
 333:rt-thread/components/finsh/finsh_compiler.c ****                 case FINSH_DATA_TYPE_WORD:
 334:rt-thread/components/finsh/finsh_compiler.c ****                     finsh_code_byte(FINSH_OP_ST_WORD);
 335:rt-thread/components/finsh/finsh_compiler.c **** 
 336:rt-thread/components/finsh/finsh_compiler.c ****                     /* load value again */
 337:rt-thread/components/finsh/finsh_compiler.c ****                     finsh_code_byte(FINSH_OP_LD_VALUE_WORD_STACK);
 338:rt-thread/components/finsh/finsh_compiler.c ****                     break;
 339:rt-thread/components/finsh/finsh_compiler.c **** 
 340:rt-thread/components/finsh/finsh_compiler.c ****                 case FINSH_DATA_TYPE_DWORD:
 341:rt-thread/components/finsh/finsh_compiler.c ****                     finsh_code_byte(FINSH_OP_ST_DWORD);
 342:rt-thread/components/finsh/finsh_compiler.c **** 
 343:rt-thread/components/finsh/finsh_compiler.c ****                     /* load value again */
 344:rt-thread/components/finsh/finsh_compiler.c ****                     finsh_code_byte(FINSH_OP_LD_VALUE_DWORD_STACK);
 345:rt-thread/components/finsh/finsh_compiler.c ****                     break;
 346:rt-thread/components/finsh/finsh_compiler.c **** 
 347:rt-thread/components/finsh/finsh_compiler.c ****                 default:
 348:rt-thread/components/finsh/finsh_compiler.c ****                     finsh_error_set(FINSH_ERROR_UNKNOWN_TYPE);
 349:rt-thread/components/finsh/finsh_compiler.c ****                 }
 350:rt-thread/components/finsh/finsh_compiler.c ****             }
 351:rt-thread/components/finsh/finsh_compiler.c ****             break;
 352:rt-thread/components/finsh/finsh_compiler.c **** 
 353:rt-thread/components/finsh/finsh_compiler.c ****         /* pre-increase */
 354:rt-thread/components/finsh/finsh_compiler.c ****         case FINSH_NODE_SYS_PREINC:
 355:rt-thread/components/finsh/finsh_compiler.c ****             if (finsh_node_child(node) && finsh_node_child(node)->node_type == FINSH_NODE_ID)
 356:rt-thread/components/finsh/finsh_compiler.c ****             {
 357:rt-thread/components/finsh/finsh_compiler.c ****                 struct finsh_var* var;
 358:rt-thread/components/finsh/finsh_compiler.c ****                 var = finsh_node_child(node)->id.var;
 359:rt-thread/components/finsh/finsh_compiler.c **** 
 360:rt-thread/components/finsh/finsh_compiler.c ****                 /* ld_dword &id */
 361:rt-thread/components/finsh/finsh_compiler.c ****                 // finsh_code_byte(FINSH_OP_LD_DWORD);
 362:rt-thread/components/finsh/finsh_compiler.c **** 
 363:rt-thread/components/finsh/finsh_compiler.c ****                 switch (node->data_type)
 364:rt-thread/components/finsh/finsh_compiler.c ****                 {
 365:rt-thread/components/finsh/finsh_compiler.c ****                 case FINSH_DATA_TYPE_BYTE:
 366:rt-thread/components/finsh/finsh_compiler.c ****                     /* address */
 367:rt-thread/components/finsh/finsh_compiler.c ****                     // finsh_code_dword((long)&(var->value.char_value));
 368:rt-thread/components/finsh/finsh_compiler.c **** 
 369:rt-thread/components/finsh/finsh_compiler.c ****                     /* ld_value_byte &id */
 370:rt-thread/components/finsh/finsh_compiler.c ****                     finsh_code_byte(FINSH_OP_LD_VALUE_BYTE);
 371:rt-thread/components/finsh/finsh_compiler.c ****                     finsh_code_dword((long)&(var->value.char_value));
 372:rt-thread/components/finsh/finsh_compiler.c **** 
 373:rt-thread/components/finsh/finsh_compiler.c ****                     /* ld_byte 1 */
 374:rt-thread/components/finsh/finsh_compiler.c ****                     finsh_code_byte(FINSH_OP_LD_BYTE);
ARM GAS  /tmp/cccwEpxI.s 			page 8


 375:rt-thread/components/finsh/finsh_compiler.c ****                     finsh_code_byte(1);
 376:rt-thread/components/finsh/finsh_compiler.c **** 
 377:rt-thread/components/finsh/finsh_compiler.c ****                     /* add_byte */
 378:rt-thread/components/finsh/finsh_compiler.c ****                     finsh_code_byte(FINSH_OP_ADD_BYTE);
 379:rt-thread/components/finsh/finsh_compiler.c ****                     /* st_byte */
 380:rt-thread/components/finsh/finsh_compiler.c ****                     finsh_code_byte(FINSH_OP_ST_BYTE);
 381:rt-thread/components/finsh/finsh_compiler.c **** 
 382:rt-thread/components/finsh/finsh_compiler.c ****                     /* load value again */
 383:rt-thread/components/finsh/finsh_compiler.c ****                     finsh_code_byte(FINSH_OP_LD_VALUE_DWORD_STACK);
 384:rt-thread/components/finsh/finsh_compiler.c **** 
 385:rt-thread/components/finsh/finsh_compiler.c ****                     break;
 386:rt-thread/components/finsh/finsh_compiler.c **** 
 387:rt-thread/components/finsh/finsh_compiler.c ****                 case FINSH_DATA_TYPE_WORD:
 388:rt-thread/components/finsh/finsh_compiler.c ****                     /* address */
 389:rt-thread/components/finsh/finsh_compiler.c ****                     // finsh_code_dword((long)&(var->value.short_value));
 390:rt-thread/components/finsh/finsh_compiler.c **** 
 391:rt-thread/components/finsh/finsh_compiler.c ****                     /* ld_value_word &id */
 392:rt-thread/components/finsh/finsh_compiler.c ****                     finsh_code_byte(FINSH_OP_LD_VALUE_WORD);
 393:rt-thread/components/finsh/finsh_compiler.c ****                     finsh_code_dword((long)&(var->value.short_value));
 394:rt-thread/components/finsh/finsh_compiler.c **** 
 395:rt-thread/components/finsh/finsh_compiler.c ****                     /* ld_word 1 */
 396:rt-thread/components/finsh/finsh_compiler.c ****                     finsh_code_byte(FINSH_OP_LD_WORD);
 397:rt-thread/components/finsh/finsh_compiler.c ****                     finsh_code_word(1);
 398:rt-thread/components/finsh/finsh_compiler.c **** 
 399:rt-thread/components/finsh/finsh_compiler.c ****                     /* add_word */
 400:rt-thread/components/finsh/finsh_compiler.c ****                     finsh_code_byte(FINSH_OP_ADD_WORD);
 401:rt-thread/components/finsh/finsh_compiler.c ****                     /* st_word */
 402:rt-thread/components/finsh/finsh_compiler.c ****                     finsh_code_byte(FINSH_OP_ST_WORD);
 403:rt-thread/components/finsh/finsh_compiler.c **** 
 404:rt-thread/components/finsh/finsh_compiler.c ****                     /* load value again */
 405:rt-thread/components/finsh/finsh_compiler.c ****                     finsh_code_byte(FINSH_OP_LD_VALUE_DWORD_STACK);
 406:rt-thread/components/finsh/finsh_compiler.c **** 
 407:rt-thread/components/finsh/finsh_compiler.c ****                     break;
 408:rt-thread/components/finsh/finsh_compiler.c **** 
 409:rt-thread/components/finsh/finsh_compiler.c ****                 case FINSH_DATA_TYPE_DWORD:
 410:rt-thread/components/finsh/finsh_compiler.c ****                     /* address */
 411:rt-thread/components/finsh/finsh_compiler.c ****                     // finsh_code_dword((long)&(var->value.long_value));
 412:rt-thread/components/finsh/finsh_compiler.c **** 
 413:rt-thread/components/finsh/finsh_compiler.c ****                     /* ld_dword &id */
 414:rt-thread/components/finsh/finsh_compiler.c ****                     finsh_code_byte(FINSH_OP_LD_VALUE_DWORD);
 415:rt-thread/components/finsh/finsh_compiler.c ****                     finsh_code_dword((long)&(var->value.long_value));
 416:rt-thread/components/finsh/finsh_compiler.c **** 
 417:rt-thread/components/finsh/finsh_compiler.c ****                     /* ld_dword 1 */
 418:rt-thread/components/finsh/finsh_compiler.c ****                     finsh_code_byte(FINSH_OP_LD_DWORD);
 419:rt-thread/components/finsh/finsh_compiler.c ****                     finsh_code_dword(1);
 420:rt-thread/components/finsh/finsh_compiler.c **** 
 421:rt-thread/components/finsh/finsh_compiler.c ****                     /* add_dword */
 422:rt-thread/components/finsh/finsh_compiler.c ****                     finsh_code_byte(FINSH_OP_ADD_DWORD);
 423:rt-thread/components/finsh/finsh_compiler.c ****                     /* st_dword */
 424:rt-thread/components/finsh/finsh_compiler.c ****                     finsh_code_byte(FINSH_OP_ST_DWORD);
 425:rt-thread/components/finsh/finsh_compiler.c **** 
 426:rt-thread/components/finsh/finsh_compiler.c ****                     /* load value again */
 427:rt-thread/components/finsh/finsh_compiler.c ****                     finsh_code_byte(FINSH_OP_LD_VALUE_DWORD_STACK);
 428:rt-thread/components/finsh/finsh_compiler.c **** 
 429:rt-thread/components/finsh/finsh_compiler.c ****                     break;
 430:rt-thread/components/finsh/finsh_compiler.c ****                 }
 431:rt-thread/components/finsh/finsh_compiler.c ****             }
ARM GAS  /tmp/cccwEpxI.s 			page 9


 432:rt-thread/components/finsh/finsh_compiler.c ****             break;
 433:rt-thread/components/finsh/finsh_compiler.c **** 
 434:rt-thread/components/finsh/finsh_compiler.c ****         /* pre-decrease */
 435:rt-thread/components/finsh/finsh_compiler.c ****         case FINSH_NODE_SYS_PREDEC:
 436:rt-thread/components/finsh/finsh_compiler.c ****             if (finsh_node_child(node) && finsh_node_child(node)->node_type == FINSH_NODE_ID)
 437:rt-thread/components/finsh/finsh_compiler.c ****             {
 438:rt-thread/components/finsh/finsh_compiler.c ****                 struct finsh_var* var;
 439:rt-thread/components/finsh/finsh_compiler.c ****                 var = finsh_node_child(node)->id.var;
 440:rt-thread/components/finsh/finsh_compiler.c **** 
 441:rt-thread/components/finsh/finsh_compiler.c ****                 /* ld_dword &id */
 442:rt-thread/components/finsh/finsh_compiler.c ****                 // finsh_code_byte(FINSH_OP_LD_DWORD);
 443:rt-thread/components/finsh/finsh_compiler.c **** 
 444:rt-thread/components/finsh/finsh_compiler.c ****                 switch (node->data_type)
 445:rt-thread/components/finsh/finsh_compiler.c ****                 {
 446:rt-thread/components/finsh/finsh_compiler.c ****                 case FINSH_DATA_TYPE_BYTE:
 447:rt-thread/components/finsh/finsh_compiler.c ****                     /* address */
 448:rt-thread/components/finsh/finsh_compiler.c ****                     // finsh_code_dword((long)&(var->value.char_value));
 449:rt-thread/components/finsh/finsh_compiler.c **** 
 450:rt-thread/components/finsh/finsh_compiler.c ****                     /* ld_value_byte &id */
 451:rt-thread/components/finsh/finsh_compiler.c ****                     finsh_code_byte(FINSH_OP_LD_VALUE_BYTE);
 452:rt-thread/components/finsh/finsh_compiler.c ****                     finsh_code_dword((long)&(var->value.char_value));
 453:rt-thread/components/finsh/finsh_compiler.c **** 
 454:rt-thread/components/finsh/finsh_compiler.c ****                     /* ld_byte 1 */
 455:rt-thread/components/finsh/finsh_compiler.c ****                     finsh_code_byte(FINSH_OP_LD_BYTE);
 456:rt-thread/components/finsh/finsh_compiler.c ****                     finsh_code_byte(1);
 457:rt-thread/components/finsh/finsh_compiler.c **** 
 458:rt-thread/components/finsh/finsh_compiler.c ****                     /* add_byte */
 459:rt-thread/components/finsh/finsh_compiler.c ****                     finsh_code_byte(FINSH_OP_SUB_BYTE);
 460:rt-thread/components/finsh/finsh_compiler.c ****                     /* st_byte */
 461:rt-thread/components/finsh/finsh_compiler.c ****                     finsh_code_byte(FINSH_OP_ST_BYTE);
 462:rt-thread/components/finsh/finsh_compiler.c **** 
 463:rt-thread/components/finsh/finsh_compiler.c ****                     /* load value again */
 464:rt-thread/components/finsh/finsh_compiler.c ****                     finsh_code_byte(FINSH_OP_LD_VALUE_DWORD_STACK);
 465:rt-thread/components/finsh/finsh_compiler.c **** 
 466:rt-thread/components/finsh/finsh_compiler.c ****                     break;
 467:rt-thread/components/finsh/finsh_compiler.c **** 
 468:rt-thread/components/finsh/finsh_compiler.c ****                 case FINSH_DATA_TYPE_WORD:
 469:rt-thread/components/finsh/finsh_compiler.c ****                     /* address */
 470:rt-thread/components/finsh/finsh_compiler.c ****                     // finsh_code_dword((long)&(var->value.short_value));
 471:rt-thread/components/finsh/finsh_compiler.c **** 
 472:rt-thread/components/finsh/finsh_compiler.c ****                     /* ld_value_word &id */
 473:rt-thread/components/finsh/finsh_compiler.c ****                     finsh_code_byte(FINSH_OP_LD_VALUE_WORD);
 474:rt-thread/components/finsh/finsh_compiler.c ****                     finsh_code_dword((long)&(var->value.short_value));
 475:rt-thread/components/finsh/finsh_compiler.c **** 
 476:rt-thread/components/finsh/finsh_compiler.c ****                     /* ld_word 1 */
 477:rt-thread/components/finsh/finsh_compiler.c ****                     finsh_code_byte(FINSH_OP_LD_WORD);
 478:rt-thread/components/finsh/finsh_compiler.c ****                     finsh_code_word(1);
 479:rt-thread/components/finsh/finsh_compiler.c **** 
 480:rt-thread/components/finsh/finsh_compiler.c ****                     /* add_word */
 481:rt-thread/components/finsh/finsh_compiler.c ****                     finsh_code_byte(FINSH_OP_SUB_WORD);
 482:rt-thread/components/finsh/finsh_compiler.c ****                     /* st_word */
 483:rt-thread/components/finsh/finsh_compiler.c ****                     finsh_code_byte(FINSH_OP_ST_WORD);
 484:rt-thread/components/finsh/finsh_compiler.c **** 
 485:rt-thread/components/finsh/finsh_compiler.c ****                     /* load value again */
 486:rt-thread/components/finsh/finsh_compiler.c ****                     finsh_code_byte(FINSH_OP_LD_VALUE_DWORD_STACK);
 487:rt-thread/components/finsh/finsh_compiler.c **** 
 488:rt-thread/components/finsh/finsh_compiler.c ****                     break;
ARM GAS  /tmp/cccwEpxI.s 			page 10


 489:rt-thread/components/finsh/finsh_compiler.c **** 
 490:rt-thread/components/finsh/finsh_compiler.c ****                 case FINSH_DATA_TYPE_DWORD:
 491:rt-thread/components/finsh/finsh_compiler.c ****                     /* address */
 492:rt-thread/components/finsh/finsh_compiler.c ****                     // finsh_code_dword((long)&(var->value.long_value));
 493:rt-thread/components/finsh/finsh_compiler.c **** 
 494:rt-thread/components/finsh/finsh_compiler.c ****                     /* ld_dword &id */
 495:rt-thread/components/finsh/finsh_compiler.c ****                     finsh_code_byte(FINSH_OP_LD_VALUE_DWORD);
 496:rt-thread/components/finsh/finsh_compiler.c ****                     finsh_code_dword((long)&(var->value.long_value));
 497:rt-thread/components/finsh/finsh_compiler.c **** 
 498:rt-thread/components/finsh/finsh_compiler.c ****                     /* ld_dword 1 */
 499:rt-thread/components/finsh/finsh_compiler.c ****                     finsh_code_byte(FINSH_OP_LD_DWORD);
 500:rt-thread/components/finsh/finsh_compiler.c ****                     finsh_code_dword(1);
 501:rt-thread/components/finsh/finsh_compiler.c **** 
 502:rt-thread/components/finsh/finsh_compiler.c ****                     /* add_dword */
 503:rt-thread/components/finsh/finsh_compiler.c ****                     finsh_code_byte(FINSH_OP_SUB_DWORD);
 504:rt-thread/components/finsh/finsh_compiler.c ****                     /* st_dword */
 505:rt-thread/components/finsh/finsh_compiler.c ****                     finsh_code_byte(FINSH_OP_ST_DWORD);
 506:rt-thread/components/finsh/finsh_compiler.c **** 
 507:rt-thread/components/finsh/finsh_compiler.c ****                     /* load value again */
 508:rt-thread/components/finsh/finsh_compiler.c ****                     finsh_code_byte(FINSH_OP_LD_VALUE_DWORD_STACK);
 509:rt-thread/components/finsh/finsh_compiler.c **** 
 510:rt-thread/components/finsh/finsh_compiler.c ****                     break;
 511:rt-thread/components/finsh/finsh_compiler.c ****                 }
 512:rt-thread/components/finsh/finsh_compiler.c ****             }
 513:rt-thread/components/finsh/finsh_compiler.c ****             break;
 514:rt-thread/components/finsh/finsh_compiler.c **** 
 515:rt-thread/components/finsh/finsh_compiler.c ****         /* increase */
 516:rt-thread/components/finsh/finsh_compiler.c ****         case FINSH_NODE_SYS_INC:
 517:rt-thread/components/finsh/finsh_compiler.c ****             if (finsh_node_child(node) && finsh_node_child(node)->node_type == FINSH_NODE_ID)
 518:rt-thread/components/finsh/finsh_compiler.c ****             {
 519:rt-thread/components/finsh/finsh_compiler.c ****                 struct finsh_var* var;
 520:rt-thread/components/finsh/finsh_compiler.c ****                 var = finsh_node_child(node)->id.var;
 521:rt-thread/components/finsh/finsh_compiler.c **** 
 522:rt-thread/components/finsh/finsh_compiler.c ****                 switch (node->data_type)
 523:rt-thread/components/finsh/finsh_compiler.c ****                 {
 524:rt-thread/components/finsh/finsh_compiler.c ****                 case FINSH_DATA_TYPE_BYTE:
 525:rt-thread/components/finsh/finsh_compiler.c ****                     /* ld_value_byte &id */
 526:rt-thread/components/finsh/finsh_compiler.c ****                     // finsh_code_byte(FINSH_OP_LD_VALUE_BYTE);
 527:rt-thread/components/finsh/finsh_compiler.c ****                     // finsh_code_dword((long)&(var->value.char_value));
 528:rt-thread/components/finsh/finsh_compiler.c **** 
 529:rt-thread/components/finsh/finsh_compiler.c ****                     /* ld_dword &id */
 530:rt-thread/components/finsh/finsh_compiler.c ****                     finsh_code_byte(FINSH_OP_LD_DWORD);
 531:rt-thread/components/finsh/finsh_compiler.c ****                     finsh_code_dword((long)&(var->value.char_value));
 532:rt-thread/components/finsh/finsh_compiler.c **** 
 533:rt-thread/components/finsh/finsh_compiler.c ****                     /* ld_value_byte &id */
 534:rt-thread/components/finsh/finsh_compiler.c ****                     finsh_code_byte(FINSH_OP_LD_VALUE_BYTE);
 535:rt-thread/components/finsh/finsh_compiler.c ****                     finsh_code_dword((long)&(var->value.char_value));
 536:rt-thread/components/finsh/finsh_compiler.c **** 
 537:rt-thread/components/finsh/finsh_compiler.c ****                     /* ld_byte 1 */
 538:rt-thread/components/finsh/finsh_compiler.c ****                     finsh_code_byte(FINSH_OP_LD_BYTE);
 539:rt-thread/components/finsh/finsh_compiler.c ****                     finsh_code_byte(1);
 540:rt-thread/components/finsh/finsh_compiler.c **** 
 541:rt-thread/components/finsh/finsh_compiler.c ****                     /* add_byte */
 542:rt-thread/components/finsh/finsh_compiler.c ****                     finsh_code_byte(FINSH_OP_ADD_BYTE);
 543:rt-thread/components/finsh/finsh_compiler.c ****                     /* get byte */
 544:rt-thread/components/finsh/finsh_compiler.c ****                     finsh_code_byte(FINSH_OP_ST_BYTE);
 545:rt-thread/components/finsh/finsh_compiler.c **** 
ARM GAS  /tmp/cccwEpxI.s 			page 11


 546:rt-thread/components/finsh/finsh_compiler.c ****                     /* pop */
 547:rt-thread/components/finsh/finsh_compiler.c ****                     finsh_code_byte(FINSH_OP_POP);
 548:rt-thread/components/finsh/finsh_compiler.c ****                     break;
 549:rt-thread/components/finsh/finsh_compiler.c **** 
 550:rt-thread/components/finsh/finsh_compiler.c ****                 case FINSH_DATA_TYPE_WORD:
 551:rt-thread/components/finsh/finsh_compiler.c ****                     /* ld_value_word &id */
 552:rt-thread/components/finsh/finsh_compiler.c ****                     // finsh_code_byte(FINSH_OP_LD_VALUE_WORD);
 553:rt-thread/components/finsh/finsh_compiler.c ****                     // finsh_code_dword((long)&(var->value.short_value));
 554:rt-thread/components/finsh/finsh_compiler.c **** 
 555:rt-thread/components/finsh/finsh_compiler.c ****                     /* ld_dword &id */
 556:rt-thread/components/finsh/finsh_compiler.c ****                     finsh_code_byte(FINSH_OP_LD_DWORD);
 557:rt-thread/components/finsh/finsh_compiler.c ****                     finsh_code_dword((long)&(var->value.short_value));
 558:rt-thread/components/finsh/finsh_compiler.c **** 
 559:rt-thread/components/finsh/finsh_compiler.c ****                     /* ld_value_word &id */
 560:rt-thread/components/finsh/finsh_compiler.c ****                     finsh_code_byte(FINSH_OP_LD_VALUE_WORD);
 561:rt-thread/components/finsh/finsh_compiler.c ****                     finsh_code_dword((long)&(var->value.short_value));
 562:rt-thread/components/finsh/finsh_compiler.c **** 
 563:rt-thread/components/finsh/finsh_compiler.c ****                     /* ld_word 1 */
 564:rt-thread/components/finsh/finsh_compiler.c ****                     finsh_code_byte(FINSH_OP_LD_WORD);
 565:rt-thread/components/finsh/finsh_compiler.c ****                     finsh_code_word(1);
 566:rt-thread/components/finsh/finsh_compiler.c **** 
 567:rt-thread/components/finsh/finsh_compiler.c ****                     /* add_byte */
 568:rt-thread/components/finsh/finsh_compiler.c ****                     finsh_code_byte(FINSH_OP_ADD_WORD);
 569:rt-thread/components/finsh/finsh_compiler.c ****                     /* get byte */
 570:rt-thread/components/finsh/finsh_compiler.c ****                     finsh_code_byte(FINSH_OP_ST_WORD);
 571:rt-thread/components/finsh/finsh_compiler.c **** 
 572:rt-thread/components/finsh/finsh_compiler.c ****                     /* pop */
 573:rt-thread/components/finsh/finsh_compiler.c ****                     finsh_code_byte(FINSH_OP_POP);
 574:rt-thread/components/finsh/finsh_compiler.c ****                     break;
 575:rt-thread/components/finsh/finsh_compiler.c **** 
 576:rt-thread/components/finsh/finsh_compiler.c ****                 case FINSH_DATA_TYPE_DWORD:
 577:rt-thread/components/finsh/finsh_compiler.c ****                     /* ld_value_dword &id */
 578:rt-thread/components/finsh/finsh_compiler.c ****                     // finsh_code_byte(FINSH_OP_LD_VALUE_DWORD);
 579:rt-thread/components/finsh/finsh_compiler.c ****                     // finsh_code_dword((long)&(var->value.long_value));
 580:rt-thread/components/finsh/finsh_compiler.c **** 
 581:rt-thread/components/finsh/finsh_compiler.c ****                     /* ld_dword &id */
 582:rt-thread/components/finsh/finsh_compiler.c ****                     finsh_code_byte(FINSH_OP_LD_DWORD);
 583:rt-thread/components/finsh/finsh_compiler.c ****                     finsh_code_dword((long)&(var->value.long_value));
 584:rt-thread/components/finsh/finsh_compiler.c **** 
 585:rt-thread/components/finsh/finsh_compiler.c ****                     /* ld_value_dword &id */
 586:rt-thread/components/finsh/finsh_compiler.c ****                     finsh_code_byte(FINSH_OP_LD_VALUE_DWORD);
 587:rt-thread/components/finsh/finsh_compiler.c ****                     finsh_code_dword((long)&(var->value.long_value));
 588:rt-thread/components/finsh/finsh_compiler.c **** 
 589:rt-thread/components/finsh/finsh_compiler.c ****                     /* ld_dword 1 */
 590:rt-thread/components/finsh/finsh_compiler.c ****                     finsh_code_byte(FINSH_OP_LD_DWORD);
 591:rt-thread/components/finsh/finsh_compiler.c ****                     finsh_code_dword(1);
 592:rt-thread/components/finsh/finsh_compiler.c **** 
 593:rt-thread/components/finsh/finsh_compiler.c ****                     /* add_byte */
 594:rt-thread/components/finsh/finsh_compiler.c ****                     finsh_code_byte(FINSH_OP_ADD_DWORD);
 595:rt-thread/components/finsh/finsh_compiler.c ****                     /* get byte */
 596:rt-thread/components/finsh/finsh_compiler.c ****                     finsh_code_byte(FINSH_OP_ST_DWORD);
 597:rt-thread/components/finsh/finsh_compiler.c **** 
 598:rt-thread/components/finsh/finsh_compiler.c ****                     /* pop */
 599:rt-thread/components/finsh/finsh_compiler.c ****                     finsh_code_byte(FINSH_OP_POP);
 600:rt-thread/components/finsh/finsh_compiler.c ****                     break;
 601:rt-thread/components/finsh/finsh_compiler.c ****                 }
 602:rt-thread/components/finsh/finsh_compiler.c ****             }
ARM GAS  /tmp/cccwEpxI.s 			page 12


 603:rt-thread/components/finsh/finsh_compiler.c ****             break;
 604:rt-thread/components/finsh/finsh_compiler.c **** 
 605:rt-thread/components/finsh/finsh_compiler.c ****         /* decrease */
 606:rt-thread/components/finsh/finsh_compiler.c ****         case FINSH_NODE_SYS_DEC:
 607:rt-thread/components/finsh/finsh_compiler.c ****             if (finsh_node_child(node) && finsh_node_child(node)->node_type == FINSH_NODE_ID)
 608:rt-thread/components/finsh/finsh_compiler.c ****             {
 609:rt-thread/components/finsh/finsh_compiler.c ****                 struct finsh_var* var;
 610:rt-thread/components/finsh/finsh_compiler.c ****                 var = finsh_node_child(node)->id.var;
 611:rt-thread/components/finsh/finsh_compiler.c **** 
 612:rt-thread/components/finsh/finsh_compiler.c ****                 switch (node->data_type)
 613:rt-thread/components/finsh/finsh_compiler.c ****                 {
 614:rt-thread/components/finsh/finsh_compiler.c ****                 case FINSH_DATA_TYPE_BYTE:
 615:rt-thread/components/finsh/finsh_compiler.c ****                     /* ld_value_byte &id */
 616:rt-thread/components/finsh/finsh_compiler.c ****                     // finsh_code_byte(FINSH_OP_LD_VALUE_BYTE);
 617:rt-thread/components/finsh/finsh_compiler.c ****                     // finsh_code_dword((long)&(var->value.char_value));
 618:rt-thread/components/finsh/finsh_compiler.c **** 
 619:rt-thread/components/finsh/finsh_compiler.c ****                     /* ld_dword &id */
 620:rt-thread/components/finsh/finsh_compiler.c ****                     finsh_code_byte(FINSH_OP_LD_DWORD);
 621:rt-thread/components/finsh/finsh_compiler.c ****                     finsh_code_dword((long)&(var->value.char_value));
 622:rt-thread/components/finsh/finsh_compiler.c **** 
 623:rt-thread/components/finsh/finsh_compiler.c ****                     /* ld_value_byte &id */
 624:rt-thread/components/finsh/finsh_compiler.c ****                     finsh_code_byte(FINSH_OP_LD_VALUE_BYTE);
 625:rt-thread/components/finsh/finsh_compiler.c ****                     finsh_code_dword((long)&(var->value.char_value));
 626:rt-thread/components/finsh/finsh_compiler.c **** 
 627:rt-thread/components/finsh/finsh_compiler.c ****                     /* ld_byte 1 */
 628:rt-thread/components/finsh/finsh_compiler.c ****                     finsh_code_byte(FINSH_OP_LD_BYTE);
 629:rt-thread/components/finsh/finsh_compiler.c ****                     finsh_code_byte(1);
 630:rt-thread/components/finsh/finsh_compiler.c **** 
 631:rt-thread/components/finsh/finsh_compiler.c ****                     /* add_byte */
 632:rt-thread/components/finsh/finsh_compiler.c ****                     finsh_code_byte(FINSH_OP_SUB_BYTE);
 633:rt-thread/components/finsh/finsh_compiler.c ****                     /* get byte */
 634:rt-thread/components/finsh/finsh_compiler.c ****                     finsh_code_byte(FINSH_OP_ST_BYTE);
 635:rt-thread/components/finsh/finsh_compiler.c **** 
 636:rt-thread/components/finsh/finsh_compiler.c ****                     /* pop */
 637:rt-thread/components/finsh/finsh_compiler.c ****                     finsh_code_byte(FINSH_OP_POP);
 638:rt-thread/components/finsh/finsh_compiler.c ****                     break;
 639:rt-thread/components/finsh/finsh_compiler.c **** 
 640:rt-thread/components/finsh/finsh_compiler.c ****                 case FINSH_DATA_TYPE_WORD:
 641:rt-thread/components/finsh/finsh_compiler.c ****                     /* ld_value_word &id */
 642:rt-thread/components/finsh/finsh_compiler.c ****                     // finsh_code_byte(FINSH_OP_LD_VALUE_WORD);
 643:rt-thread/components/finsh/finsh_compiler.c ****                     // finsh_code_dword((long)&(var->value.short_value));
 644:rt-thread/components/finsh/finsh_compiler.c **** 
 645:rt-thread/components/finsh/finsh_compiler.c ****                     /* ld_dword &id */
 646:rt-thread/components/finsh/finsh_compiler.c ****                     finsh_code_byte(FINSH_OP_LD_DWORD);
 647:rt-thread/components/finsh/finsh_compiler.c ****                     finsh_code_dword((long)&(var->value.short_value));
 648:rt-thread/components/finsh/finsh_compiler.c **** 
 649:rt-thread/components/finsh/finsh_compiler.c ****                     /* ld_value_word &id */
 650:rt-thread/components/finsh/finsh_compiler.c ****                     finsh_code_byte(FINSH_OP_LD_VALUE_WORD);
 651:rt-thread/components/finsh/finsh_compiler.c ****                     finsh_code_dword((long)&(var->value.short_value));
 652:rt-thread/components/finsh/finsh_compiler.c **** 
 653:rt-thread/components/finsh/finsh_compiler.c ****                     /* ld_word 1 */
 654:rt-thread/components/finsh/finsh_compiler.c ****                     finsh_code_byte(FINSH_OP_LD_WORD);
 655:rt-thread/components/finsh/finsh_compiler.c ****                     finsh_code_word(1);
 656:rt-thread/components/finsh/finsh_compiler.c **** 
 657:rt-thread/components/finsh/finsh_compiler.c ****                     /* add_byte */
 658:rt-thread/components/finsh/finsh_compiler.c ****                     finsh_code_byte(FINSH_OP_SUB_WORD);
 659:rt-thread/components/finsh/finsh_compiler.c ****                     /* get byte */
ARM GAS  /tmp/cccwEpxI.s 			page 13


 660:rt-thread/components/finsh/finsh_compiler.c ****                     finsh_code_byte(FINSH_OP_ST_WORD);
 661:rt-thread/components/finsh/finsh_compiler.c **** 
 662:rt-thread/components/finsh/finsh_compiler.c ****                     /* pop */
 663:rt-thread/components/finsh/finsh_compiler.c ****                     finsh_code_byte(FINSH_OP_POP);
 664:rt-thread/components/finsh/finsh_compiler.c ****                     break;
 665:rt-thread/components/finsh/finsh_compiler.c **** 
 666:rt-thread/components/finsh/finsh_compiler.c ****                 case FINSH_DATA_TYPE_DWORD:
 667:rt-thread/components/finsh/finsh_compiler.c ****                     /* ld_value_dword &id */
 668:rt-thread/components/finsh/finsh_compiler.c ****                     // finsh_code_byte(FINSH_OP_LD_VALUE_DWORD);
 669:rt-thread/components/finsh/finsh_compiler.c ****                     // finsh_code_dword((long)&(var->value.long_value));
 670:rt-thread/components/finsh/finsh_compiler.c **** 
 671:rt-thread/components/finsh/finsh_compiler.c ****                     /* ld_dword &id */
 672:rt-thread/components/finsh/finsh_compiler.c ****                     finsh_code_byte(FINSH_OP_LD_DWORD);
 673:rt-thread/components/finsh/finsh_compiler.c ****                     finsh_code_dword((long)&(var->value.long_value));
 674:rt-thread/components/finsh/finsh_compiler.c **** 
 675:rt-thread/components/finsh/finsh_compiler.c ****                     /* ld_value_dword &id */
 676:rt-thread/components/finsh/finsh_compiler.c ****                     finsh_code_byte(FINSH_OP_LD_VALUE_DWORD);
 677:rt-thread/components/finsh/finsh_compiler.c ****                     finsh_code_dword((long)&(var->value.long_value));
 678:rt-thread/components/finsh/finsh_compiler.c **** 
 679:rt-thread/components/finsh/finsh_compiler.c ****                     /* ld_dword 1 */
 680:rt-thread/components/finsh/finsh_compiler.c ****                     finsh_code_byte(FINSH_OP_LD_DWORD);
 681:rt-thread/components/finsh/finsh_compiler.c ****                     finsh_code_dword(1);
 682:rt-thread/components/finsh/finsh_compiler.c **** 
 683:rt-thread/components/finsh/finsh_compiler.c ****                     /* add_byte */
 684:rt-thread/components/finsh/finsh_compiler.c ****                     finsh_code_byte(FINSH_OP_SUB_DWORD);
 685:rt-thread/components/finsh/finsh_compiler.c ****                     /* get byte */
 686:rt-thread/components/finsh/finsh_compiler.c ****                     finsh_code_byte(FINSH_OP_ST_DWORD);
 687:rt-thread/components/finsh/finsh_compiler.c **** 
 688:rt-thread/components/finsh/finsh_compiler.c ****                     /* pop */
 689:rt-thread/components/finsh/finsh_compiler.c ****                     finsh_code_byte(FINSH_OP_POP);
 690:rt-thread/components/finsh/finsh_compiler.c ****                     break;
 691:rt-thread/components/finsh/finsh_compiler.c ****                 }
 692:rt-thread/components/finsh/finsh_compiler.c ****             }
 693:rt-thread/components/finsh/finsh_compiler.c ****             break;
 694:rt-thread/components/finsh/finsh_compiler.c **** 
 695:rt-thread/components/finsh/finsh_compiler.c ****         case FINSH_NODE_SYS_NULL:
 696:rt-thread/components/finsh/finsh_compiler.c ****             finsh_code_dword(0);
 697:rt-thread/components/finsh/finsh_compiler.c ****             break;
 698:rt-thread/components/finsh/finsh_compiler.c **** 
 699:rt-thread/components/finsh/finsh_compiler.c ****         case FINSH_NODE_SYS_GETVALUE:
 700:rt-thread/components/finsh/finsh_compiler.c ****             if (node->idtype & FINSH_IDTYPE_ADDRESS)
 701:rt-thread/components/finsh/finsh_compiler.c ****             {
 702:rt-thread/components/finsh/finsh_compiler.c ****                 /* nothing will be generated */
 703:rt-thread/components/finsh/finsh_compiler.c ****             }
 704:rt-thread/components/finsh/finsh_compiler.c ****             else
 705:rt-thread/components/finsh/finsh_compiler.c ****             {
 706:rt-thread/components/finsh/finsh_compiler.c ****                 switch (node->data_type)
 707:rt-thread/components/finsh/finsh_compiler.c ****                 {
 708:rt-thread/components/finsh/finsh_compiler.c ****                 case FINSH_DATA_TYPE_BYTE:
 709:rt-thread/components/finsh/finsh_compiler.c ****                     finsh_code_byte(FINSH_OP_LD_VALUE_BYTE_STACK);
 710:rt-thread/components/finsh/finsh_compiler.c ****                     break;
 711:rt-thread/components/finsh/finsh_compiler.c ****                 case FINSH_DATA_TYPE_WORD:
 712:rt-thread/components/finsh/finsh_compiler.c ****                     finsh_code_byte(FINSH_OP_LD_VALUE_WORD_STACK);
 713:rt-thread/components/finsh/finsh_compiler.c ****                     break;
 714:rt-thread/components/finsh/finsh_compiler.c ****                 case FINSH_DATA_TYPE_DWORD:
 715:rt-thread/components/finsh/finsh_compiler.c ****                     finsh_code_byte(FINSH_OP_LD_VALUE_DWORD_STACK);
 716:rt-thread/components/finsh/finsh_compiler.c ****                     break;
ARM GAS  /tmp/cccwEpxI.s 			page 14


 717:rt-thread/components/finsh/finsh_compiler.c ****                 default:
 718:rt-thread/components/finsh/finsh_compiler.c ****                     break;
 719:rt-thread/components/finsh/finsh_compiler.c ****                 }
 720:rt-thread/components/finsh/finsh_compiler.c ****             }
 721:rt-thread/components/finsh/finsh_compiler.c ****             break;
 722:rt-thread/components/finsh/finsh_compiler.c **** 
 723:rt-thread/components/finsh/finsh_compiler.c ****         case FINSH_NODE_SYS_GETADDR:
 724:rt-thread/components/finsh/finsh_compiler.c ****             /* nothing will be generated */
 725:rt-thread/components/finsh/finsh_compiler.c ****             break;
 726:rt-thread/components/finsh/finsh_compiler.c **** 
 727:rt-thread/components/finsh/finsh_compiler.c ****         default:
 728:rt-thread/components/finsh/finsh_compiler.c ****             finsh_error_set(FINSH_ERROR_UNKNOWN_NODE);
 729:rt-thread/components/finsh/finsh_compiler.c ****             break;
 730:rt-thread/components/finsh/finsh_compiler.c ****         }
 731:rt-thread/components/finsh/finsh_compiler.c **** 
 732:rt-thread/components/finsh/finsh_compiler.c ****         /* compile sibling node */
 733:rt-thread/components/finsh/finsh_compiler.c ****         if (finsh_node_sibling(node) != NULL)
 734:rt-thread/components/finsh/finsh_compiler.c ****             finsh_compile(finsh_node_sibling(node));
 735:rt-thread/components/finsh/finsh_compiler.c ****     }
 736:rt-thread/components/finsh/finsh_compiler.c **** 
 737:rt-thread/components/finsh/finsh_compiler.c ****     return 0;
 738:rt-thread/components/finsh/finsh_compiler.c **** }
 739:rt-thread/components/finsh/finsh_compiler.c **** 
 740:rt-thread/components/finsh/finsh_compiler.c **** static int finsh_type_check(struct finsh_node* node, uint8_t is_addr)
 741:rt-thread/components/finsh/finsh_compiler.c **** {
  27              		.loc 1 741 0
  28              		.cfi_startproc
  29              		@ args = 0, pretend = 0, frame = 0
  30              		@ frame_needed = 0, uses_anonymous_args = 0
  31              	.LVL0:
 742:rt-thread/components/finsh/finsh_compiler.c ****     if (node != NULL)
  32              		.loc 1 742 0
  33 0000 0028     		cmp	r0, #0
  34 0002 00F08980 		beq	.L27
 741:rt-thread/components/finsh/finsh_compiler.c ****     if (node != NULL)
  35              		.loc 1 741 0
  36 0006 38B5     		push	{r3, r4, r5, lr}
  37              	.LCFI0:
  38              		.cfi_def_cfa_offset 16
  39              		.cfi_offset 3, -16
  40              		.cfi_offset 4, -12
  41              		.cfi_offset 5, -8
  42              		.cfi_offset 14, -4
  43 0008 0446     		mov	r4, r0
  44 000a 0D46     		mov	r5, r1
 743:rt-thread/components/finsh/finsh_compiler.c ****     {
 744:rt-thread/components/finsh/finsh_compiler.c ****         /* address & value */
 745:rt-thread/components/finsh/finsh_compiler.c ****         if (node->node_type == FINSH_NODE_SYS_ASSIGN ||
  45              		.loc 1 745 0
  46 000c 0378     		ldrb	r3, [r0]	@ zero_extendqisi2
  47 000e 132B     		cmp	r3, #19
  48 0010 0CD0     		beq	.L3
  49              		.loc 1 745 0 is_stmt 0 discriminator 1
  50 0012 152B     		cmp	r3, #21
  51 0014 0AD0     		beq	.L3
 746:rt-thread/components/finsh/finsh_compiler.c ****             node->node_type == FINSH_NODE_SYS_PREINC ||
  52              		.loc 1 746 0 is_stmt 1
ARM GAS  /tmp/cccwEpxI.s 			page 15


  53 0016 162B     		cmp	r3, #22
  54 0018 08D0     		beq	.L3
 747:rt-thread/components/finsh/finsh_compiler.c ****             node->node_type == FINSH_NODE_SYS_PREDEC ||
  55              		.loc 1 747 0
  56 001a 1A2B     		cmp	r3, #26
  57 001c 06D0     		beq	.L3
 748:rt-thread/components/finsh/finsh_compiler.c ****             node->node_type == FINSH_NODE_SYS_GETADDR)
 749:rt-thread/components/finsh/finsh_compiler.c ****         {
 750:rt-thread/components/finsh/finsh_compiler.c ****             /* address */
 751:rt-thread/components/finsh/finsh_compiler.c ****             finsh_type_check(finsh_node_child(node), FINSH_IDTYPE_ADDRESS);
 752:rt-thread/components/finsh/finsh_compiler.c ****         }
 753:rt-thread/components/finsh/finsh_compiler.c ****         else if (node->node_type == FINSH_NODE_SYS_GETVALUE && is_addr)
  58              		.loc 1 753 0
  59 001e 192B     		cmp	r3, #25
  60 0020 17D0     		beq	.L30
  61              	.L6:
 754:rt-thread/components/finsh/finsh_compiler.c ****         {
 755:rt-thread/components/finsh/finsh_compiler.c ****             /* change the attribute of getvalue in left expr */
 756:rt-thread/components/finsh/finsh_compiler.c ****             finsh_type_check(finsh_node_child(node), 0);
 757:rt-thread/components/finsh/finsh_compiler.c ****         }
 758:rt-thread/components/finsh/finsh_compiler.c ****         else
 759:rt-thread/components/finsh/finsh_compiler.c ****         {
 760:rt-thread/components/finsh/finsh_compiler.c ****             /* transfer 'av' to child node */
 761:rt-thread/components/finsh/finsh_compiler.c ****             finsh_type_check(finsh_node_child(node), is_addr);
  62              		.loc 1 761 0
  63 0022 2946     		mov	r1, r5
  64              	.LVL1:
  65 0024 2069     		ldr	r0, [r4, #16]
  66              	.LVL2:
  67 0026 FFF7EBFF 		bl	finsh_type_check
  68              	.LVL3:
  69 002a 03E0     		b	.L5
  70              	.LVL4:
  71              	.L3:
 751:rt-thread/components/finsh/finsh_compiler.c ****         }
  72              		.loc 1 751 0
  73 002c 0821     		movs	r1, #8
  74              	.LVL5:
  75 002e 2069     		ldr	r0, [r4, #16]
  76              	.LVL6:
  77 0030 FFF7E6FF 		bl	finsh_type_check
  78              	.LVL7:
  79              	.L5:
 762:rt-thread/components/finsh/finsh_compiler.c ****         }
 763:rt-thread/components/finsh/finsh_compiler.c **** 
 764:rt-thread/components/finsh/finsh_compiler.c ****         /* always does not load address in sibling */
 765:rt-thread/components/finsh/finsh_compiler.c ****         finsh_type_check(finsh_node_sibling(node), FINSH_NODE_VALUE);
  80              		.loc 1 765 0
  81 0034 0021     		movs	r1, #0
  82 0036 E068     		ldr	r0, [r4, #12]
  83 0038 FFF7E2FF 		bl	finsh_type_check
  84              	.LVL8:
 766:rt-thread/components/finsh/finsh_compiler.c **** 
 767:rt-thread/components/finsh/finsh_compiler.c ****         /** set attribute of current node */
 768:rt-thread/components/finsh/finsh_compiler.c **** 
 769:rt-thread/components/finsh/finsh_compiler.c ****         /* make sure the current node is address or value */
 770:rt-thread/components/finsh/finsh_compiler.c ****         if (node->idtype != FINSH_IDTYPE_SYSCALL) node->idtype |= is_addr;
ARM GAS  /tmp/cccwEpxI.s 			page 16


  85              		.loc 1 770 0
  86 003c A178     		ldrb	r1, [r4, #2]	@ zero_extendqisi2
  87 003e 0429     		cmp	r1, #4
  88 0040 01D0     		beq	.L7
  89              		.loc 1 770 0 is_stmt 0 discriminator 1
  90 0042 0D43     		orrs	r5, r5, r1
  91 0044 A570     		strb	r5, [r4, #2]
  92              	.L7:
 771:rt-thread/components/finsh/finsh_compiler.c **** 
 772:rt-thread/components/finsh/finsh_compiler.c ****         if (finsh_node_child(node) != NULL)
  93              		.loc 1 772 0 is_stmt 1
  94 0046 2369     		ldr	r3, [r4, #16]
  95 0048 53B1     		cbz	r3, .L8
 773:rt-thread/components/finsh/finsh_compiler.c ****         {
 774:rt-thread/components/finsh/finsh_compiler.c ****             node->data_type = finsh_node_child(node)->data_type;
  96              		.loc 1 774 0
  97 004a 5B78     		ldrb	r3, [r3, #1]	@ zero_extendqisi2
  98 004c 6370     		strb	r3, [r4, #1]
  99              	.L2:
 775:rt-thread/components/finsh/finsh_compiler.c ****             return 0;
 776:rt-thread/components/finsh/finsh_compiler.c ****         }
 777:rt-thread/components/finsh/finsh_compiler.c **** 
 778:rt-thread/components/finsh/finsh_compiler.c ****         if (node->node_type == FINSH_NODE_ID)
 779:rt-thread/components/finsh/finsh_compiler.c ****         {
 780:rt-thread/components/finsh/finsh_compiler.c ****             if (node->idtype & FINSH_IDTYPE_VAR)
 781:rt-thread/components/finsh/finsh_compiler.c ****             {
 782:rt-thread/components/finsh/finsh_compiler.c ****                 struct finsh_var* var;
 783:rt-thread/components/finsh/finsh_compiler.c **** 
 784:rt-thread/components/finsh/finsh_compiler.c ****                 var = node->id.var;
 785:rt-thread/components/finsh/finsh_compiler.c ****                 if (var != NULL)
 786:rt-thread/components/finsh/finsh_compiler.c ****                 {
 787:rt-thread/components/finsh/finsh_compiler.c ****                     switch (var->type)
 788:rt-thread/components/finsh/finsh_compiler.c ****                     {
 789:rt-thread/components/finsh/finsh_compiler.c ****                     case finsh_type_void:
 790:rt-thread/components/finsh/finsh_compiler.c ****                         node->data_type = FINSH_DATA_TYPE_VOID;
 791:rt-thread/components/finsh/finsh_compiler.c ****                         break;
 792:rt-thread/components/finsh/finsh_compiler.c **** 
 793:rt-thread/components/finsh/finsh_compiler.c ****                     case finsh_type_char:
 794:rt-thread/components/finsh/finsh_compiler.c ****                     case finsh_type_uchar:
 795:rt-thread/components/finsh/finsh_compiler.c ****                         node->data_type = FINSH_DATA_TYPE_BYTE;
 796:rt-thread/components/finsh/finsh_compiler.c ****                         break;
 797:rt-thread/components/finsh/finsh_compiler.c **** 
 798:rt-thread/components/finsh/finsh_compiler.c ****                     case finsh_type_short:
 799:rt-thread/components/finsh/finsh_compiler.c ****                     case finsh_type_ushort:
 800:rt-thread/components/finsh/finsh_compiler.c ****                         node->data_type = FINSH_DATA_TYPE_WORD;
 801:rt-thread/components/finsh/finsh_compiler.c ****                         break;
 802:rt-thread/components/finsh/finsh_compiler.c **** 
 803:rt-thread/components/finsh/finsh_compiler.c ****                     case finsh_type_int:
 804:rt-thread/components/finsh/finsh_compiler.c ****                     case finsh_type_uint:
 805:rt-thread/components/finsh/finsh_compiler.c ****                     case finsh_type_long:
 806:rt-thread/components/finsh/finsh_compiler.c ****                     case finsh_type_ulong:
 807:rt-thread/components/finsh/finsh_compiler.c ****                         node->data_type = FINSH_DATA_TYPE_DWORD;
 808:rt-thread/components/finsh/finsh_compiler.c ****                         break;
 809:rt-thread/components/finsh/finsh_compiler.c **** 
 810:rt-thread/components/finsh/finsh_compiler.c ****                     case finsh_type_charp:
 811:rt-thread/components/finsh/finsh_compiler.c ****                     case finsh_type_voidp:
 812:rt-thread/components/finsh/finsh_compiler.c ****                     case finsh_type_shortp:
ARM GAS  /tmp/cccwEpxI.s 			page 17


 813:rt-thread/components/finsh/finsh_compiler.c ****                     case finsh_type_intp:
 814:rt-thread/components/finsh/finsh_compiler.c ****                     case finsh_type_longp:
 815:rt-thread/components/finsh/finsh_compiler.c ****                         node->data_type = FINSH_DATA_TYPE_DWORD;
 816:rt-thread/components/finsh/finsh_compiler.c ****                         break;
 817:rt-thread/components/finsh/finsh_compiler.c **** 
 818:rt-thread/components/finsh/finsh_compiler.c ****                     default:
 819:rt-thread/components/finsh/finsh_compiler.c ****                         finsh_error_set(FINSH_ERROR_UNKNOWN_TYPE);
 820:rt-thread/components/finsh/finsh_compiler.c ****                         break;
 821:rt-thread/components/finsh/finsh_compiler.c ****                     }
 822:rt-thread/components/finsh/finsh_compiler.c ****                 }
 823:rt-thread/components/finsh/finsh_compiler.c ****             }
 824:rt-thread/components/finsh/finsh_compiler.c ****             else if (node->idtype & FINSH_IDTYPE_SYSVAR)
 825:rt-thread/components/finsh/finsh_compiler.c ****             {
 826:rt-thread/components/finsh/finsh_compiler.c ****                 struct finsh_sysvar *sysvar;
 827:rt-thread/components/finsh/finsh_compiler.c **** 
 828:rt-thread/components/finsh/finsh_compiler.c ****                 sysvar = node->id.sysvar;
 829:rt-thread/components/finsh/finsh_compiler.c ****                 if (sysvar != NULL)
 830:rt-thread/components/finsh/finsh_compiler.c ****                 {
 831:rt-thread/components/finsh/finsh_compiler.c ****                     switch (sysvar->type)
 832:rt-thread/components/finsh/finsh_compiler.c ****                     {
 833:rt-thread/components/finsh/finsh_compiler.c ****                     case finsh_type_void:
 834:rt-thread/components/finsh/finsh_compiler.c ****                         node->data_type = FINSH_DATA_TYPE_VOID;
 835:rt-thread/components/finsh/finsh_compiler.c ****                         break;
 836:rt-thread/components/finsh/finsh_compiler.c **** 
 837:rt-thread/components/finsh/finsh_compiler.c ****                     case finsh_type_char:
 838:rt-thread/components/finsh/finsh_compiler.c ****                     case finsh_type_uchar:
 839:rt-thread/components/finsh/finsh_compiler.c ****                         node->data_type = FINSH_DATA_TYPE_BYTE;
 840:rt-thread/components/finsh/finsh_compiler.c ****                         break;
 841:rt-thread/components/finsh/finsh_compiler.c **** 
 842:rt-thread/components/finsh/finsh_compiler.c ****                     case finsh_type_short:
 843:rt-thread/components/finsh/finsh_compiler.c ****                     case finsh_type_ushort:
 844:rt-thread/components/finsh/finsh_compiler.c ****                         node->data_type = FINSH_DATA_TYPE_WORD;
 845:rt-thread/components/finsh/finsh_compiler.c ****                         break;
 846:rt-thread/components/finsh/finsh_compiler.c **** 
 847:rt-thread/components/finsh/finsh_compiler.c ****                     case finsh_type_int:
 848:rt-thread/components/finsh/finsh_compiler.c ****                     case finsh_type_uint:
 849:rt-thread/components/finsh/finsh_compiler.c ****                     case finsh_type_long:
 850:rt-thread/components/finsh/finsh_compiler.c ****                     case finsh_type_ulong:
 851:rt-thread/components/finsh/finsh_compiler.c ****                         node->data_type = FINSH_DATA_TYPE_DWORD;
 852:rt-thread/components/finsh/finsh_compiler.c ****                         break;
 853:rt-thread/components/finsh/finsh_compiler.c **** 
 854:rt-thread/components/finsh/finsh_compiler.c ****                     case finsh_type_charp:
 855:rt-thread/components/finsh/finsh_compiler.c ****                     case finsh_type_voidp:
 856:rt-thread/components/finsh/finsh_compiler.c ****                     case finsh_type_shortp:
 857:rt-thread/components/finsh/finsh_compiler.c ****                     case finsh_type_intp:
 858:rt-thread/components/finsh/finsh_compiler.c ****                     case finsh_type_longp:
 859:rt-thread/components/finsh/finsh_compiler.c ****                         node->data_type = FINSH_DATA_TYPE_DWORD;
 860:rt-thread/components/finsh/finsh_compiler.c ****                         break;
 861:rt-thread/components/finsh/finsh_compiler.c **** 
 862:rt-thread/components/finsh/finsh_compiler.c ****                     default:
 863:rt-thread/components/finsh/finsh_compiler.c ****                         finsh_error_set(FINSH_ERROR_UNKNOWN_TYPE);
 864:rt-thread/components/finsh/finsh_compiler.c ****                         break;
 865:rt-thread/components/finsh/finsh_compiler.c ****                     }
 866:rt-thread/components/finsh/finsh_compiler.c ****                 }
 867:rt-thread/components/finsh/finsh_compiler.c ****             }
 868:rt-thread/components/finsh/finsh_compiler.c ****         }
 869:rt-thread/components/finsh/finsh_compiler.c ****         else if (node->node_type == FINSH_NODE_VALUE_CHAR)
ARM GAS  /tmp/cccwEpxI.s 			page 18


 870:rt-thread/components/finsh/finsh_compiler.c ****         {
 871:rt-thread/components/finsh/finsh_compiler.c ****             node->data_type = FINSH_DATA_TYPE_BYTE;
 872:rt-thread/components/finsh/finsh_compiler.c ****         }
 873:rt-thread/components/finsh/finsh_compiler.c ****         else if (node->node_type == FINSH_NODE_VALUE_INT ||
 874:rt-thread/components/finsh/finsh_compiler.c ****             node->node_type == FINSH_NODE_VALUE_LONG    ||
 875:rt-thread/components/finsh/finsh_compiler.c ****             node->node_type == FINSH_NODE_VALUE_STRING  ||
 876:rt-thread/components/finsh/finsh_compiler.c ****             node->node_type == FINSH_NODE_VALUE_NULL)
 877:rt-thread/components/finsh/finsh_compiler.c ****         {
 878:rt-thread/components/finsh/finsh_compiler.c ****             node->data_type = FINSH_DATA_TYPE_DWORD;
 879:rt-thread/components/finsh/finsh_compiler.c ****         }
 880:rt-thread/components/finsh/finsh_compiler.c ****     }
 881:rt-thread/components/finsh/finsh_compiler.c ****     return 0;
 882:rt-thread/components/finsh/finsh_compiler.c **** }
 100              		.loc 1 882 0
 101 004e 0020     		movs	r0, #0
 102 0050 38BD     		pop	{r3, r4, r5, pc}
 103              	.LVL9:
 104              	.L30:
 753:rt-thread/components/finsh/finsh_compiler.c ****         {
 105              		.loc 1 753 0 discriminator 1
 106 0052 0029     		cmp	r1, #0
 107 0054 E5D0     		beq	.L6
 756:rt-thread/components/finsh/finsh_compiler.c ****         }
 108              		.loc 1 756 0
 109 0056 0021     		movs	r1, #0
 110              	.LVL10:
 111 0058 0069     		ldr	r0, [r0, #16]
 112              	.LVL11:
 113 005a FFF7D1FF 		bl	finsh_type_check
 114              	.LVL12:
 115 005e E9E7     		b	.L5
 116              	.L8:
 778:rt-thread/components/finsh/finsh_compiler.c ****         {
 117              		.loc 1 778 0
 118 0060 2378     		ldrb	r3, [r4]	@ zero_extendqisi2
 119 0062 012B     		cmp	r3, #1
 120 0064 08D0     		beq	.L31
 869:rt-thread/components/finsh/finsh_compiler.c ****         {
 121              		.loc 1 869 0
 122 0066 022B     		cmp	r3, #2
 123 0068 53D0     		beq	.L32
 875:rt-thread/components/finsh/finsh_compiler.c ****             node->node_type == FINSH_NODE_VALUE_NULL)
 124              		.loc 1 875 0
 125 006a 033B     		subs	r3, r3, #3
 126 006c DBB2     		uxtb	r3, r3
 873:rt-thread/components/finsh/finsh_compiler.c ****             node->node_type == FINSH_NODE_VALUE_LONG    ||
 127              		.loc 1 873 0
 128 006e 032B     		cmp	r3, #3
 129 0070 EDD8     		bhi	.L2
 878:rt-thread/components/finsh/finsh_compiler.c ****         }
 130              		.loc 1 878 0
 131 0072 0323     		movs	r3, #3
 132 0074 6370     		strb	r3, [r4, #1]
 133 0076 EAE7     		b	.L2
 134              	.L31:
 780:rt-thread/components/finsh/finsh_compiler.c ****             {
 135              		.loc 1 780 0
ARM GAS  /tmp/cccwEpxI.s 			page 19


 136 0078 A378     		ldrb	r3, [r4, #2]	@ zero_extendqisi2
 137 007a 13F0010F 		tst	r3, #1
 138 007e 22D0     		beq	.L10
 139              	.LBB2:
 784:rt-thread/components/finsh/finsh_compiler.c ****                 if (var != NULL)
 140              		.loc 1 784 0
 141 0080 A368     		ldr	r3, [r4, #8]
 142              	.LVL13:
 785:rt-thread/components/finsh/finsh_compiler.c ****                 {
 143              		.loc 1 785 0
 144 0082 002B     		cmp	r3, #0
 145 0084 E3D0     		beq	.L2
 787:rt-thread/components/finsh/finsh_compiler.c ****                     {
 146              		.loc 1 787 0
 147 0086 5B7C     		ldrb	r3, [r3, #17]	@ zero_extendqisi2
 148              	.LVL14:
 149 0088 013B     		subs	r3, r3, #1
 150 008a 0D2B     		cmp	r3, #13
 151 008c 17D8     		bhi	.L11
 152 008e DFE803F0 		tbb	[pc, r3]
 153              	.L13:
 154 0092 07       		.byte	(.L12-.L13)/2
 155 0093 13       		.byte	(.L14-.L13)/2
 156 0094 0A       		.byte	(.L15-.L13)/2
 157 0095 0A       		.byte	(.L15-.L13)/2
 158 0096 13       		.byte	(.L14-.L13)/2
 159 0097 0D       		.byte	(.L16-.L13)/2
 160 0098 0D       		.byte	(.L16-.L13)/2
 161 0099 13       		.byte	(.L14-.L13)/2
 162 009a 10       		.byte	(.L17-.L13)/2
 163 009b 10       		.byte	(.L17-.L13)/2
 164 009c 13       		.byte	(.L14-.L13)/2
 165 009d 10       		.byte	(.L17-.L13)/2
 166 009e 10       		.byte	(.L17-.L13)/2
 167 009f 13       		.byte	(.L14-.L13)/2
 168              		.p2align 1
 169              	.L12:
 790:rt-thread/components/finsh/finsh_compiler.c ****                         break;
 170              		.loc 1 790 0
 171 00a0 0023     		movs	r3, #0
 172 00a2 6370     		strb	r3, [r4, #1]
 791:rt-thread/components/finsh/finsh_compiler.c **** 
 173              		.loc 1 791 0
 174 00a4 D3E7     		b	.L2
 175              	.L15:
 795:rt-thread/components/finsh/finsh_compiler.c ****                         break;
 176              		.loc 1 795 0
 177 00a6 0123     		movs	r3, #1
 178 00a8 6370     		strb	r3, [r4, #1]
 796:rt-thread/components/finsh/finsh_compiler.c **** 
 179              		.loc 1 796 0
 180 00aa D0E7     		b	.L2
 181              	.L16:
 800:rt-thread/components/finsh/finsh_compiler.c ****                         break;
 182              		.loc 1 800 0
 183 00ac 0223     		movs	r3, #2
 184 00ae 6370     		strb	r3, [r4, #1]
ARM GAS  /tmp/cccwEpxI.s 			page 20


 801:rt-thread/components/finsh/finsh_compiler.c **** 
 185              		.loc 1 801 0
 186 00b0 CDE7     		b	.L2
 187              	.L17:
 807:rt-thread/components/finsh/finsh_compiler.c ****                         break;
 188              		.loc 1 807 0
 189 00b2 0323     		movs	r3, #3
 190 00b4 6370     		strb	r3, [r4, #1]
 808:rt-thread/components/finsh/finsh_compiler.c **** 
 191              		.loc 1 808 0
 192 00b6 CAE7     		b	.L2
 193              	.L14:
 815:rt-thread/components/finsh/finsh_compiler.c ****                         break;
 194              		.loc 1 815 0
 195 00b8 0323     		movs	r3, #3
 196 00ba 6370     		strb	r3, [r4, #1]
 816:rt-thread/components/finsh/finsh_compiler.c **** 
 197              		.loc 1 816 0
 198 00bc C7E7     		b	.L2
 199              	.L11:
 819:rt-thread/components/finsh/finsh_compiler.c ****                         break;
 200              		.loc 1 819 0
 201 00be 0320     		movs	r0, #3
 202 00c0 FFF7FEFF 		bl	finsh_error_set
 203              	.LVL15:
 820:rt-thread/components/finsh/finsh_compiler.c ****                     }
 204              		.loc 1 820 0
 205 00c4 C3E7     		b	.L2
 206              	.L10:
 207              	.LBE2:
 824:rt-thread/components/finsh/finsh_compiler.c ****             {
 208              		.loc 1 824 0
 209 00c6 13F0020F 		tst	r3, #2
 210 00ca C0D0     		beq	.L2
 211              	.LBB3:
 828:rt-thread/components/finsh/finsh_compiler.c ****                 if (sysvar != NULL)
 212              		.loc 1 828 0
 213 00cc A368     		ldr	r3, [r4, #8]
 214              	.LVL16:
 829:rt-thread/components/finsh/finsh_compiler.c ****                 {
 215              		.loc 1 829 0
 216 00ce 002B     		cmp	r3, #0
 217 00d0 BDD0     		beq	.L2
 831:rt-thread/components/finsh/finsh_compiler.c ****                     {
 218              		.loc 1 831 0
 219 00d2 1B79     		ldrb	r3, [r3, #4]	@ zero_extendqisi2
 220              	.LVL17:
 221 00d4 013B     		subs	r3, r3, #1
 222 00d6 0D2B     		cmp	r3, #13
 223 00d8 17D8     		bhi	.L18
 224 00da DFE803F0 		tbb	[pc, r3]
 225              	.L20:
 226 00de 07       		.byte	(.L19-.L20)/2
 227 00df 13       		.byte	(.L21-.L20)/2
 228 00e0 0A       		.byte	(.L22-.L20)/2
 229 00e1 0A       		.byte	(.L22-.L20)/2
 230 00e2 13       		.byte	(.L21-.L20)/2
ARM GAS  /tmp/cccwEpxI.s 			page 21


 231 00e3 0D       		.byte	(.L23-.L20)/2
 232 00e4 0D       		.byte	(.L23-.L20)/2
 233 00e5 13       		.byte	(.L21-.L20)/2
 234 00e6 10       		.byte	(.L24-.L20)/2
 235 00e7 10       		.byte	(.L24-.L20)/2
 236 00e8 13       		.byte	(.L21-.L20)/2
 237 00e9 10       		.byte	(.L24-.L20)/2
 238 00ea 10       		.byte	(.L24-.L20)/2
 239 00eb 13       		.byte	(.L21-.L20)/2
 240              		.p2align 1
 241              	.L19:
 834:rt-thread/components/finsh/finsh_compiler.c ****                         break;
 242              		.loc 1 834 0
 243 00ec 0023     		movs	r3, #0
 244 00ee 6370     		strb	r3, [r4, #1]
 835:rt-thread/components/finsh/finsh_compiler.c **** 
 245              		.loc 1 835 0
 246 00f0 ADE7     		b	.L2
 247              	.L22:
 839:rt-thread/components/finsh/finsh_compiler.c ****                         break;
 248              		.loc 1 839 0
 249 00f2 0123     		movs	r3, #1
 250 00f4 6370     		strb	r3, [r4, #1]
 840:rt-thread/components/finsh/finsh_compiler.c **** 
 251              		.loc 1 840 0
 252 00f6 AAE7     		b	.L2
 253              	.L23:
 844:rt-thread/components/finsh/finsh_compiler.c ****                         break;
 254              		.loc 1 844 0
 255 00f8 0223     		movs	r3, #2
 256 00fa 6370     		strb	r3, [r4, #1]
 845:rt-thread/components/finsh/finsh_compiler.c **** 
 257              		.loc 1 845 0
 258 00fc A7E7     		b	.L2
 259              	.L24:
 851:rt-thread/components/finsh/finsh_compiler.c ****                         break;
 260              		.loc 1 851 0
 261 00fe 0323     		movs	r3, #3
 262 0100 6370     		strb	r3, [r4, #1]
 852:rt-thread/components/finsh/finsh_compiler.c **** 
 263              		.loc 1 852 0
 264 0102 A4E7     		b	.L2
 265              	.L21:
 859:rt-thread/components/finsh/finsh_compiler.c ****                         break;
 266              		.loc 1 859 0
 267 0104 0323     		movs	r3, #3
 268 0106 6370     		strb	r3, [r4, #1]
 860:rt-thread/components/finsh/finsh_compiler.c **** 
 269              		.loc 1 860 0
 270 0108 A1E7     		b	.L2
 271              	.L18:
 863:rt-thread/components/finsh/finsh_compiler.c ****                         break;
 272              		.loc 1 863 0
 273 010a 0320     		movs	r0, #3
 274 010c FFF7FEFF 		bl	finsh_error_set
 275              	.LVL18:
 864:rt-thread/components/finsh/finsh_compiler.c ****                     }
ARM GAS  /tmp/cccwEpxI.s 			page 22


 276              		.loc 1 864 0
 277 0110 9DE7     		b	.L2
 278              	.L32:
 279              	.LBE3:
 871:rt-thread/components/finsh/finsh_compiler.c ****         }
 280              		.loc 1 871 0
 281 0112 0123     		movs	r3, #1
 282 0114 6370     		strb	r3, [r4, #1]
 283 0116 9AE7     		b	.L2
 284              	.LVL19:
 285              	.L27:
 286              	.LCFI1:
 287              		.cfi_def_cfa_offset 0
 288              		.cfi_restore 3
 289              		.cfi_restore 4
 290              		.cfi_restore 5
 291              		.cfi_restore 14
 292              		.loc 1 882 0
 293 0118 0020     		movs	r0, #0
 294              	.LVL20:
 295 011a 7047     		bx	lr
 296              		.cfi_endproc
 297              	.LFE17:
 299              		.section	.text.finsh_compile,"ax",%progbits
 300              		.align	1
 301              		.syntax unified
 302              		.thumb
 303              		.thumb_func
 304              		.fpu fpv4-sp-d16
 306              	finsh_compile:
 307              	.LFB16:
  25:rt-thread/components/finsh/finsh_compiler.c ****     if (node != NULL)
 308              		.loc 1 25 0
 309              		.cfi_startproc
 310              		@ args = 0, pretend = 0, frame = 0
 311              		@ frame_needed = 0, uses_anonymous_args = 0
 312              	.LVL21:
  26:rt-thread/components/finsh/finsh_compiler.c ****     {
 313              		.loc 1 26 0
 314 0000 0028     		cmp	r0, #0
 315 0002 00F0BF85 		beq	.L135
  25:rt-thread/components/finsh/finsh_compiler.c ****     if (node != NULL)
 316              		.loc 1 25 0
 317 0006 F8B5     		push	{r3, r4, r5, r6, r7, lr}
 318              	.LCFI2:
 319              		.cfi_def_cfa_offset 24
 320              		.cfi_offset 3, -24
 321              		.cfi_offset 4, -20
 322              		.cfi_offset 5, -16
 323              		.cfi_offset 6, -12
 324              		.cfi_offset 7, -8
 325              		.cfi_offset 14, -4
 326 0008 0446     		mov	r4, r0
  29:rt-thread/components/finsh/finsh_compiler.c ****             finsh_compile(finsh_node_child(node));
 327              		.loc 1 29 0
 328 000a 0069     		ldr	r0, [r0, #16]
 329              	.LVL22:
ARM GAS  /tmp/cccwEpxI.s 			page 23


 330 000c 08B1     		cbz	r0, .L35
  30:rt-thread/components/finsh/finsh_compiler.c **** 
 331              		.loc 1 30 0
 332 000e FFF7F7FF 		bl	finsh_compile
 333              	.LVL23:
 334              	.L35:
  33:rt-thread/components/finsh/finsh_compiler.c ****         {
 335              		.loc 1 33 0
 336 0012 2378     		ldrb	r3, [r4]	@ zero_extendqisi2
 337 0014 013B     		subs	r3, r3, #1
 338 0016 1A2B     		cmp	r3, #26
 339 0018 00F2AF85 		bhi	.L36
 340 001c DFE813F0 		tbh	[pc, r3, lsl #1]
 341              	.L38:
 342 0020 1B00     		.2byte	(.L37-.L38)/2
 343 0022 3301     		.2byte	(.L39-.L38)/2
 344 0024 4801     		.2byte	(.L40-.L38)/2
 345 0026 4801     		.2byte	(.L40-.L38)/2
 346 0028 5F01     		.2byte	(.L41-.L38)/2
 347 002a 5F01     		.2byte	(.L41-.L38)/2
 348 002c 7601     		.2byte	(.L42-.L38)/2
 349 002e 9501     		.2byte	(.L43-.L38)/2
 350 0030 B401     		.2byte	(.L44-.L38)/2
 351 0032 D301     		.2byte	(.L45-.L38)/2
 352 0034 F301     		.2byte	(.L46-.L38)/2
 353 0036 1302     		.2byte	(.L47-.L38)/2
 354 0038 3302     		.2byte	(.L48-.L38)/2
 355 003a 5302     		.2byte	(.L49-.L38)/2
 356 003c 7302     		.2byte	(.L50-.L38)/2
 357 003e 9602     		.2byte	(.L51-.L38)/2
 358 0040 B602     		.2byte	(.L52-.L38)/2
 359 0042 D602     		.2byte	(.L53-.L38)/2
 360 0044 ED02     		.2byte	(.L54-.L38)/2
 361 0046 AD05     		.2byte	(.L36-.L38)/2
 362 0048 5C03     		.2byte	(.L55-.L38)/2
 363 004a D403     		.2byte	(.L56-.L38)/2
 364 004c 4B04     		.2byte	(.L57-.L38)/2
 365 004e DE04     		.2byte	(.L58-.L38)/2
 366 0050 8505     		.2byte	(.L59-.L38)/2
 367 0052 3F01     		.2byte	(.L60-.L38)/2
 368 0054 7605     		.2byte	(.L61-.L38)/2
 369              		.p2align 1
 370              	.L37:
  38:rt-thread/components/finsh/finsh_compiler.c ****                 {
 371              		.loc 1 38 0
 372 0056 A378     		ldrb	r3, [r4, #2]	@ zero_extendqisi2
 373 0058 13F0040F 		tst	r3, #4
 374 005c 1AD0     		beq	.L62
  41:rt-thread/components/finsh/finsh_compiler.c ****                     finsh_code_dword((long)node->id.syscall->func);
 375              		.loc 1 41 0
 376 005e 934B     		ldr	r3, .L163
 377 0060 1A68     		ldr	r2, [r3]
 378 0062 2421     		movs	r1, #36
 379 0064 1170     		strb	r1, [r2]
 380 0066 1A68     		ldr	r2, [r3]
 381 0068 511C     		adds	r1, r2, #1
 382 006a 1960     		str	r1, [r3]
ARM GAS  /tmp/cccwEpxI.s 			page 24


  42:rt-thread/components/finsh/finsh_compiler.c ****                 }
 383              		.loc 1 42 0
 384 006c A168     		ldr	r1, [r4, #8]
 385 006e 4968     		ldr	r1, [r1, #4]
 386 0070 5170     		strb	r1, [r2, #1]
 387 0072 1968     		ldr	r1, [r3]
 388 0074 A268     		ldr	r2, [r4, #8]
 389 0076 5268     		ldr	r2, [r2, #4]
 390 0078 120A     		lsrs	r2, r2, #8
 391 007a 4A70     		strb	r2, [r1, #1]
 392 007c 1A68     		ldr	r2, [r3]
 393 007e A168     		ldr	r1, [r4, #8]
 394 0080 C988     		ldrh	r1, [r1, #6]
 395 0082 9170     		strb	r1, [r2, #2]
 396 0084 1A68     		ldr	r2, [r3]
 397 0086 A168     		ldr	r1, [r4, #8]
 398 0088 C979     		ldrb	r1, [r1, #7]	@ zero_extendqisi2
 399 008a D170     		strb	r1, [r2, #3]
 400 008c 1A68     		ldr	r2, [r3]
 401 008e 0432     		adds	r2, r2, #4
 402 0090 1A60     		str	r2, [r3]
 403 0092 04E1     		b	.L60
 404              	.L62:
  45:rt-thread/components/finsh/finsh_compiler.c ****                 {
 405              		.loc 1 45 0
 406 0094 13F0020F 		tst	r3, #2
 407 0098 7CD0     		beq	.L63
 408              	.LBB4:
  49:rt-thread/components/finsh/finsh_compiler.c ****                     if (sysvar != NULL)
 409              		.loc 1 49 0
 410 009a A268     		ldr	r2, [r4, #8]
 411              	.LVL24:
  50:rt-thread/components/finsh/finsh_compiler.c ****                     {
 412              		.loc 1 50 0
 413 009c 002A     		cmp	r2, #0
 414 009e 00F0FE80 		beq	.L60
  52:rt-thread/components/finsh/finsh_compiler.c ****                         {
 415              		.loc 1 52 0
 416 00a2 1179     		ldrb	r1, [r2, #4]	@ zero_extendqisi2
 417 00a4 0339     		subs	r1, r1, #3
 418 00a6 0B29     		cmp	r1, #11
 419 00a8 00F2F980 		bhi	.L60
 420 00ac DFE801F0 		tbb	[pc, r1]
 421              	.L65:
 422 00b0 06       		.byte	(.L64-.L65)/2
 423 00b1 06       		.byte	(.L64-.L65)/2
 424 00b2 4E       		.byte	(.L66-.L65)/2
 425 00b3 2A       		.byte	(.L67-.L65)/2
 426 00b4 2A       		.byte	(.L67-.L65)/2
 427 00b5 4E       		.byte	(.L66-.L65)/2
 428 00b6 4E       		.byte	(.L66-.L65)/2
 429 00b7 4E       		.byte	(.L66-.L65)/2
 430 00b8 4E       		.byte	(.L66-.L65)/2
 431 00b9 4E       		.byte	(.L66-.L65)/2
 432 00ba 4E       		.byte	(.L66-.L65)/2
 433 00bb 4E       		.byte	(.L66-.L65)/2
 434              		.p2align 1
ARM GAS  /tmp/cccwEpxI.s 			page 25


 435              	.L64:
  56:rt-thread/components/finsh/finsh_compiler.c ****                             {
 436              		.loc 1 56 0
 437 00bc 13F0080F 		tst	r3, #8
 438 00c0 18D0     		beq	.L68
  59:rt-thread/components/finsh/finsh_compiler.c ****                             }
 439              		.loc 1 59 0
 440 00c2 7A4B     		ldr	r3, .L163
 441 00c4 1968     		ldr	r1, [r3]
 442 00c6 2420     		movs	r0, #36
 443 00c8 0870     		strb	r0, [r1]
 444 00ca 1968     		ldr	r1, [r3]
 445 00cc 0131     		adds	r1, r1, #1
 446 00ce 1960     		str	r1, [r3]
 447              	.L69:
  67:rt-thread/components/finsh/finsh_compiler.c ****                             break;
 448              		.loc 1 67 0
 449 00d0 764B     		ldr	r3, .L163
 450 00d2 1968     		ldr	r1, [r3]
 451 00d4 9068     		ldr	r0, [r2, #8]
 452 00d6 0870     		strb	r0, [r1]
 453 00d8 1868     		ldr	r0, [r3]
 454 00da 9168     		ldr	r1, [r2, #8]
 455 00dc 090A     		lsrs	r1, r1, #8
 456 00de 4170     		strb	r1, [r0, #1]
 457 00e0 1968     		ldr	r1, [r3]
 458 00e2 5089     		ldrh	r0, [r2, #10]
 459 00e4 8870     		strb	r0, [r1, #2]
 460 00e6 1968     		ldr	r1, [r3]
 461 00e8 D27A     		ldrb	r2, [r2, #11]	@ zero_extendqisi2
 462              	.LVL25:
 463 00ea CA70     		strb	r2, [r1, #3]
 464 00ec 1A68     		ldr	r2, [r3]
 465 00ee 0432     		adds	r2, r2, #4
 466 00f0 1A60     		str	r2, [r3]
  68:rt-thread/components/finsh/finsh_compiler.c **** 
 467              		.loc 1 68 0
 468 00f2 D4E0     		b	.L60
 469              	.LVL26:
 470              	.L68:
  64:rt-thread/components/finsh/finsh_compiler.c ****                             }
 471              		.loc 1 64 0
 472 00f4 6D4B     		ldr	r3, .L163
 473 00f6 1968     		ldr	r1, [r3]
 474 00f8 2520     		movs	r0, #37
 475 00fa 0870     		strb	r0, [r1]
 476 00fc 1968     		ldr	r1, [r3]
 477 00fe 0131     		adds	r1, r1, #1
 478 0100 1960     		str	r1, [r3]
 479 0102 E5E7     		b	.L69
 480              	.L67:
  72:rt-thread/components/finsh/finsh_compiler.c ****                             {
 481              		.loc 1 72 0
 482 0104 13F0080F 		tst	r3, #8
 483 0108 18D0     		beq	.L70
  75:rt-thread/components/finsh/finsh_compiler.c ****                             }
 484              		.loc 1 75 0
ARM GAS  /tmp/cccwEpxI.s 			page 26


 485 010a 684B     		ldr	r3, .L163
 486 010c 1968     		ldr	r1, [r3]
 487 010e 2420     		movs	r0, #36
 488 0110 0870     		strb	r0, [r1]
 489 0112 1968     		ldr	r1, [r3]
 490 0114 0131     		adds	r1, r1, #1
 491 0116 1960     		str	r1, [r3]
 492              	.L71:
  83:rt-thread/components/finsh/finsh_compiler.c ****                             break;
 493              		.loc 1 83 0
 494 0118 644B     		ldr	r3, .L163
 495 011a 1968     		ldr	r1, [r3]
 496 011c 9068     		ldr	r0, [r2, #8]
 497 011e 0870     		strb	r0, [r1]
 498 0120 1868     		ldr	r0, [r3]
 499 0122 9168     		ldr	r1, [r2, #8]
 500 0124 090A     		lsrs	r1, r1, #8
 501 0126 4170     		strb	r1, [r0, #1]
 502 0128 1968     		ldr	r1, [r3]
 503 012a 5089     		ldrh	r0, [r2, #10]
 504 012c 8870     		strb	r0, [r1, #2]
 505 012e 1968     		ldr	r1, [r3]
 506 0130 D27A     		ldrb	r2, [r2, #11]	@ zero_extendqisi2
 507              	.LVL27:
 508 0132 CA70     		strb	r2, [r1, #3]
 509 0134 1A68     		ldr	r2, [r3]
 510 0136 0432     		adds	r2, r2, #4
 511 0138 1A60     		str	r2, [r3]
  84:rt-thread/components/finsh/finsh_compiler.c **** 
 512              		.loc 1 84 0
 513 013a B0E0     		b	.L60
 514              	.LVL28:
 515              	.L70:
  80:rt-thread/components/finsh/finsh_compiler.c ****                             }
 516              		.loc 1 80 0
 517 013c 5B4B     		ldr	r3, .L163
 518 013e 1968     		ldr	r1, [r3]
 519 0140 2620     		movs	r0, #38
 520 0142 0870     		strb	r0, [r1]
 521 0144 1968     		ldr	r1, [r3]
 522 0146 0131     		adds	r1, r1, #1
 523 0148 1960     		str	r1, [r3]
 524 014a E5E7     		b	.L71
 525              	.L66:
  94:rt-thread/components/finsh/finsh_compiler.c ****                             {
 526              		.loc 1 94 0
 527 014c 13F0080F 		tst	r3, #8
 528 0150 18D0     		beq	.L72
  97:rt-thread/components/finsh/finsh_compiler.c ****                             }
 529              		.loc 1 97 0
 530 0152 564B     		ldr	r3, .L163
 531 0154 1968     		ldr	r1, [r3]
 532 0156 2420     		movs	r0, #36
 533 0158 0870     		strb	r0, [r1]
 534 015a 1968     		ldr	r1, [r3]
 535 015c 0131     		adds	r1, r1, #1
 536 015e 1960     		str	r1, [r3]
ARM GAS  /tmp/cccwEpxI.s 			page 27


 537              	.L73:
 105:rt-thread/components/finsh/finsh_compiler.c ****                             break;
 538              		.loc 1 105 0
 539 0160 524B     		ldr	r3, .L163
 540 0162 1968     		ldr	r1, [r3]
 541 0164 9068     		ldr	r0, [r2, #8]
 542 0166 0870     		strb	r0, [r1]
 543 0168 1868     		ldr	r0, [r3]
 544 016a 9168     		ldr	r1, [r2, #8]
 545 016c 090A     		lsrs	r1, r1, #8
 546 016e 4170     		strb	r1, [r0, #1]
 547 0170 1968     		ldr	r1, [r3]
 548 0172 5089     		ldrh	r0, [r2, #10]
 549 0174 8870     		strb	r0, [r1, #2]
 550 0176 1968     		ldr	r1, [r3]
 551 0178 D27A     		ldrb	r2, [r2, #11]	@ zero_extendqisi2
 552              	.LVL29:
 553 017a CA70     		strb	r2, [r1, #3]
 554 017c 1A68     		ldr	r2, [r3]
 555 017e 0432     		adds	r2, r2, #4
 556 0180 1A60     		str	r2, [r3]
 106:rt-thread/components/finsh/finsh_compiler.c ****                         }
 557              		.loc 1 106 0
 558 0182 8CE0     		b	.L60
 559              	.LVL30:
 560              	.L72:
 102:rt-thread/components/finsh/finsh_compiler.c ****                             }
 561              		.loc 1 102 0
 562 0184 494B     		ldr	r3, .L163
 563 0186 1968     		ldr	r1, [r3]
 564 0188 2720     		movs	r0, #39
 565 018a 0870     		strb	r0, [r1]
 566 018c 1968     		ldr	r1, [r3]
 567 018e 0131     		adds	r1, r1, #1
 568 0190 1960     		str	r1, [r3]
 569 0192 E5E7     		b	.L73
 570              	.LVL31:
 571              	.L63:
 572              	.LBE4:
 573              	.LBB5:
 115:rt-thread/components/finsh/finsh_compiler.c ****                     if (var != NULL)
 574              		.loc 1 115 0
 575 0194 A268     		ldr	r2, [r4, #8]
 576              	.LVL32:
 116:rt-thread/components/finsh/finsh_compiler.c ****                     {
 577              		.loc 1 116 0
 578 0196 002A     		cmp	r2, #0
 579 0198 00F08180 		beq	.L60
 118:rt-thread/components/finsh/finsh_compiler.c ****                         {
 580              		.loc 1 118 0
 581 019c 517C     		ldrb	r1, [r2, #17]	@ zero_extendqisi2
 582 019e 0339     		subs	r1, r1, #3
 583 01a0 0B29     		cmp	r1, #11
 584 01a2 7CD8     		bhi	.L60
 585 01a4 DFE801F0 		tbb	[pc, r1]
 586              	.L75:
 587 01a8 06       		.byte	(.L74-.L75)/2
ARM GAS  /tmp/cccwEpxI.s 			page 28


 588 01a9 06       		.byte	(.L74-.L75)/2
 589 01aa 4C       		.byte	(.L76-.L75)/2
 590 01ab 29       		.byte	(.L77-.L75)/2
 591 01ac 29       		.byte	(.L77-.L75)/2
 592 01ad 4C       		.byte	(.L76-.L75)/2
 593 01ae 4C       		.byte	(.L76-.L75)/2
 594 01af 4C       		.byte	(.L76-.L75)/2
 595 01b0 4C       		.byte	(.L76-.L75)/2
 596 01b1 4C       		.byte	(.L76-.L75)/2
 597 01b2 4C       		.byte	(.L76-.L75)/2
 598 01b3 4C       		.byte	(.L76-.L75)/2
 599              		.p2align 1
 600              	.L74:
 122:rt-thread/components/finsh/finsh_compiler.c ****                             {
 601              		.loc 1 122 0
 602 01b4 13F0080F 		tst	r3, #8
 603 01b8 17D0     		beq	.L78
 125:rt-thread/components/finsh/finsh_compiler.c ****                             }
 604              		.loc 1 125 0
 605 01ba 3C4B     		ldr	r3, .L163
 606 01bc 1968     		ldr	r1, [r3]
 607 01be 2420     		movs	r0, #36
 608 01c0 0870     		strb	r0, [r1]
 609 01c2 1968     		ldr	r1, [r3]
 610 01c4 0131     		adds	r1, r1, #1
 611 01c6 1960     		str	r1, [r3]
 612              	.L79:
 133:rt-thread/components/finsh/finsh_compiler.c ****                             break;
 613              		.loc 1 133 0
 614 01c8 384B     		ldr	r3, .L163
 615 01ca 1968     		ldr	r1, [r3]
 616 01cc 1432     		adds	r2, r2, #20
 617              	.LVL33:
 618 01ce 0A70     		strb	r2, [r1]
 619 01d0 1968     		ldr	r1, [r3]
 620 01d2 100A     		lsrs	r0, r2, #8
 621 01d4 4870     		strb	r0, [r1, #1]
 622 01d6 1968     		ldr	r1, [r3]
 623 01d8 100C     		lsrs	r0, r2, #16
 624 01da 8870     		strb	r0, [r1, #2]
 625 01dc 1968     		ldr	r1, [r3]
 626 01de 120E     		lsrs	r2, r2, #24
 627              	.LVL34:
 628 01e0 CA70     		strb	r2, [r1, #3]
 629 01e2 1A68     		ldr	r2, [r3]
 630 01e4 0432     		adds	r2, r2, #4
 631 01e6 1A60     		str	r2, [r3]
 134:rt-thread/components/finsh/finsh_compiler.c **** 
 632              		.loc 1 134 0
 633 01e8 59E0     		b	.L60
 634              	.LVL35:
 635              	.L78:
 130:rt-thread/components/finsh/finsh_compiler.c ****                             }
 636              		.loc 1 130 0
 637 01ea 304B     		ldr	r3, .L163
 638 01ec 1968     		ldr	r1, [r3]
 639 01ee 2520     		movs	r0, #37
ARM GAS  /tmp/cccwEpxI.s 			page 29


 640 01f0 0870     		strb	r0, [r1]
 641 01f2 1968     		ldr	r1, [r3]
 642 01f4 0131     		adds	r1, r1, #1
 643 01f6 1960     		str	r1, [r3]
 644 01f8 E6E7     		b	.L79
 645              	.L77:
 138:rt-thread/components/finsh/finsh_compiler.c ****                             {
 646              		.loc 1 138 0
 647 01fa 13F0080F 		tst	r3, #8
 648 01fe 17D0     		beq	.L80
 141:rt-thread/components/finsh/finsh_compiler.c ****                             }
 649              		.loc 1 141 0
 650 0200 2A4B     		ldr	r3, .L163
 651 0202 1968     		ldr	r1, [r3]
 652 0204 2420     		movs	r0, #36
 653 0206 0870     		strb	r0, [r1]
 654 0208 1968     		ldr	r1, [r3]
 655 020a 0131     		adds	r1, r1, #1
 656 020c 1960     		str	r1, [r3]
 657              	.L81:
 149:rt-thread/components/finsh/finsh_compiler.c ****                             break;
 658              		.loc 1 149 0
 659 020e 274B     		ldr	r3, .L163
 660 0210 1968     		ldr	r1, [r3]
 661 0212 1432     		adds	r2, r2, #20
 662              	.LVL36:
 663 0214 0A70     		strb	r2, [r1]
 664 0216 1968     		ldr	r1, [r3]
 665 0218 100A     		lsrs	r0, r2, #8
 666 021a 4870     		strb	r0, [r1, #1]
 667 021c 1968     		ldr	r1, [r3]
 668 021e 100C     		lsrs	r0, r2, #16
 669 0220 8870     		strb	r0, [r1, #2]
 670 0222 1968     		ldr	r1, [r3]
 671 0224 120E     		lsrs	r2, r2, #24
 672              	.LVL37:
 673 0226 CA70     		strb	r2, [r1, #3]
 674 0228 1A68     		ldr	r2, [r3]
 675 022a 0432     		adds	r2, r2, #4
 676 022c 1A60     		str	r2, [r3]
 150:rt-thread/components/finsh/finsh_compiler.c **** 
 677              		.loc 1 150 0
 678 022e 36E0     		b	.L60
 679              	.LVL38:
 680              	.L80:
 146:rt-thread/components/finsh/finsh_compiler.c ****                             }
 681              		.loc 1 146 0
 682 0230 1E4B     		ldr	r3, .L163
 683 0232 1968     		ldr	r1, [r3]
 684 0234 2620     		movs	r0, #38
 685 0236 0870     		strb	r0, [r1]
 686 0238 1968     		ldr	r1, [r3]
 687 023a 0131     		adds	r1, r1, #1
 688 023c 1960     		str	r1, [r3]
 689 023e E6E7     		b	.L81
 690              	.L76:
 160:rt-thread/components/finsh/finsh_compiler.c ****                             {
ARM GAS  /tmp/cccwEpxI.s 			page 30


 691              		.loc 1 160 0
 692 0240 13F0080F 		tst	r3, #8
 693 0244 17D0     		beq	.L82
 163:rt-thread/components/finsh/finsh_compiler.c ****                             }
 694              		.loc 1 163 0
 695 0246 194B     		ldr	r3, .L163
 696 0248 1968     		ldr	r1, [r3]
 697 024a 2420     		movs	r0, #36
 698 024c 0870     		strb	r0, [r1]
 699 024e 1968     		ldr	r1, [r3]
 700 0250 0131     		adds	r1, r1, #1
 701 0252 1960     		str	r1, [r3]
 702              	.L83:
 171:rt-thread/components/finsh/finsh_compiler.c ****                             break;
 703              		.loc 1 171 0
 704 0254 154B     		ldr	r3, .L163
 705 0256 1968     		ldr	r1, [r3]
 706 0258 1432     		adds	r2, r2, #20
 707              	.LVL39:
 708 025a 0A70     		strb	r2, [r1]
 709 025c 1968     		ldr	r1, [r3]
 710 025e 100A     		lsrs	r0, r2, #8
 711 0260 4870     		strb	r0, [r1, #1]
 712 0262 1968     		ldr	r1, [r3]
 713 0264 100C     		lsrs	r0, r2, #16
 714 0266 8870     		strb	r0, [r1, #2]
 715 0268 1968     		ldr	r1, [r3]
 716 026a 120E     		lsrs	r2, r2, #24
 717              	.LVL40:
 718 026c CA70     		strb	r2, [r1, #3]
 719 026e 1A68     		ldr	r2, [r3]
 720 0270 0432     		adds	r2, r2, #4
 721 0272 1A60     		str	r2, [r3]
 172:rt-thread/components/finsh/finsh_compiler.c ****                         }
 722              		.loc 1 172 0
 723 0274 13E0     		b	.L60
 724              	.LVL41:
 725              	.L82:
 168:rt-thread/components/finsh/finsh_compiler.c ****                             }
 726              		.loc 1 168 0
 727 0276 0D4B     		ldr	r3, .L163
 728 0278 1968     		ldr	r1, [r3]
 729 027a 2720     		movs	r0, #39
 730 027c 0870     		strb	r0, [r1]
 731 027e 1968     		ldr	r1, [r3]
 732 0280 0131     		adds	r1, r1, #1
 733 0282 1960     		str	r1, [r3]
 734 0284 E6E7     		b	.L83
 735              	.LVL42:
 736              	.L39:
 737              	.LBE5:
 181:rt-thread/components/finsh/finsh_compiler.c ****             finsh_code_byte(node->value.char_value);
 738              		.loc 1 181 0
 739 0286 094B     		ldr	r3, .L163
 740 0288 1A68     		ldr	r2, [r3]
 741 028a 2221     		movs	r1, #34
 742 028c 1170     		strb	r1, [r2]
ARM GAS  /tmp/cccwEpxI.s 			page 31


 743 028e 1A68     		ldr	r2, [r3]
 744 0290 511C     		adds	r1, r2, #1
 745 0292 1960     		str	r1, [r3]
 182:rt-thread/components/finsh/finsh_compiler.c ****             break;
 746              		.loc 1 182 0
 747 0294 2179     		ldrb	r1, [r4, #4]	@ zero_extendqisi2
 748 0296 5170     		strb	r1, [r2, #1]
 749 0298 1A68     		ldr	r2, [r3]
 750 029a 0132     		adds	r2, r2, #1
 751 029c 1A60     		str	r2, [r3]
 752              	.L60:
 733:rt-thread/components/finsh/finsh_compiler.c ****             finsh_compile(finsh_node_sibling(node));
 753              		.loc 1 733 0
 754 029e E068     		ldr	r0, [r4, #12]
 755 02a0 08B1     		cbz	r0, .L34
 734:rt-thread/components/finsh/finsh_compiler.c ****     }
 756              		.loc 1 734 0
 757 02a2 FFF7ADFE 		bl	finsh_compile
 758              	.LVL43:
 759              	.L34:
 738:rt-thread/components/finsh/finsh_compiler.c **** 
 760              		.loc 1 738 0
 761 02a6 0020     		movs	r0, #0
 762 02a8 F8BD     		pop	{r3, r4, r5, r6, r7, pc}
 763              	.LVL44:
 764              	.L164:
 765 02aa 00BF     		.align	2
 766              	.L163:
 767 02ac 00000000 		.word	finsh_compile_pc
 768              	.LVL45:
 769              	.L40:
 187:rt-thread/components/finsh/finsh_compiler.c ****             finsh_code_dword(node->value.long_value);
 770              		.loc 1 187 0
 771 02b0 9D4B     		ldr	r3, .L165
 772 02b2 1A68     		ldr	r2, [r3]
 773 02b4 2421     		movs	r1, #36
 774 02b6 1170     		strb	r1, [r2]
 775 02b8 1A68     		ldr	r2, [r3]
 776 02ba 511C     		adds	r1, r2, #1
 777 02bc 1960     		str	r1, [r3]
 188:rt-thread/components/finsh/finsh_compiler.c ****             break;
 778              		.loc 1 188 0
 779 02be 6168     		ldr	r1, [r4, #4]
 780 02c0 5170     		strb	r1, [r2, #1]
 781 02c2 1968     		ldr	r1, [r3]
 782 02c4 6268     		ldr	r2, [r4, #4]
 783 02c6 120A     		lsrs	r2, r2, #8
 784 02c8 4A70     		strb	r2, [r1, #1]
 785 02ca 1A68     		ldr	r2, [r3]
 786 02cc E188     		ldrh	r1, [r4, #6]
 787 02ce 9170     		strb	r1, [r2, #2]
 788 02d0 1A68     		ldr	r2, [r3]
 789 02d2 E179     		ldrb	r1, [r4, #7]	@ zero_extendqisi2
 790 02d4 D170     		strb	r1, [r2, #3]
 791 02d6 1A68     		ldr	r2, [r3]
 792 02d8 0432     		adds	r2, r2, #4
 793 02da 1A60     		str	r2, [r3]
ARM GAS  /tmp/cccwEpxI.s 			page 32


 189:rt-thread/components/finsh/finsh_compiler.c **** 
 794              		.loc 1 189 0
 795 02dc DFE7     		b	.L60
 796              	.L41:
 193:rt-thread/components/finsh/finsh_compiler.c ****             finsh_code_dword((uint32_t)node->value.ptr);
 797              		.loc 1 193 0
 798 02de 924B     		ldr	r3, .L165
 799 02e0 1A68     		ldr	r2, [r3]
 800 02e2 2421     		movs	r1, #36
 801 02e4 1170     		strb	r1, [r2]
 802 02e6 1A68     		ldr	r2, [r3]
 803 02e8 511C     		adds	r1, r2, #1
 804 02ea 1960     		str	r1, [r3]
 194:rt-thread/components/finsh/finsh_compiler.c ****             break;
 805              		.loc 1 194 0
 806 02ec 6168     		ldr	r1, [r4, #4]
 807 02ee 5170     		strb	r1, [r2, #1]
 808 02f0 1968     		ldr	r1, [r3]
 809 02f2 6268     		ldr	r2, [r4, #4]
 810 02f4 120A     		lsrs	r2, r2, #8
 811 02f6 4A70     		strb	r2, [r1, #1]
 812 02f8 1A68     		ldr	r2, [r3]
 813 02fa E188     		ldrh	r1, [r4, #6]
 814 02fc 9170     		strb	r1, [r2, #2]
 815 02fe 1A68     		ldr	r2, [r3]
 816 0300 E179     		ldrb	r1, [r4, #7]	@ zero_extendqisi2
 817 0302 D170     		strb	r1, [r2, #3]
 818 0304 1A68     		ldr	r2, [r3]
 819 0306 0432     		adds	r2, r2, #4
 820 0308 1A60     		str	r2, [r3]
 195:rt-thread/components/finsh/finsh_compiler.c **** 
 821              		.loc 1 195 0
 822 030a C8E7     		b	.L60
 823              	.L42:
 199:rt-thread/components/finsh/finsh_compiler.c ****             else if (node->data_type == FINSH_DATA_TYPE_WORD) finsh_code_byte(FINSH_OP_ADD_WORD);
 824              		.loc 1 199 0
 825 030c 6378     		ldrb	r3, [r4, #1]	@ zero_extendqisi2
 826 030e 012B     		cmp	r3, #1
 827 0310 0BD0     		beq	.L138
 200:rt-thread/components/finsh/finsh_compiler.c ****             else if (node->data_type == FINSH_DATA_TYPE_DWORD) finsh_code_byte(FINSH_OP_ADD_DWORD);
 828              		.loc 1 200 0
 829 0312 022B     		cmp	r3, #2
 830 0314 11D0     		beq	.L139
 201:rt-thread/components/finsh/finsh_compiler.c ****             break;
 831              		.loc 1 201 0
 832 0316 032B     		cmp	r3, #3
 833 0318 C1D1     		bne	.L60
 201:rt-thread/components/finsh/finsh_compiler.c ****             break;
 834              		.loc 1 201 0 is_stmt 0 discriminator 1
 835 031a 834B     		ldr	r3, .L165
 836 031c 1A68     		ldr	r2, [r3]
 837 031e 0321     		movs	r1, #3
 838 0320 1170     		strb	r1, [r2]
 839 0322 1A68     		ldr	r2, [r3]
 840 0324 0132     		adds	r2, r2, #1
 841 0326 1A60     		str	r2, [r3]
 842 0328 B9E7     		b	.L60
ARM GAS  /tmp/cccwEpxI.s 			page 33


 843              	.L138:
 199:rt-thread/components/finsh/finsh_compiler.c ****             else if (node->data_type == FINSH_DATA_TYPE_WORD) finsh_code_byte(FINSH_OP_ADD_WORD);
 844              		.loc 1 199 0 is_stmt 1 discriminator 1
 845 032a 7F4B     		ldr	r3, .L165
 846 032c 1A68     		ldr	r2, [r3]
 847 032e 0121     		movs	r1, #1
 848 0330 1170     		strb	r1, [r2]
 849 0332 1A68     		ldr	r2, [r3]
 850 0334 0A44     		add	r2, r2, r1
 851 0336 1A60     		str	r2, [r3]
 852 0338 B1E7     		b	.L60
 853              	.L139:
 200:rt-thread/components/finsh/finsh_compiler.c ****             else if (node->data_type == FINSH_DATA_TYPE_DWORD) finsh_code_byte(FINSH_OP_ADD_DWORD);
 854              		.loc 1 200 0 discriminator 1
 855 033a 7B4B     		ldr	r3, .L165
 856 033c 1A68     		ldr	r2, [r3]
 857 033e 0221     		movs	r1, #2
 858 0340 1170     		strb	r1, [r2]
 859 0342 1A68     		ldr	r2, [r3]
 860 0344 0132     		adds	r2, r2, #1
 861 0346 1A60     		str	r2, [r3]
 862 0348 A9E7     		b	.L60
 863              	.L43:
 205:rt-thread/components/finsh/finsh_compiler.c ****             else if (node->data_type == FINSH_DATA_TYPE_WORD) finsh_code_byte(FINSH_OP_SUB_WORD);
 864              		.loc 1 205 0
 865 034a 6378     		ldrb	r3, [r4, #1]	@ zero_extendqisi2
 866 034c 012B     		cmp	r3, #1
 867 034e 0BD0     		beq	.L140
 206:rt-thread/components/finsh/finsh_compiler.c ****             else if (node->data_type == FINSH_DATA_TYPE_DWORD) finsh_code_byte(FINSH_OP_SUB_DWORD);
 868              		.loc 1 206 0
 869 0350 022B     		cmp	r3, #2
 870 0352 11D0     		beq	.L141
 207:rt-thread/components/finsh/finsh_compiler.c ****             break;
 871              		.loc 1 207 0
 872 0354 032B     		cmp	r3, #3
 873 0356 A2D1     		bne	.L60
 207:rt-thread/components/finsh/finsh_compiler.c ****             break;
 874              		.loc 1 207 0 is_stmt 0 discriminator 1
 875 0358 734B     		ldr	r3, .L165
 876 035a 1A68     		ldr	r2, [r3]
 877 035c 0621     		movs	r1, #6
 878 035e 1170     		strb	r1, [r2]
 879 0360 1A68     		ldr	r2, [r3]
 880 0362 0132     		adds	r2, r2, #1
 881 0364 1A60     		str	r2, [r3]
 882 0366 9AE7     		b	.L60
 883              	.L140:
 205:rt-thread/components/finsh/finsh_compiler.c ****             else if (node->data_type == FINSH_DATA_TYPE_WORD) finsh_code_byte(FINSH_OP_SUB_WORD);
 884              		.loc 1 205 0 is_stmt 1 discriminator 1
 885 0368 6F4B     		ldr	r3, .L165
 886 036a 1A68     		ldr	r2, [r3]
 887 036c 0421     		movs	r1, #4
 888 036e 1170     		strb	r1, [r2]
 889 0370 1A68     		ldr	r2, [r3]
 890 0372 0132     		adds	r2, r2, #1
 891 0374 1A60     		str	r2, [r3]
 892 0376 92E7     		b	.L60
ARM GAS  /tmp/cccwEpxI.s 			page 34


 893              	.L141:
 206:rt-thread/components/finsh/finsh_compiler.c ****             else if (node->data_type == FINSH_DATA_TYPE_DWORD) finsh_code_byte(FINSH_OP_SUB_DWORD);
 894              		.loc 1 206 0 discriminator 1
 895 0378 6B4B     		ldr	r3, .L165
 896 037a 1A68     		ldr	r2, [r3]
 897 037c 0521     		movs	r1, #5
 898 037e 1170     		strb	r1, [r2]
 899 0380 1A68     		ldr	r2, [r3]
 900 0382 0132     		adds	r2, r2, #1
 901 0384 1A60     		str	r2, [r3]
 902 0386 8AE7     		b	.L60
 903              	.L44:
 211:rt-thread/components/finsh/finsh_compiler.c ****             else if (node->data_type == FINSH_DATA_TYPE_WORD) finsh_code_byte(FINSH_OP_MUL_WORD);
 904              		.loc 1 211 0
 905 0388 6378     		ldrb	r3, [r4, #1]	@ zero_extendqisi2
 906 038a 012B     		cmp	r3, #1
 907 038c 0BD0     		beq	.L142
 212:rt-thread/components/finsh/finsh_compiler.c ****             else if (node->data_type == FINSH_DATA_TYPE_DWORD) finsh_code_byte(FINSH_OP_MUL_DWORD);
 908              		.loc 1 212 0
 909 038e 022B     		cmp	r3, #2
 910 0390 11D0     		beq	.L143
 213:rt-thread/components/finsh/finsh_compiler.c ****             break;
 911              		.loc 1 213 0
 912 0392 032B     		cmp	r3, #3
 913 0394 83D1     		bne	.L60
 213:rt-thread/components/finsh/finsh_compiler.c ****             break;
 914              		.loc 1 213 0 is_stmt 0 discriminator 1
 915 0396 644B     		ldr	r3, .L165
 916 0398 1A68     		ldr	r2, [r3]
 917 039a 0F21     		movs	r1, #15
 918 039c 1170     		strb	r1, [r2]
 919 039e 1A68     		ldr	r2, [r3]
 920 03a0 0132     		adds	r2, r2, #1
 921 03a2 1A60     		str	r2, [r3]
 922 03a4 7BE7     		b	.L60
 923              	.L142:
 211:rt-thread/components/finsh/finsh_compiler.c ****             else if (node->data_type == FINSH_DATA_TYPE_WORD) finsh_code_byte(FINSH_OP_MUL_WORD);
 924              		.loc 1 211 0 is_stmt 1 discriminator 1
 925 03a6 604B     		ldr	r3, .L165
 926 03a8 1A68     		ldr	r2, [r3]
 927 03aa 0D21     		movs	r1, #13
 928 03ac 1170     		strb	r1, [r2]
 929 03ae 1A68     		ldr	r2, [r3]
 930 03b0 0132     		adds	r2, r2, #1
 931 03b2 1A60     		str	r2, [r3]
 932 03b4 73E7     		b	.L60
 933              	.L143:
 212:rt-thread/components/finsh/finsh_compiler.c ****             else if (node->data_type == FINSH_DATA_TYPE_DWORD) finsh_code_byte(FINSH_OP_MUL_DWORD);
 934              		.loc 1 212 0 discriminator 1
 935 03b6 5C4B     		ldr	r3, .L165
 936 03b8 1A68     		ldr	r2, [r3]
 937 03ba 0E21     		movs	r1, #14
 938 03bc 1170     		strb	r1, [r2]
 939 03be 1A68     		ldr	r2, [r3]
 940 03c0 0132     		adds	r2, r2, #1
 941 03c2 1A60     		str	r2, [r3]
 942 03c4 6BE7     		b	.L60
ARM GAS  /tmp/cccwEpxI.s 			page 35


 943              	.L45:
 217:rt-thread/components/finsh/finsh_compiler.c ****             else if (node->data_type == FINSH_DATA_TYPE_WORD) finsh_code_byte(FINSH_OP_DIV_WORD);
 944              		.loc 1 217 0
 945 03c6 6378     		ldrb	r3, [r4, #1]	@ zero_extendqisi2
 946 03c8 012B     		cmp	r3, #1
 947 03ca 0CD0     		beq	.L144
 218:rt-thread/components/finsh/finsh_compiler.c ****             else if (node->data_type == FINSH_DATA_TYPE_DWORD) finsh_code_byte(FINSH_OP_DIV_DWORD);
 948              		.loc 1 218 0
 949 03cc 022B     		cmp	r3, #2
 950 03ce 12D0     		beq	.L145
 219:rt-thread/components/finsh/finsh_compiler.c ****             break;
 951              		.loc 1 219 0
 952 03d0 032B     		cmp	r3, #3
 953 03d2 7FF464AF 		bne	.L60
 219:rt-thread/components/finsh/finsh_compiler.c ****             break;
 954              		.loc 1 219 0 is_stmt 0 discriminator 1
 955 03d6 544B     		ldr	r3, .L165
 956 03d8 1A68     		ldr	r2, [r3]
 957 03da 0921     		movs	r1, #9
 958 03dc 1170     		strb	r1, [r2]
 959 03de 1A68     		ldr	r2, [r3]
 960 03e0 0132     		adds	r2, r2, #1
 961 03e2 1A60     		str	r2, [r3]
 962 03e4 5BE7     		b	.L60
 963              	.L144:
 217:rt-thread/components/finsh/finsh_compiler.c ****             else if (node->data_type == FINSH_DATA_TYPE_WORD) finsh_code_byte(FINSH_OP_DIV_WORD);
 964              		.loc 1 217 0 is_stmt 1 discriminator 1
 965 03e6 504B     		ldr	r3, .L165
 966 03e8 1A68     		ldr	r2, [r3]
 967 03ea 0721     		movs	r1, #7
 968 03ec 1170     		strb	r1, [r2]
 969 03ee 1A68     		ldr	r2, [r3]
 970 03f0 0132     		adds	r2, r2, #1
 971 03f2 1A60     		str	r2, [r3]
 972 03f4 53E7     		b	.L60
 973              	.L145:
 218:rt-thread/components/finsh/finsh_compiler.c ****             else if (node->data_type == FINSH_DATA_TYPE_DWORD) finsh_code_byte(FINSH_OP_DIV_DWORD);
 974              		.loc 1 218 0 discriminator 1
 975 03f6 4C4B     		ldr	r3, .L165
 976 03f8 1A68     		ldr	r2, [r3]
 977 03fa 0821     		movs	r1, #8
 978 03fc 1170     		strb	r1, [r2]
 979 03fe 1A68     		ldr	r2, [r3]
 980 0400 0132     		adds	r2, r2, #1
 981 0402 1A60     		str	r2, [r3]
 982 0404 4BE7     		b	.L60
 983              	.L46:
 223:rt-thread/components/finsh/finsh_compiler.c ****             else if (node->data_type == FINSH_DATA_TYPE_WORD) finsh_code_byte(FINSH_OP_MOD_WORD);
 984              		.loc 1 223 0
 985 0406 6378     		ldrb	r3, [r4, #1]	@ zero_extendqisi2
 986 0408 012B     		cmp	r3, #1
 987 040a 0CD0     		beq	.L146
 224:rt-thread/components/finsh/finsh_compiler.c ****             else if (node->data_type == FINSH_DATA_TYPE_DWORD) finsh_code_byte(FINSH_OP_MOD_DWORD);
 988              		.loc 1 224 0
 989 040c 022B     		cmp	r3, #2
 990 040e 12D0     		beq	.L147
 225:rt-thread/components/finsh/finsh_compiler.c ****             break;
ARM GAS  /tmp/cccwEpxI.s 			page 36


 991              		.loc 1 225 0
 992 0410 032B     		cmp	r3, #3
 993 0412 7FF444AF 		bne	.L60
 225:rt-thread/components/finsh/finsh_compiler.c ****             break;
 994              		.loc 1 225 0 is_stmt 0 discriminator 1
 995 0416 444B     		ldr	r3, .L165
 996 0418 1A68     		ldr	r2, [r3]
 997 041a 0C21     		movs	r1, #12
 998 041c 1170     		strb	r1, [r2]
 999 041e 1A68     		ldr	r2, [r3]
 1000 0420 0132     		adds	r2, r2, #1
 1001 0422 1A60     		str	r2, [r3]
 1002 0424 3BE7     		b	.L60
 1003              	.L146:
 223:rt-thread/components/finsh/finsh_compiler.c ****             else if (node->data_type == FINSH_DATA_TYPE_WORD) finsh_code_byte(FINSH_OP_MOD_WORD);
 1004              		.loc 1 223 0 is_stmt 1 discriminator 1
 1005 0426 404B     		ldr	r3, .L165
 1006 0428 1A68     		ldr	r2, [r3]
 1007 042a 0A21     		movs	r1, #10
 1008 042c 1170     		strb	r1, [r2]
 1009 042e 1A68     		ldr	r2, [r3]
 1010 0430 0132     		adds	r2, r2, #1
 1011 0432 1A60     		str	r2, [r3]
 1012 0434 33E7     		b	.L60
 1013              	.L147:
 224:rt-thread/components/finsh/finsh_compiler.c ****             else if (node->data_type == FINSH_DATA_TYPE_DWORD) finsh_code_byte(FINSH_OP_MOD_DWORD);
 1014              		.loc 1 224 0 discriminator 1
 1015 0436 3C4B     		ldr	r3, .L165
 1016 0438 1A68     		ldr	r2, [r3]
 1017 043a 0B21     		movs	r1, #11
 1018 043c 1170     		strb	r1, [r2]
 1019 043e 1A68     		ldr	r2, [r3]
 1020 0440 0132     		adds	r2, r2, #1
 1021 0442 1A60     		str	r2, [r3]
 1022 0444 2BE7     		b	.L60
 1023              	.L47:
 230:rt-thread/components/finsh/finsh_compiler.c ****             else if (node->data_type == FINSH_DATA_TYPE_WORD) finsh_code_byte(FINSH_OP_AND_WORD);
 1024              		.loc 1 230 0
 1025 0446 6378     		ldrb	r3, [r4, #1]	@ zero_extendqisi2
 1026 0448 012B     		cmp	r3, #1
 1027 044a 0CD0     		beq	.L148
 231:rt-thread/components/finsh/finsh_compiler.c ****             else if (node->data_type == FINSH_DATA_TYPE_DWORD) finsh_code_byte(FINSH_OP_AND_DWORD);
 1028              		.loc 1 231 0
 1029 044c 022B     		cmp	r3, #2
 1030 044e 12D0     		beq	.L149
 232:rt-thread/components/finsh/finsh_compiler.c ****             break;
 1031              		.loc 1 232 0
 1032 0450 032B     		cmp	r3, #3
 1033 0452 7FF424AF 		bne	.L60
 232:rt-thread/components/finsh/finsh_compiler.c ****             break;
 1034              		.loc 1 232 0 is_stmt 0 discriminator 1
 1035 0456 344B     		ldr	r3, .L165
 1036 0458 1A68     		ldr	r2, [r3]
 1037 045a 1221     		movs	r1, #18
 1038 045c 1170     		strb	r1, [r2]
 1039 045e 1A68     		ldr	r2, [r3]
 1040 0460 0132     		adds	r2, r2, #1
ARM GAS  /tmp/cccwEpxI.s 			page 37


 1041 0462 1A60     		str	r2, [r3]
 1042 0464 1BE7     		b	.L60
 1043              	.L148:
 230:rt-thread/components/finsh/finsh_compiler.c ****             else if (node->data_type == FINSH_DATA_TYPE_WORD) finsh_code_byte(FINSH_OP_AND_WORD);
 1044              		.loc 1 230 0 is_stmt 1 discriminator 1
 1045 0466 304B     		ldr	r3, .L165
 1046 0468 1A68     		ldr	r2, [r3]
 1047 046a 1021     		movs	r1, #16
 1048 046c 1170     		strb	r1, [r2]
 1049 046e 1A68     		ldr	r2, [r3]
 1050 0470 0132     		adds	r2, r2, #1
 1051 0472 1A60     		str	r2, [r3]
 1052 0474 13E7     		b	.L60
 1053              	.L149:
 231:rt-thread/components/finsh/finsh_compiler.c ****             else if (node->data_type == FINSH_DATA_TYPE_DWORD) finsh_code_byte(FINSH_OP_AND_DWORD);
 1054              		.loc 1 231 0 discriminator 1
 1055 0476 2C4B     		ldr	r3, .L165
 1056 0478 1A68     		ldr	r2, [r3]
 1057 047a 1121     		movs	r1, #17
 1058 047c 1170     		strb	r1, [r2]
 1059 047e 1A68     		ldr	r2, [r3]
 1060 0480 0132     		adds	r2, r2, #1
 1061 0482 1A60     		str	r2, [r3]
 1062 0484 0BE7     		b	.L60
 1063              	.L48:
 236:rt-thread/components/finsh/finsh_compiler.c ****             else if (node->data_type == FINSH_DATA_TYPE_WORD) finsh_code_byte(FINSH_OP_OR_WORD);
 1064              		.loc 1 236 0
 1065 0486 6378     		ldrb	r3, [r4, #1]	@ zero_extendqisi2
 1066 0488 012B     		cmp	r3, #1
 1067 048a 0CD0     		beq	.L150
 237:rt-thread/components/finsh/finsh_compiler.c ****             else if (node->data_type == FINSH_DATA_TYPE_DWORD) finsh_code_byte(FINSH_OP_OR_DWORD);
 1068              		.loc 1 237 0
 1069 048c 022B     		cmp	r3, #2
 1070 048e 12D0     		beq	.L151
 238:rt-thread/components/finsh/finsh_compiler.c ****             break;
 1071              		.loc 1 238 0
 1072 0490 032B     		cmp	r3, #3
 1073 0492 7FF404AF 		bne	.L60
 238:rt-thread/components/finsh/finsh_compiler.c ****             break;
 1074              		.loc 1 238 0 is_stmt 0 discriminator 1
 1075 0496 244B     		ldr	r3, .L165
 1076 0498 1A68     		ldr	r2, [r3]
 1077 049a 1521     		movs	r1, #21
 1078 049c 1170     		strb	r1, [r2]
 1079 049e 1A68     		ldr	r2, [r3]
 1080 04a0 0132     		adds	r2, r2, #1
 1081 04a2 1A60     		str	r2, [r3]
 1082 04a4 FBE6     		b	.L60
 1083              	.L150:
 236:rt-thread/components/finsh/finsh_compiler.c ****             else if (node->data_type == FINSH_DATA_TYPE_WORD) finsh_code_byte(FINSH_OP_OR_WORD);
 1084              		.loc 1 236 0 is_stmt 1 discriminator 1
 1085 04a6 204B     		ldr	r3, .L165
 1086 04a8 1A68     		ldr	r2, [r3]
 1087 04aa 1321     		movs	r1, #19
 1088 04ac 1170     		strb	r1, [r2]
 1089 04ae 1A68     		ldr	r2, [r3]
 1090 04b0 0132     		adds	r2, r2, #1
ARM GAS  /tmp/cccwEpxI.s 			page 38


 1091 04b2 1A60     		str	r2, [r3]
 1092 04b4 F3E6     		b	.L60
 1093              	.L151:
 237:rt-thread/components/finsh/finsh_compiler.c ****             else if (node->data_type == FINSH_DATA_TYPE_DWORD) finsh_code_byte(FINSH_OP_OR_DWORD);
 1094              		.loc 1 237 0 discriminator 1
 1095 04b6 1C4B     		ldr	r3, .L165
 1096 04b8 1A68     		ldr	r2, [r3]
 1097 04ba 1421     		movs	r1, #20
 1098 04bc 1170     		strb	r1, [r2]
 1099 04be 1A68     		ldr	r2, [r3]
 1100 04c0 0132     		adds	r2, r2, #1
 1101 04c2 1A60     		str	r2, [r3]
 1102 04c4 EBE6     		b	.L60
 1103              	.L49:
 242:rt-thread/components/finsh/finsh_compiler.c ****             else if (node->data_type == FINSH_DATA_TYPE_WORD) finsh_code_byte(FINSH_OP_XOR_WORD);
 1104              		.loc 1 242 0
 1105 04c6 6378     		ldrb	r3, [r4, #1]	@ zero_extendqisi2
 1106 04c8 012B     		cmp	r3, #1
 1107 04ca 0CD0     		beq	.L152
 243:rt-thread/components/finsh/finsh_compiler.c ****             else if (node->data_type == FINSH_DATA_TYPE_DWORD) finsh_code_byte(FINSH_OP_XOR_DWORD);
 1108              		.loc 1 243 0
 1109 04cc 022B     		cmp	r3, #2
 1110 04ce 12D0     		beq	.L153
 244:rt-thread/components/finsh/finsh_compiler.c ****             break;
 1111              		.loc 1 244 0
 1112 04d0 032B     		cmp	r3, #3
 1113 04d2 7FF4E4AE 		bne	.L60
 244:rt-thread/components/finsh/finsh_compiler.c ****             break;
 1114              		.loc 1 244 0 is_stmt 0 discriminator 1
 1115 04d6 144B     		ldr	r3, .L165
 1116 04d8 1A68     		ldr	r2, [r3]
 1117 04da 1821     		movs	r1, #24
 1118 04dc 1170     		strb	r1, [r2]
 1119 04de 1A68     		ldr	r2, [r3]
 1120 04e0 0132     		adds	r2, r2, #1
 1121 04e2 1A60     		str	r2, [r3]
 1122 04e4 DBE6     		b	.L60
 1123              	.L152:
 242:rt-thread/components/finsh/finsh_compiler.c ****             else if (node->data_type == FINSH_DATA_TYPE_WORD) finsh_code_byte(FINSH_OP_XOR_WORD);
 1124              		.loc 1 242 0 is_stmt 1 discriminator 1
 1125 04e6 104B     		ldr	r3, .L165
 1126 04e8 1A68     		ldr	r2, [r3]
 1127 04ea 1621     		movs	r1, #22
 1128 04ec 1170     		strb	r1, [r2]
 1129 04ee 1A68     		ldr	r2, [r3]
 1130 04f0 0132     		adds	r2, r2, #1
 1131 04f2 1A60     		str	r2, [r3]
 1132 04f4 D3E6     		b	.L60
 1133              	.L153:
 243:rt-thread/components/finsh/finsh_compiler.c ****             else if (node->data_type == FINSH_DATA_TYPE_DWORD) finsh_code_byte(FINSH_OP_XOR_DWORD);
 1134              		.loc 1 243 0 discriminator 1
 1135 04f6 0C4B     		ldr	r3, .L165
 1136 04f8 1A68     		ldr	r2, [r3]
 1137 04fa 1721     		movs	r1, #23
 1138 04fc 1170     		strb	r1, [r2]
 1139 04fe 1A68     		ldr	r2, [r3]
 1140 0500 0132     		adds	r2, r2, #1
ARM GAS  /tmp/cccwEpxI.s 			page 39


 1141 0502 1A60     		str	r2, [r3]
 1142 0504 CBE6     		b	.L60
 1143              	.L50:
 248:rt-thread/components/finsh/finsh_compiler.c ****             else if (node->data_type == FINSH_DATA_TYPE_WORD) finsh_code_byte(FINSH_OP_BITWISE_WORD
 1144              		.loc 1 248 0
 1145 0506 6378     		ldrb	r3, [r4, #1]	@ zero_extendqisi2
 1146 0508 012B     		cmp	r3, #1
 1147 050a 0FD0     		beq	.L154
 249:rt-thread/components/finsh/finsh_compiler.c ****             else if (node->data_type == FINSH_DATA_TYPE_DWORD) finsh_code_byte(FINSH_OP_BITWISE_DWO
 1148              		.loc 1 249 0
 1149 050c 022B     		cmp	r3, #2
 1150 050e 15D0     		beq	.L155
 250:rt-thread/components/finsh/finsh_compiler.c ****             break;
 1151              		.loc 1 250 0
 1152 0510 032B     		cmp	r3, #3
 1153 0512 7FF4C4AE 		bne	.L60
 250:rt-thread/components/finsh/finsh_compiler.c ****             break;
 1154              		.loc 1 250 0 is_stmt 0 discriminator 1
 1155 0516 044B     		ldr	r3, .L165
 1156 0518 1A68     		ldr	r2, [r3]
 1157 051a 1B21     		movs	r1, #27
 1158 051c 1170     		strb	r1, [r2]
 1159 051e 1A68     		ldr	r2, [r3]
 1160 0520 0132     		adds	r2, r2, #1
 1161 0522 1A60     		str	r2, [r3]
 1162 0524 BBE6     		b	.L60
 1163              	.L166:
 1164 0526 00BF     		.align	2
 1165              	.L165:
 1166 0528 00000000 		.word	finsh_compile_pc
 1167              	.L154:
 248:rt-thread/components/finsh/finsh_compiler.c ****             else if (node->data_type == FINSH_DATA_TYPE_WORD) finsh_code_byte(FINSH_OP_BITWISE_WORD
 1168              		.loc 1 248 0 is_stmt 1 discriminator 1
 1169 052c A54B     		ldr	r3, .L167
 1170 052e 1A68     		ldr	r2, [r3]
 1171 0530 1921     		movs	r1, #25
 1172 0532 1170     		strb	r1, [r2]
 1173 0534 1A68     		ldr	r2, [r3]
 1174 0536 0132     		adds	r2, r2, #1
 1175 0538 1A60     		str	r2, [r3]
 1176 053a B0E6     		b	.L60
 1177              	.L155:
 249:rt-thread/components/finsh/finsh_compiler.c ****             else if (node->data_type == FINSH_DATA_TYPE_DWORD) finsh_code_byte(FINSH_OP_BITWISE_DWO
 1178              		.loc 1 249 0 discriminator 1
 1179 053c A14B     		ldr	r3, .L167
 1180 053e 1A68     		ldr	r2, [r3]
 1181 0540 1A21     		movs	r1, #26
 1182 0542 1170     		strb	r1, [r2]
 1183 0544 1A68     		ldr	r2, [r3]
 1184 0546 0132     		adds	r2, r2, #1
 1185 0548 1A60     		str	r2, [r3]
 1186 054a A8E6     		b	.L60
 1187              	.L51:
 254:rt-thread/components/finsh/finsh_compiler.c ****             else if (node->data_type == FINSH_DATA_TYPE_WORD) finsh_code_byte(FINSH_OP_SHL_WORD);
 1188              		.loc 1 254 0
 1189 054c 6378     		ldrb	r3, [r4, #1]	@ zero_extendqisi2
 1190 054e 012B     		cmp	r3, #1
ARM GAS  /tmp/cccwEpxI.s 			page 40


 1191 0550 0CD0     		beq	.L156
 255:rt-thread/components/finsh/finsh_compiler.c ****             else if (node->data_type == FINSH_DATA_TYPE_DWORD) finsh_code_byte(FINSH_OP_SHL_DWORD);
 1192              		.loc 1 255 0
 1193 0552 022B     		cmp	r3, #2
 1194 0554 12D0     		beq	.L157
 256:rt-thread/components/finsh/finsh_compiler.c ****             break;
 1195              		.loc 1 256 0
 1196 0556 032B     		cmp	r3, #3
 1197 0558 7FF4A1AE 		bne	.L60
 256:rt-thread/components/finsh/finsh_compiler.c ****             break;
 1198              		.loc 1 256 0 is_stmt 0 discriminator 1
 1199 055c 994B     		ldr	r3, .L167
 1200 055e 1A68     		ldr	r2, [r3]
 1201 0560 1E21     		movs	r1, #30
 1202 0562 1170     		strb	r1, [r2]
 1203 0564 1A68     		ldr	r2, [r3]
 1204 0566 0132     		adds	r2, r2, #1
 1205 0568 1A60     		str	r2, [r3]
 1206 056a 98E6     		b	.L60
 1207              	.L156:
 254:rt-thread/components/finsh/finsh_compiler.c ****             else if (node->data_type == FINSH_DATA_TYPE_WORD) finsh_code_byte(FINSH_OP_SHL_WORD);
 1208              		.loc 1 254 0 is_stmt 1 discriminator 1
 1209 056c 954B     		ldr	r3, .L167
 1210 056e 1A68     		ldr	r2, [r3]
 1211 0570 1C21     		movs	r1, #28
 1212 0572 1170     		strb	r1, [r2]
 1213 0574 1A68     		ldr	r2, [r3]
 1214 0576 0132     		adds	r2, r2, #1
 1215 0578 1A60     		str	r2, [r3]
 1216 057a 90E6     		b	.L60
 1217              	.L157:
 255:rt-thread/components/finsh/finsh_compiler.c ****             else if (node->data_type == FINSH_DATA_TYPE_DWORD) finsh_code_byte(FINSH_OP_SHL_DWORD);
 1218              		.loc 1 255 0 discriminator 1
 1219 057c 914B     		ldr	r3, .L167
 1220 057e 1A68     		ldr	r2, [r3]
 1221 0580 1D21     		movs	r1, #29
 1222 0582 1170     		strb	r1, [r2]
 1223 0584 1A68     		ldr	r2, [r3]
 1224 0586 0132     		adds	r2, r2, #1
 1225 0588 1A60     		str	r2, [r3]
 1226 058a 88E6     		b	.L60
 1227              	.L52:
 260:rt-thread/components/finsh/finsh_compiler.c ****             else if (node->data_type == FINSH_DATA_TYPE_WORD) finsh_code_byte(FINSH_OP_SHR_WORD);
 1228              		.loc 1 260 0
 1229 058c 6378     		ldrb	r3, [r4, #1]	@ zero_extendqisi2
 1230 058e 012B     		cmp	r3, #1
 1231 0590 0CD0     		beq	.L158
 261:rt-thread/components/finsh/finsh_compiler.c ****             else if (node->data_type == FINSH_DATA_TYPE_DWORD) finsh_code_byte(FINSH_OP_SHR_DWORD);
 1232              		.loc 1 261 0
 1233 0592 022B     		cmp	r3, #2
 1234 0594 12D0     		beq	.L159
 262:rt-thread/components/finsh/finsh_compiler.c ****             break;
 1235              		.loc 1 262 0
 1236 0596 032B     		cmp	r3, #3
 1237 0598 7FF481AE 		bne	.L60
 262:rt-thread/components/finsh/finsh_compiler.c ****             break;
 1238              		.loc 1 262 0 is_stmt 0 discriminator 1
ARM GAS  /tmp/cccwEpxI.s 			page 41


 1239 059c 894B     		ldr	r3, .L167
 1240 059e 1A68     		ldr	r2, [r3]
 1241 05a0 2121     		movs	r1, #33
 1242 05a2 1170     		strb	r1, [r2]
 1243 05a4 1A68     		ldr	r2, [r3]
 1244 05a6 0132     		adds	r2, r2, #1
 1245 05a8 1A60     		str	r2, [r3]
 1246 05aa 78E6     		b	.L60
 1247              	.L158:
 260:rt-thread/components/finsh/finsh_compiler.c ****             else if (node->data_type == FINSH_DATA_TYPE_WORD) finsh_code_byte(FINSH_OP_SHR_WORD);
 1248              		.loc 1 260 0 is_stmt 1 discriminator 1
 1249 05ac 854B     		ldr	r3, .L167
 1250 05ae 1A68     		ldr	r2, [r3]
 1251 05b0 1F21     		movs	r1, #31
 1252 05b2 1170     		strb	r1, [r2]
 1253 05b4 1A68     		ldr	r2, [r3]
 1254 05b6 0132     		adds	r2, r2, #1
 1255 05b8 1A60     		str	r2, [r3]
 1256 05ba 70E6     		b	.L60
 1257              	.L159:
 261:rt-thread/components/finsh/finsh_compiler.c ****             else if (node->data_type == FINSH_DATA_TYPE_DWORD) finsh_code_byte(FINSH_OP_SHR_DWORD);
 1258              		.loc 1 261 0 discriminator 1
 1259 05bc 814B     		ldr	r3, .L167
 1260 05be 1A68     		ldr	r2, [r3]
 1261 05c0 2021     		movs	r1, #32
 1262 05c2 1170     		strb	r1, [r2]
 1263 05c4 1A68     		ldr	r2, [r3]
 1264 05c6 0132     		adds	r2, r2, #1
 1265 05c8 1A60     		str	r2, [r3]
 1266 05ca 68E6     		b	.L60
 1267              	.L53:
 1268              	.LVL46:
 1269              	.LBB6:
 272:rt-thread/components/finsh/finsh_compiler.c ****                 {
 1270              		.loc 1 272 0
 1271 05cc 2369     		ldr	r3, [r4, #16]
 1272 05ce 002B     		cmp	r3, #0
 1273 05d0 3FF465AE 		beq	.L60
 274:rt-thread/components/finsh/finsh_compiler.c ****                     while (sibling != NULL)
 1274              		.loc 1 274 0
 1275 05d4 DB68     		ldr	r3, [r3, #12]
 1276              	.LVL47:
 271:rt-thread/components/finsh/finsh_compiler.c ****                 if (finsh_node_child(node) != NULL)
 1277              		.loc 1 271 0
 1278 05d6 0022     		movs	r2, #0
 275:rt-thread/components/finsh/finsh_compiler.c ****                     {
 1279              		.loc 1 275 0
 1280 05d8 01E0     		b	.L106
 1281              	.LVL48:
 1282              	.L107:
 277:rt-thread/components/finsh/finsh_compiler.c ****                         sibling = finsh_node_sibling(sibling);
 1283              		.loc 1 277 0
 1284 05da 0132     		adds	r2, r2, #1
 1285              	.LVL49:
 278:rt-thread/components/finsh/finsh_compiler.c ****                     }
 1286              		.loc 1 278 0
 1287 05dc DB68     		ldr	r3, [r3, #12]
ARM GAS  /tmp/cccwEpxI.s 			page 42


 1288              	.LVL50:
 1289              	.L106:
 275:rt-thread/components/finsh/finsh_compiler.c ****                     {
 1290              		.loc 1 275 0
 1291 05de 002B     		cmp	r3, #0
 1292 05e0 FBD1     		bne	.L107
 285:rt-thread/components/finsh/finsh_compiler.c ****                     finsh_code_byte(parameters);
 1293              		.loc 1 285 0
 1294 05e2 784B     		ldr	r3, .L167
 1295              	.LVL51:
 1296 05e4 1968     		ldr	r1, [r3]
 1297 05e6 2C20     		movs	r0, #44
 1298 05e8 0870     		strb	r0, [r1]
 1299 05ea 1968     		ldr	r1, [r3]
 1300 05ec 481C     		adds	r0, r1, #1
 1301 05ee 1860     		str	r0, [r3]
 286:rt-thread/components/finsh/finsh_compiler.c ****                 }
 1302              		.loc 1 286 0
 1303 05f0 4A70     		strb	r2, [r1, #1]
 1304 05f2 1A68     		ldr	r2, [r3]
 1305              	.LVL52:
 1306 05f4 0132     		adds	r2, r2, #1
 1307 05f6 1A60     		str	r2, [r3]
 1308 05f8 51E6     		b	.L60
 1309              	.L54:
 1310              	.LBE6:
 293:rt-thread/components/finsh/finsh_compiler.c ****             {
 1311              		.loc 1 293 0
 1312 05fa 2369     		ldr	r3, [r4, #16]
 1313 05fc 13B1     		cbz	r3, .L108
 293:rt-thread/components/finsh/finsh_compiler.c ****             {
 1314              		.loc 1 293 0 is_stmt 0 discriminator 1
 1315 05fe 1A78     		ldrb	r2, [r3]	@ zero_extendqisi2
 1316 0600 012A     		cmp	r2, #1
 1317 0602 10D0     		beq	.L160
 1318              	.L108:
 322:rt-thread/components/finsh/finsh_compiler.c ****             {
 1319              		.loc 1 322 0 is_stmt 1
 1320 0604 1A78     		ldrb	r2, [r3]	@ zero_extendqisi2
 1321 0606 192A     		cmp	r2, #25
 1322 0608 7FF449AE 		bne	.L60
 324:rt-thread/components/finsh/finsh_compiler.c ****                 {
 1323              		.loc 1 324 0
 1324 060c 5B78     		ldrb	r3, [r3, #1]	@ zero_extendqisi2
 1325 060e 03F00F03 		and	r3, r3, #15
 1326 0612 022B     		cmp	r3, #2
 1327 0614 46D0     		beq	.L114
 1328 0616 032B     		cmp	r3, #3
 1329 0618 51D0     		beq	.L115
 1330 061a 012B     		cmp	r3, #1
 1331 061c 35D0     		beq	.L161
 348:rt-thread/components/finsh/finsh_compiler.c ****                 }
 1332              		.loc 1 348 0
 1333 061e 0320     		movs	r0, #3
 1334 0620 FFF7FEFF 		bl	finsh_error_set
 1335              	.LVL53:
 1336 0624 3BE6     		b	.L60
ARM GAS  /tmp/cccwEpxI.s 			page 43


 1337              	.L160:
 295:rt-thread/components/finsh/finsh_compiler.c ****                 {
 1338              		.loc 1 295 0
 1339 0626 5B78     		ldrb	r3, [r3, #1]	@ zero_extendqisi2
 1340 0628 022B     		cmp	r3, #2
 1341 062a 14D0     		beq	.L110
 1342 062c 032B     		cmp	r3, #3
 1343 062e 1FD0     		beq	.L111
 1344 0630 012B     		cmp	r3, #1
 1345 0632 03D0     		beq	.L162
 319:rt-thread/components/finsh/finsh_compiler.c ****                 }
 1346              		.loc 1 319 0
 1347 0634 0320     		movs	r0, #3
 1348 0636 FFF7FEFF 		bl	finsh_error_set
 1349              	.LVL54:
 1350 063a 30E6     		b	.L60
 1351              	.L162:
 298:rt-thread/components/finsh/finsh_compiler.c **** 
 1352              		.loc 1 298 0
 1353 063c 614B     		ldr	r3, .L167
 1354 063e 1A68     		ldr	r2, [r3]
 1355 0640 2821     		movs	r1, #40
 1356 0642 1170     		strb	r1, [r2]
 1357 0644 1A68     		ldr	r2, [r3]
 1358 0646 511C     		adds	r1, r2, #1
 1359 0648 1960     		str	r1, [r3]
 301:rt-thread/components/finsh/finsh_compiler.c ****                     break;
 1360              		.loc 1 301 0
 1361 064a 2D21     		movs	r1, #45
 1362 064c 5170     		strb	r1, [r2, #1]
 1363 064e 1A68     		ldr	r2, [r3]
 1364 0650 0132     		adds	r2, r2, #1
 1365 0652 1A60     		str	r2, [r3]
 302:rt-thread/components/finsh/finsh_compiler.c **** 
 1366              		.loc 1 302 0
 1367 0654 23E6     		b	.L60
 1368              	.L110:
 305:rt-thread/components/finsh/finsh_compiler.c **** 
 1369              		.loc 1 305 0
 1370 0656 5B4B     		ldr	r3, .L167
 1371 0658 1A68     		ldr	r2, [r3]
 1372 065a 2921     		movs	r1, #41
 1373 065c 1170     		strb	r1, [r2]
 1374 065e 1A68     		ldr	r2, [r3]
 1375 0660 511C     		adds	r1, r2, #1
 1376 0662 1960     		str	r1, [r3]
 308:rt-thread/components/finsh/finsh_compiler.c ****                     break;
 1377              		.loc 1 308 0
 1378 0664 2E21     		movs	r1, #46
 1379 0666 5170     		strb	r1, [r2, #1]
 1380 0668 1A68     		ldr	r2, [r3]
 1381 066a 0132     		adds	r2, r2, #1
 1382 066c 1A60     		str	r2, [r3]
 309:rt-thread/components/finsh/finsh_compiler.c **** 
 1383              		.loc 1 309 0
 1384 066e 16E6     		b	.L60
 1385              	.L111:
ARM GAS  /tmp/cccwEpxI.s 			page 44


 312:rt-thread/components/finsh/finsh_compiler.c **** 
 1386              		.loc 1 312 0
 1387 0670 544B     		ldr	r3, .L167
 1388 0672 1A68     		ldr	r2, [r3]
 1389 0674 2A21     		movs	r1, #42
 1390 0676 1170     		strb	r1, [r2]
 1391 0678 1A68     		ldr	r2, [r3]
 1392 067a 511C     		adds	r1, r2, #1
 1393 067c 1960     		str	r1, [r3]
 315:rt-thread/components/finsh/finsh_compiler.c ****                     break;
 1394              		.loc 1 315 0
 1395 067e 2F21     		movs	r1, #47
 1396 0680 5170     		strb	r1, [r2, #1]
 1397 0682 1A68     		ldr	r2, [r3]
 1398 0684 0132     		adds	r2, r2, #1
 1399 0686 1A60     		str	r2, [r3]
 316:rt-thread/components/finsh/finsh_compiler.c **** 
 1400              		.loc 1 316 0
 1401 0688 09E6     		b	.L60
 1402              	.L161:
 327:rt-thread/components/finsh/finsh_compiler.c **** 
 1403              		.loc 1 327 0
 1404 068a 4E4B     		ldr	r3, .L167
 1405 068c 1A68     		ldr	r2, [r3]
 1406 068e 2821     		movs	r1, #40
 1407 0690 1170     		strb	r1, [r2]
 1408 0692 1A68     		ldr	r2, [r3]
 1409 0694 511C     		adds	r1, r2, #1
 1410 0696 1960     		str	r1, [r3]
 330:rt-thread/components/finsh/finsh_compiler.c ****                     break;
 1411              		.loc 1 330 0
 1412 0698 2D21     		movs	r1, #45
 1413 069a 5170     		strb	r1, [r2, #1]
 1414 069c 1A68     		ldr	r2, [r3]
 1415 069e 0132     		adds	r2, r2, #1
 1416 06a0 1A60     		str	r2, [r3]
 331:rt-thread/components/finsh/finsh_compiler.c **** 
 1417              		.loc 1 331 0
 1418 06a2 FCE5     		b	.L60
 1419              	.L114:
 334:rt-thread/components/finsh/finsh_compiler.c **** 
 1420              		.loc 1 334 0
 1421 06a4 474B     		ldr	r3, .L167
 1422 06a6 1A68     		ldr	r2, [r3]
 1423 06a8 2921     		movs	r1, #41
 1424 06aa 1170     		strb	r1, [r2]
 1425 06ac 1A68     		ldr	r2, [r3]
 1426 06ae 511C     		adds	r1, r2, #1
 1427 06b0 1960     		str	r1, [r3]
 337:rt-thread/components/finsh/finsh_compiler.c ****                     break;
 1428              		.loc 1 337 0
 1429 06b2 2E21     		movs	r1, #46
 1430 06b4 5170     		strb	r1, [r2, #1]
 1431 06b6 1A68     		ldr	r2, [r3]
 1432 06b8 0132     		adds	r2, r2, #1
 1433 06ba 1A60     		str	r2, [r3]
 338:rt-thread/components/finsh/finsh_compiler.c **** 
ARM GAS  /tmp/cccwEpxI.s 			page 45


 1434              		.loc 1 338 0
 1435 06bc EFE5     		b	.L60
 1436              	.L115:
 341:rt-thread/components/finsh/finsh_compiler.c **** 
 1437              		.loc 1 341 0
 1438 06be 414B     		ldr	r3, .L167
 1439 06c0 1A68     		ldr	r2, [r3]
 1440 06c2 2A21     		movs	r1, #42
 1441 06c4 1170     		strb	r1, [r2]
 1442 06c6 1A68     		ldr	r2, [r3]
 1443 06c8 511C     		adds	r1, r2, #1
 1444 06ca 1960     		str	r1, [r3]
 344:rt-thread/components/finsh/finsh_compiler.c ****                     break;
 1445              		.loc 1 344 0
 1446 06cc 2F21     		movs	r1, #47
 1447 06ce 5170     		strb	r1, [r2, #1]
 1448 06d0 1A68     		ldr	r2, [r3]
 1449 06d2 0132     		adds	r2, r2, #1
 1450 06d4 1A60     		str	r2, [r3]
 345:rt-thread/components/finsh/finsh_compiler.c **** 
 1451              		.loc 1 345 0
 1452 06d6 E2E5     		b	.L60
 1453              	.L55:
 355:rt-thread/components/finsh/finsh_compiler.c ****             {
 1454              		.loc 1 355 0
 1455 06d8 2369     		ldr	r3, [r4, #16]
 1456 06da 002B     		cmp	r3, #0
 1457 06dc 3FF4DFAD 		beq	.L60
 355:rt-thread/components/finsh/finsh_compiler.c ****             {
 1458              		.loc 1 355 0 is_stmt 0 discriminator 1
 1459 06e0 1A78     		ldrb	r2, [r3]	@ zero_extendqisi2
 1460 06e2 012A     		cmp	r2, #1
 1461 06e4 7FF4DBAD 		bne	.L60
 1462              	.LBB7:
 358:rt-thread/components/finsh/finsh_compiler.c **** 
 1463              		.loc 1 358 0 is_stmt 1
 1464 06e8 9B68     		ldr	r3, [r3, #8]
 1465              	.LVL55:
 363:rt-thread/components/finsh/finsh_compiler.c ****                 {
 1466              		.loc 1 363 0
 1467 06ea 6278     		ldrb	r2, [r4, #1]	@ zero_extendqisi2
 1468 06ec 022A     		cmp	r2, #2
 1469 06ee 23D0     		beq	.L117
 1470 06f0 032A     		cmp	r2, #3
 1471 06f2 43D0     		beq	.L118
 1472 06f4 012A     		cmp	r2, #1
 1473 06f6 7FF4D2AD 		bne	.L60
 370:rt-thread/components/finsh/finsh_compiler.c ****                     finsh_code_dword((long)&(var->value.char_value));
 1474              		.loc 1 370 0
 1475 06fa 324A     		ldr	r2, .L167
 1476 06fc 1168     		ldr	r1, [r2]
 1477 06fe 2520     		movs	r0, #37
 1478 0700 0870     		strb	r0, [r1]
 1479 0702 1168     		ldr	r1, [r2]
 1480 0704 481C     		adds	r0, r1, #1
 1481 0706 1060     		str	r0, [r2]
 371:rt-thread/components/finsh/finsh_compiler.c **** 
ARM GAS  /tmp/cccwEpxI.s 			page 46


 1482              		.loc 1 371 0
 1483 0708 1433     		adds	r3, r3, #20
 1484              	.LVL56:
 1485 070a 4B70     		strb	r3, [r1, #1]
 1486 070c 1168     		ldr	r1, [r2]
 1487 070e 180A     		lsrs	r0, r3, #8
 1488 0710 4870     		strb	r0, [r1, #1]
 1489 0712 1168     		ldr	r1, [r2]
 1490 0714 180C     		lsrs	r0, r3, #16
 1491 0716 8870     		strb	r0, [r1, #2]
 1492 0718 1168     		ldr	r1, [r2]
 1493 071a 1B0E     		lsrs	r3, r3, #24
 1494              	.LVL57:
 1495 071c CB70     		strb	r3, [r1, #3]
 1496 071e 1368     		ldr	r3, [r2]
 374:rt-thread/components/finsh/finsh_compiler.c ****                     finsh_code_byte(1);
 1497              		.loc 1 374 0
 1498 0720 2221     		movs	r1, #34
 1499 0722 1971     		strb	r1, [r3, #4]
 375:rt-thread/components/finsh/finsh_compiler.c **** 
 1500              		.loc 1 375 0
 1501 0724 0121     		movs	r1, #1
 1502 0726 5971     		strb	r1, [r3, #5]
 378:rt-thread/components/finsh/finsh_compiler.c ****                     /* st_byte */
 1503              		.loc 1 378 0
 1504 0728 9971     		strb	r1, [r3, #6]
 380:rt-thread/components/finsh/finsh_compiler.c **** 
 1505              		.loc 1 380 0
 1506 072a 2821     		movs	r1, #40
 1507 072c D971     		strb	r1, [r3, #7]
 383:rt-thread/components/finsh/finsh_compiler.c **** 
 1508              		.loc 1 383 0
 1509 072e 2F21     		movs	r1, #47
 1510 0730 1972     		strb	r1, [r3, #8]
 1511 0732 0933     		adds	r3, r3, #9
 1512 0734 1360     		str	r3, [r2]
 385:rt-thread/components/finsh/finsh_compiler.c **** 
 1513              		.loc 1 385 0
 1514 0736 B2E5     		b	.L60
 1515              	.LVL58:
 1516              	.L117:
 392:rt-thread/components/finsh/finsh_compiler.c ****                     finsh_code_dword((long)&(var->value.short_value));
 1517              		.loc 1 392 0
 1518 0738 224A     		ldr	r2, .L167
 1519 073a 1168     		ldr	r1, [r2]
 1520 073c 2620     		movs	r0, #38
 1521 073e 0870     		strb	r0, [r1]
 1522 0740 1168     		ldr	r1, [r2]
 1523 0742 481C     		adds	r0, r1, #1
 1524 0744 1060     		str	r0, [r2]
 393:rt-thread/components/finsh/finsh_compiler.c **** 
 1525              		.loc 1 393 0
 1526 0746 1433     		adds	r3, r3, #20
 1527              	.LVL59:
 1528 0748 4B70     		strb	r3, [r1, #1]
 1529 074a 1168     		ldr	r1, [r2]
 1530 074c 180A     		lsrs	r0, r3, #8
ARM GAS  /tmp/cccwEpxI.s 			page 47


 1531 074e 4870     		strb	r0, [r1, #1]
 1532 0750 1168     		ldr	r1, [r2]
 1533 0752 180C     		lsrs	r0, r3, #16
 1534 0754 8870     		strb	r0, [r1, #2]
 1535 0756 1168     		ldr	r1, [r2]
 1536 0758 1B0E     		lsrs	r3, r3, #24
 1537              	.LVL60:
 1538 075a CB70     		strb	r3, [r1, #3]
 1539 075c 1368     		ldr	r3, [r2]
 396:rt-thread/components/finsh/finsh_compiler.c ****                     finsh_code_word(1);
 1540              		.loc 1 396 0
 1541 075e 2321     		movs	r1, #35
 1542 0760 1971     		strb	r1, [r3, #4]
 397:rt-thread/components/finsh/finsh_compiler.c **** 
 1543              		.loc 1 397 0
 1544 0762 0120     		movs	r0, #1
 1545 0764 5871     		strb	r0, [r3, #5]
 1546 0766 0020     		movs	r0, #0
 1547 0768 9871     		strb	r0, [r3, #6]
 400:rt-thread/components/finsh/finsh_compiler.c ****                     /* st_word */
 1548              		.loc 1 400 0
 1549 076a 0221     		movs	r1, #2
 1550 076c D971     		strb	r1, [r3, #7]
 402:rt-thread/components/finsh/finsh_compiler.c **** 
 1551              		.loc 1 402 0
 1552 076e 2921     		movs	r1, #41
 1553 0770 1972     		strb	r1, [r3, #8]
 405:rt-thread/components/finsh/finsh_compiler.c **** 
 1554              		.loc 1 405 0
 1555 0772 2F21     		movs	r1, #47
 1556 0774 5972     		strb	r1, [r3, #9]
 1557 0776 0A33     		adds	r3, r3, #10
 1558 0778 1360     		str	r3, [r2]
 407:rt-thread/components/finsh/finsh_compiler.c **** 
 1559              		.loc 1 407 0
 1560 077a 90E5     		b	.L60
 1561              	.LVL61:
 1562              	.L118:
 414:rt-thread/components/finsh/finsh_compiler.c ****                     finsh_code_dword((long)&(var->value.long_value));
 1563              		.loc 1 414 0
 1564 077c 1148     		ldr	r0, .L167
 1565 077e 0268     		ldr	r2, [r0]
 1566 0780 2721     		movs	r1, #39
 1567 0782 1170     		strb	r1, [r2]
 1568 0784 0268     		ldr	r2, [r0]
 1569 0786 511C     		adds	r1, r2, #1
 1570 0788 0160     		str	r1, [r0]
 415:rt-thread/components/finsh/finsh_compiler.c **** 
 1571              		.loc 1 415 0
 1572 078a 1433     		adds	r3, r3, #20
 1573              	.LVL62:
 1574 078c 5370     		strb	r3, [r2, #1]
 1575 078e 0268     		ldr	r2, [r0]
 1576 0790 190A     		lsrs	r1, r3, #8
 1577 0792 5170     		strb	r1, [r2, #1]
 1578 0794 0268     		ldr	r2, [r0]
 1579 0796 190C     		lsrs	r1, r3, #16
ARM GAS  /tmp/cccwEpxI.s 			page 48


 1580 0798 9170     		strb	r1, [r2, #2]
 1581 079a 0268     		ldr	r2, [r0]
 1582 079c 1B0E     		lsrs	r3, r3, #24
 1583              	.LVL63:
 1584 079e D370     		strb	r3, [r2, #3]
 1585 07a0 0368     		ldr	r3, [r0]
 418:rt-thread/components/finsh/finsh_compiler.c ****                     finsh_code_dword(1);
 1586              		.loc 1 418 0
 1587 07a2 2422     		movs	r2, #36
 1588 07a4 1A71     		strb	r2, [r3, #4]
 419:rt-thread/components/finsh/finsh_compiler.c **** 
 1589              		.loc 1 419 0
 1590 07a6 0121     		movs	r1, #1
 1591 07a8 5971     		strb	r1, [r3, #5]
 1592 07aa 0021     		movs	r1, #0
 1593 07ac 9971     		strb	r1, [r3, #6]
 1594 07ae D971     		strb	r1, [r3, #7]
 1595 07b0 1972     		strb	r1, [r3, #8]
 422:rt-thread/components/finsh/finsh_compiler.c ****                     /* st_dword */
 1596              		.loc 1 422 0
 1597 07b2 0322     		movs	r2, #3
 1598 07b4 5A72     		strb	r2, [r3, #9]
 424:rt-thread/components/finsh/finsh_compiler.c **** 
 1599              		.loc 1 424 0
 1600 07b6 2A22     		movs	r2, #42
 1601 07b8 9A72     		strb	r2, [r3, #10]
 427:rt-thread/components/finsh/finsh_compiler.c **** 
 1602              		.loc 1 427 0
 1603 07ba 2F22     		movs	r2, #47
 1604 07bc DA72     		strb	r2, [r3, #11]
 1605 07be 0C33     		adds	r3, r3, #12
 1606 07c0 0360     		str	r3, [r0]
 429:rt-thread/components/finsh/finsh_compiler.c ****                 }
 1607              		.loc 1 429 0
 1608 07c2 6CE5     		b	.L60
 1609              	.L168:
 1610              		.align	2
 1611              	.L167:
 1612 07c4 00000000 		.word	finsh_compile_pc
 1613              	.L56:
 1614              	.LBE7:
 436:rt-thread/components/finsh/finsh_compiler.c ****             {
 1615              		.loc 1 436 0
 1616 07c8 2369     		ldr	r3, [r4, #16]
 1617 07ca 002B     		cmp	r3, #0
 1618 07cc 3FF467AD 		beq	.L60
 436:rt-thread/components/finsh/finsh_compiler.c ****             {
 1619              		.loc 1 436 0 is_stmt 0 discriminator 1
 1620 07d0 1A78     		ldrb	r2, [r3]	@ zero_extendqisi2
 1621 07d2 012A     		cmp	r2, #1
 1622 07d4 7FF463AD 		bne	.L60
 1623              	.LBB8:
 439:rt-thread/components/finsh/finsh_compiler.c **** 
 1624              		.loc 1 439 0 is_stmt 1
 1625 07d8 9B68     		ldr	r3, [r3, #8]
 1626              	.LVL64:
 444:rt-thread/components/finsh/finsh_compiler.c ****                 {
ARM GAS  /tmp/cccwEpxI.s 			page 49


 1627              		.loc 1 444 0
 1628 07da 6278     		ldrb	r2, [r4, #1]	@ zero_extendqisi2
 1629 07dc 022A     		cmp	r2, #2
 1630 07de 24D0     		beq	.L120
 1631 07e0 032A     		cmp	r2, #3
 1632 07e2 44D0     		beq	.L121
 1633 07e4 012A     		cmp	r2, #1
 1634 07e6 7FF45AAD 		bne	.L60
 451:rt-thread/components/finsh/finsh_compiler.c ****                     finsh_code_dword((long)&(var->value.char_value));
 1635              		.loc 1 451 0
 1636 07ea C74A     		ldr	r2, .L169
 1637 07ec 1168     		ldr	r1, [r2]
 1638 07ee 2520     		movs	r0, #37
 1639 07f0 0870     		strb	r0, [r1]
 1640 07f2 1168     		ldr	r1, [r2]
 1641 07f4 481C     		adds	r0, r1, #1
 1642 07f6 1060     		str	r0, [r2]
 452:rt-thread/components/finsh/finsh_compiler.c **** 
 1643              		.loc 1 452 0
 1644 07f8 1433     		adds	r3, r3, #20
 1645              	.LVL65:
 1646 07fa 4B70     		strb	r3, [r1, #1]
 1647 07fc 1168     		ldr	r1, [r2]
 1648 07fe 180A     		lsrs	r0, r3, #8
 1649 0800 4870     		strb	r0, [r1, #1]
 1650 0802 1168     		ldr	r1, [r2]
 1651 0804 180C     		lsrs	r0, r3, #16
 1652 0806 8870     		strb	r0, [r1, #2]
 1653 0808 1168     		ldr	r1, [r2]
 1654 080a 1B0E     		lsrs	r3, r3, #24
 1655              	.LVL66:
 1656 080c CB70     		strb	r3, [r1, #3]
 1657 080e 1368     		ldr	r3, [r2]
 455:rt-thread/components/finsh/finsh_compiler.c ****                     finsh_code_byte(1);
 1658              		.loc 1 455 0
 1659 0810 2221     		movs	r1, #34
 1660 0812 1971     		strb	r1, [r3, #4]
 456:rt-thread/components/finsh/finsh_compiler.c **** 
 1661              		.loc 1 456 0
 1662 0814 0121     		movs	r1, #1
 1663 0816 5971     		strb	r1, [r3, #5]
 459:rt-thread/components/finsh/finsh_compiler.c ****                     /* st_byte */
 1664              		.loc 1 459 0
 1665 0818 0421     		movs	r1, #4
 1666 081a 9971     		strb	r1, [r3, #6]
 461:rt-thread/components/finsh/finsh_compiler.c **** 
 1667              		.loc 1 461 0
 1668 081c 2821     		movs	r1, #40
 1669 081e D971     		strb	r1, [r3, #7]
 464:rt-thread/components/finsh/finsh_compiler.c **** 
 1670              		.loc 1 464 0
 1671 0820 2F21     		movs	r1, #47
 1672 0822 1972     		strb	r1, [r3, #8]
 1673 0824 0933     		adds	r3, r3, #9
 1674 0826 1360     		str	r3, [r2]
 466:rt-thread/components/finsh/finsh_compiler.c **** 
 1675              		.loc 1 466 0
ARM GAS  /tmp/cccwEpxI.s 			page 50


 1676 0828 39E5     		b	.L60
 1677              	.LVL67:
 1678              	.L120:
 473:rt-thread/components/finsh/finsh_compiler.c ****                     finsh_code_dword((long)&(var->value.short_value));
 1679              		.loc 1 473 0
 1680 082a B74A     		ldr	r2, .L169
 1681 082c 1168     		ldr	r1, [r2]
 1682 082e 2620     		movs	r0, #38
 1683 0830 0870     		strb	r0, [r1]
 1684 0832 1168     		ldr	r1, [r2]
 1685 0834 481C     		adds	r0, r1, #1
 1686 0836 1060     		str	r0, [r2]
 474:rt-thread/components/finsh/finsh_compiler.c **** 
 1687              		.loc 1 474 0
 1688 0838 1433     		adds	r3, r3, #20
 1689              	.LVL68:
 1690 083a 4B70     		strb	r3, [r1, #1]
 1691 083c 1168     		ldr	r1, [r2]
 1692 083e 180A     		lsrs	r0, r3, #8
 1693 0840 4870     		strb	r0, [r1, #1]
 1694 0842 1168     		ldr	r1, [r2]
 1695 0844 180C     		lsrs	r0, r3, #16
 1696 0846 8870     		strb	r0, [r1, #2]
 1697 0848 1168     		ldr	r1, [r2]
 1698 084a 1B0E     		lsrs	r3, r3, #24
 1699              	.LVL69:
 1700 084c CB70     		strb	r3, [r1, #3]
 1701 084e 1368     		ldr	r3, [r2]
 477:rt-thread/components/finsh/finsh_compiler.c ****                     finsh_code_word(1);
 1702              		.loc 1 477 0
 1703 0850 2321     		movs	r1, #35
 1704 0852 1971     		strb	r1, [r3, #4]
 478:rt-thread/components/finsh/finsh_compiler.c **** 
 1705              		.loc 1 478 0
 1706 0854 0120     		movs	r0, #1
 1707 0856 5871     		strb	r0, [r3, #5]
 1708 0858 0020     		movs	r0, #0
 1709 085a 9871     		strb	r0, [r3, #6]
 481:rt-thread/components/finsh/finsh_compiler.c ****                     /* st_word */
 1710              		.loc 1 481 0
 1711 085c 0521     		movs	r1, #5
 1712 085e D971     		strb	r1, [r3, #7]
 483:rt-thread/components/finsh/finsh_compiler.c **** 
 1713              		.loc 1 483 0
 1714 0860 2921     		movs	r1, #41
 1715 0862 1972     		strb	r1, [r3, #8]
 486:rt-thread/components/finsh/finsh_compiler.c **** 
 1716              		.loc 1 486 0
 1717 0864 2F21     		movs	r1, #47
 1718 0866 5972     		strb	r1, [r3, #9]
 1719 0868 0A33     		adds	r3, r3, #10
 1720 086a 1360     		str	r3, [r2]
 488:rt-thread/components/finsh/finsh_compiler.c **** 
 1721              		.loc 1 488 0
 1722 086c 17E5     		b	.L60
 1723              	.LVL70:
 1724              	.L121:
ARM GAS  /tmp/cccwEpxI.s 			page 51


 495:rt-thread/components/finsh/finsh_compiler.c ****                     finsh_code_dword((long)&(var->value.long_value));
 1725              		.loc 1 495 0
 1726 086e A648     		ldr	r0, .L169
 1727 0870 0268     		ldr	r2, [r0]
 1728 0872 2721     		movs	r1, #39
 1729 0874 1170     		strb	r1, [r2]
 1730 0876 0268     		ldr	r2, [r0]
 1731 0878 511C     		adds	r1, r2, #1
 1732 087a 0160     		str	r1, [r0]
 496:rt-thread/components/finsh/finsh_compiler.c **** 
 1733              		.loc 1 496 0
 1734 087c 1433     		adds	r3, r3, #20
 1735              	.LVL71:
 1736 087e 5370     		strb	r3, [r2, #1]
 1737 0880 0268     		ldr	r2, [r0]
 1738 0882 190A     		lsrs	r1, r3, #8
 1739 0884 5170     		strb	r1, [r2, #1]
 1740 0886 0268     		ldr	r2, [r0]
 1741 0888 190C     		lsrs	r1, r3, #16
 1742 088a 9170     		strb	r1, [r2, #2]
 1743 088c 0268     		ldr	r2, [r0]
 1744 088e 1B0E     		lsrs	r3, r3, #24
 1745              	.LVL72:
 1746 0890 D370     		strb	r3, [r2, #3]
 1747 0892 0368     		ldr	r3, [r0]
 499:rt-thread/components/finsh/finsh_compiler.c ****                     finsh_code_dword(1);
 1748              		.loc 1 499 0
 1749 0894 2422     		movs	r2, #36
 1750 0896 1A71     		strb	r2, [r3, #4]
 500:rt-thread/components/finsh/finsh_compiler.c **** 
 1751              		.loc 1 500 0
 1752 0898 0121     		movs	r1, #1
 1753 089a 5971     		strb	r1, [r3, #5]
 1754 089c 0021     		movs	r1, #0
 1755 089e 9971     		strb	r1, [r3, #6]
 1756 08a0 D971     		strb	r1, [r3, #7]
 1757 08a2 1972     		strb	r1, [r3, #8]
 503:rt-thread/components/finsh/finsh_compiler.c ****                     /* st_dword */
 1758              		.loc 1 503 0
 1759 08a4 0622     		movs	r2, #6
 1760 08a6 5A72     		strb	r2, [r3, #9]
 505:rt-thread/components/finsh/finsh_compiler.c **** 
 1761              		.loc 1 505 0
 1762 08a8 2A22     		movs	r2, #42
 1763 08aa 9A72     		strb	r2, [r3, #10]
 508:rt-thread/components/finsh/finsh_compiler.c **** 
 1764              		.loc 1 508 0
 1765 08ac 2F22     		movs	r2, #47
 1766 08ae DA72     		strb	r2, [r3, #11]
 1767 08b0 0C33     		adds	r3, r3, #12
 1768 08b2 0360     		str	r3, [r0]
 510:rt-thread/components/finsh/finsh_compiler.c ****                 }
 1769              		.loc 1 510 0
 1770 08b4 F3E4     		b	.L60
 1771              	.L57:
 1772              	.LBE8:
 517:rt-thread/components/finsh/finsh_compiler.c ****             {
ARM GAS  /tmp/cccwEpxI.s 			page 52


 1773              		.loc 1 517 0
 1774 08b6 2369     		ldr	r3, [r4, #16]
 1775 08b8 002B     		cmp	r3, #0
 1776 08ba 3FF4F0AC 		beq	.L60
 517:rt-thread/components/finsh/finsh_compiler.c ****             {
 1777              		.loc 1 517 0 is_stmt 0 discriminator 1
 1778 08be 1A78     		ldrb	r2, [r3]	@ zero_extendqisi2
 1779 08c0 012A     		cmp	r2, #1
 1780 08c2 7FF4ECAC 		bne	.L60
 1781              	.LBB9:
 520:rt-thread/components/finsh/finsh_compiler.c **** 
 1782              		.loc 1 520 0 is_stmt 1
 1783 08c6 9B68     		ldr	r3, [r3, #8]
 1784              	.LVL73:
 522:rt-thread/components/finsh/finsh_compiler.c ****                 {
 1785              		.loc 1 522 0
 1786 08c8 6278     		ldrb	r2, [r4, #1]	@ zero_extendqisi2
 1787 08ca 022A     		cmp	r2, #2
 1788 08cc 2CD0     		beq	.L123
 1789 08ce 032A     		cmp	r2, #3
 1790 08d0 55D0     		beq	.L124
 1791 08d2 012A     		cmp	r2, #1
 1792 08d4 7FF4E3AC 		bne	.L60
 530:rt-thread/components/finsh/finsh_compiler.c ****                     finsh_code_dword((long)&(var->value.char_value));
 1793              		.loc 1 530 0
 1794 08d8 8B48     		ldr	r0, .L169
 1795 08da 0268     		ldr	r2, [r0]
 1796 08dc 2421     		movs	r1, #36
 1797 08de 1170     		strb	r1, [r2]
 1798 08e0 0268     		ldr	r2, [r0]
 1799 08e2 511C     		adds	r1, r2, #1
 1800 08e4 0160     		str	r1, [r0]
 531:rt-thread/components/finsh/finsh_compiler.c **** 
 1801              		.loc 1 531 0
 1802 08e6 1433     		adds	r3, r3, #20
 1803              	.LVL74:
 1804 08e8 DFB2     		uxtb	r7, r3
 1805 08ea 5770     		strb	r7, [r2, #1]
 1806 08ec 0268     		ldr	r2, [r0]
 1807 08ee C3F30726 		ubfx	r6, r3, #8, #8
 1808 08f2 5670     		strb	r6, [r2, #1]
 1809 08f4 0268     		ldr	r2, [r0]
 1810 08f6 C3F30745 		ubfx	r5, r3, #16, #8
 1811 08fa 9570     		strb	r5, [r2, #2]
 1812 08fc 0168     		ldr	r1, [r0]
 1813 08fe 1A0E     		lsrs	r2, r3, #24
 1814 0900 CA70     		strb	r2, [r1, #3]
 1815 0902 0368     		ldr	r3, [r0]
 1816              	.LVL75:
 534:rt-thread/components/finsh/finsh_compiler.c ****                     finsh_code_dword((long)&(var->value.char_value));
 1817              		.loc 1 534 0
 1818 0904 2521     		movs	r1, #37
 1819 0906 1971     		strb	r1, [r3, #4]
 535:rt-thread/components/finsh/finsh_compiler.c **** 
 1820              		.loc 1 535 0
 1821 0908 5F71     		strb	r7, [r3, #5]
 1822 090a 9E71     		strb	r6, [r3, #6]
ARM GAS  /tmp/cccwEpxI.s 			page 53


 1823 090c DD71     		strb	r5, [r3, #7]
 1824 090e 1A72     		strb	r2, [r3, #8]
 538:rt-thread/components/finsh/finsh_compiler.c ****                     finsh_code_byte(1);
 1825              		.loc 1 538 0
 1826 0910 2222     		movs	r2, #34
 1827 0912 5A72     		strb	r2, [r3, #9]
 539:rt-thread/components/finsh/finsh_compiler.c **** 
 1828              		.loc 1 539 0
 1829 0914 0122     		movs	r2, #1
 1830 0916 9A72     		strb	r2, [r3, #10]
 542:rt-thread/components/finsh/finsh_compiler.c ****                     /* get byte */
 1831              		.loc 1 542 0
 1832 0918 DA72     		strb	r2, [r3, #11]
 544:rt-thread/components/finsh/finsh_compiler.c **** 
 1833              		.loc 1 544 0
 1834 091a 2822     		movs	r2, #40
 1835 091c 1A73     		strb	r2, [r3, #12]
 547:rt-thread/components/finsh/finsh_compiler.c ****                     break;
 1836              		.loc 1 547 0
 1837 091e 2B22     		movs	r2, #43
 1838 0920 5A73     		strb	r2, [r3, #13]
 1839 0922 0E33     		adds	r3, r3, #14
 1840 0924 0360     		str	r3, [r0]
 548:rt-thread/components/finsh/finsh_compiler.c **** 
 1841              		.loc 1 548 0
 1842 0926 BAE4     		b	.L60
 1843              	.LVL76:
 1844              	.L123:
 556:rt-thread/components/finsh/finsh_compiler.c ****                     finsh_code_dword((long)&(var->value.short_value));
 1845              		.loc 1 556 0
 1846 0928 7748     		ldr	r0, .L169
 1847 092a 0268     		ldr	r2, [r0]
 1848 092c 2421     		movs	r1, #36
 1849 092e 1170     		strb	r1, [r2]
 1850 0930 0268     		ldr	r2, [r0]
 1851 0932 511C     		adds	r1, r2, #1
 1852 0934 0160     		str	r1, [r0]
 557:rt-thread/components/finsh/finsh_compiler.c **** 
 1853              		.loc 1 557 0
 1854 0936 1433     		adds	r3, r3, #20
 1855              	.LVL77:
 1856 0938 DFB2     		uxtb	r7, r3
 1857 093a 5770     		strb	r7, [r2, #1]
 1858 093c 0268     		ldr	r2, [r0]
 1859 093e C3F30726 		ubfx	r6, r3, #8, #8
 1860 0942 5670     		strb	r6, [r2, #1]
 1861 0944 0268     		ldr	r2, [r0]
 1862 0946 C3F30745 		ubfx	r5, r3, #16, #8
 1863 094a 9570     		strb	r5, [r2, #2]
 1864 094c 0268     		ldr	r2, [r0]
 1865 094e 1B0E     		lsrs	r3, r3, #24
 1866              	.LVL78:
 1867 0950 D370     		strb	r3, [r2, #3]
 1868 0952 0168     		ldr	r1, [r0]
 560:rt-thread/components/finsh/finsh_compiler.c ****                     finsh_code_dword((long)&(var->value.short_value));
 1869              		.loc 1 560 0
 1870 0954 2622     		movs	r2, #38
ARM GAS  /tmp/cccwEpxI.s 			page 54


 1871 0956 0A71     		strb	r2, [r1, #4]
 561:rt-thread/components/finsh/finsh_compiler.c **** 
 1872              		.loc 1 561 0
 1873 0958 4F71     		strb	r7, [r1, #5]
 1874 095a 8E71     		strb	r6, [r1, #6]
 1875 095c CD71     		strb	r5, [r1, #7]
 1876 095e 0B72     		strb	r3, [r1, #8]
 564:rt-thread/components/finsh/finsh_compiler.c ****                     finsh_code_word(1);
 1877              		.loc 1 564 0
 1878 0960 2323     		movs	r3, #35
 1879 0962 4B72     		strb	r3, [r1, #9]
 565:rt-thread/components/finsh/finsh_compiler.c **** 
 1880              		.loc 1 565 0
 1881 0964 0122     		movs	r2, #1
 1882 0966 8A72     		strb	r2, [r1, #10]
 1883 0968 0022     		movs	r2, #0
 1884 096a CA72     		strb	r2, [r1, #11]
 568:rt-thread/components/finsh/finsh_compiler.c ****                     /* get byte */
 1885              		.loc 1 568 0
 1886 096c 0223     		movs	r3, #2
 1887 096e 0B73     		strb	r3, [r1, #12]
 570:rt-thread/components/finsh/finsh_compiler.c **** 
 1888              		.loc 1 570 0
 1889 0970 2923     		movs	r3, #41
 1890 0972 4B73     		strb	r3, [r1, #13]
 573:rt-thread/components/finsh/finsh_compiler.c ****                     break;
 1891              		.loc 1 573 0
 1892 0974 2B23     		movs	r3, #43
 1893 0976 8B73     		strb	r3, [r1, #14]
 1894 0978 0F31     		adds	r1, r1, #15
 1895 097a 0160     		str	r1, [r0]
 574:rt-thread/components/finsh/finsh_compiler.c **** 
 1896              		.loc 1 574 0
 1897 097c 8FE4     		b	.L60
 1898              	.LVL79:
 1899              	.L124:
 582:rt-thread/components/finsh/finsh_compiler.c ****                     finsh_code_dword((long)&(var->value.long_value));
 1900              		.loc 1 582 0
 1901 097e 624D     		ldr	r5, .L169
 1902 0980 2A68     		ldr	r2, [r5]
 1903 0982 2421     		movs	r1, #36
 1904 0984 1170     		strb	r1, [r2]
 1905 0986 2A68     		ldr	r2, [r5]
 1906 0988 501C     		adds	r0, r2, #1
 1907 098a 2860     		str	r0, [r5]
 583:rt-thread/components/finsh/finsh_compiler.c **** 
 1908              		.loc 1 583 0
 1909 098c 1433     		adds	r3, r3, #20
 1910              	.LVL80:
 1911 098e 5FFA83FE 		uxtb	lr, r3
 1912 0992 82F801E0 		strb	lr, [r2, #1]
 1913 0996 2A68     		ldr	r2, [r5]
 1914 0998 C3F30727 		ubfx	r7, r3, #8, #8
 1915 099c 5770     		strb	r7, [r2, #1]
 1916 099e 2A68     		ldr	r2, [r5]
 1917 09a0 C3F30746 		ubfx	r6, r3, #16, #8
 1918 09a4 9670     		strb	r6, [r2, #2]
ARM GAS  /tmp/cccwEpxI.s 			page 55


 1919 09a6 2A68     		ldr	r2, [r5]
 1920 09a8 1B0E     		lsrs	r3, r3, #24
 1921              	.LVL81:
 1922 09aa D370     		strb	r3, [r2, #3]
 1923 09ac 2868     		ldr	r0, [r5]
 586:rt-thread/components/finsh/finsh_compiler.c ****                     finsh_code_dword((long)&(var->value.long_value));
 1924              		.loc 1 586 0
 1925 09ae 2722     		movs	r2, #39
 1926 09b0 0271     		strb	r2, [r0, #4]
 587:rt-thread/components/finsh/finsh_compiler.c **** 
 1927              		.loc 1 587 0
 1928 09b2 80F805E0 		strb	lr, [r0, #5]
 1929 09b6 8771     		strb	r7, [r0, #6]
 1930 09b8 C671     		strb	r6, [r0, #7]
 1931 09ba 0372     		strb	r3, [r0, #8]
 590:rt-thread/components/finsh/finsh_compiler.c ****                     finsh_code_dword(1);
 1932              		.loc 1 590 0
 1933 09bc 4172     		strb	r1, [r0, #9]
 591:rt-thread/components/finsh/finsh_compiler.c **** 
 1934              		.loc 1 591 0
 1935 09be 0123     		movs	r3, #1
 1936 09c0 8372     		strb	r3, [r0, #10]
 1937 09c2 0021     		movs	r1, #0
 1938 09c4 C172     		strb	r1, [r0, #11]
 1939 09c6 0173     		strb	r1, [r0, #12]
 1940 09c8 4173     		strb	r1, [r0, #13]
 594:rt-thread/components/finsh/finsh_compiler.c ****                     /* get byte */
 1941              		.loc 1 594 0
 1942 09ca 0323     		movs	r3, #3
 1943 09cc 8373     		strb	r3, [r0, #14]
 596:rt-thread/components/finsh/finsh_compiler.c **** 
 1944              		.loc 1 596 0
 1945 09ce 2A23     		movs	r3, #42
 1946 09d0 C373     		strb	r3, [r0, #15]
 599:rt-thread/components/finsh/finsh_compiler.c ****                     break;
 1947              		.loc 1 599 0
 1948 09d2 2B23     		movs	r3, #43
 1949 09d4 0374     		strb	r3, [r0, #16]
 1950 09d6 1130     		adds	r0, r0, #17
 1951 09d8 2860     		str	r0, [r5]
 600:rt-thread/components/finsh/finsh_compiler.c ****                 }
 1952              		.loc 1 600 0
 1953 09da 60E4     		b	.L60
 1954              	.L58:
 1955              	.LBE9:
 607:rt-thread/components/finsh/finsh_compiler.c ****             {
 1956              		.loc 1 607 0
 1957 09dc 2369     		ldr	r3, [r4, #16]
 1958 09de 002B     		cmp	r3, #0
 1959 09e0 3FF45DAC 		beq	.L60
 607:rt-thread/components/finsh/finsh_compiler.c ****             {
 1960              		.loc 1 607 0 is_stmt 0 discriminator 1
 1961 09e4 1A78     		ldrb	r2, [r3]	@ zero_extendqisi2
 1962 09e6 012A     		cmp	r2, #1
 1963 09e8 7FF459AC 		bne	.L60
 1964              	.LBB10:
 610:rt-thread/components/finsh/finsh_compiler.c **** 
ARM GAS  /tmp/cccwEpxI.s 			page 56


 1965              		.loc 1 610 0 is_stmt 1
 1966 09ec 9B68     		ldr	r3, [r3, #8]
 1967              	.LVL82:
 612:rt-thread/components/finsh/finsh_compiler.c ****                 {
 1968              		.loc 1 612 0
 1969 09ee 6278     		ldrb	r2, [r4, #1]	@ zero_extendqisi2
 1970 09f0 022A     		cmp	r2, #2
 1971 09f2 2DD0     		beq	.L126
 1972 09f4 032A     		cmp	r2, #3
 1973 09f6 57D0     		beq	.L127
 1974 09f8 012A     		cmp	r2, #1
 1975 09fa 7FF450AC 		bne	.L60
 620:rt-thread/components/finsh/finsh_compiler.c ****                     finsh_code_dword((long)&(var->value.char_value));
 1976              		.loc 1 620 0
 1977 09fe 4248     		ldr	r0, .L169
 1978 0a00 0268     		ldr	r2, [r0]
 1979 0a02 2421     		movs	r1, #36
 1980 0a04 1170     		strb	r1, [r2]
 1981 0a06 0268     		ldr	r2, [r0]
 1982 0a08 511C     		adds	r1, r2, #1
 1983 0a0a 0160     		str	r1, [r0]
 621:rt-thread/components/finsh/finsh_compiler.c **** 
 1984              		.loc 1 621 0
 1985 0a0c 1433     		adds	r3, r3, #20
 1986              	.LVL83:
 1987 0a0e DFB2     		uxtb	r7, r3
 1988 0a10 5770     		strb	r7, [r2, #1]
 1989 0a12 0268     		ldr	r2, [r0]
 1990 0a14 C3F30726 		ubfx	r6, r3, #8, #8
 1991 0a18 5670     		strb	r6, [r2, #1]
 1992 0a1a 0268     		ldr	r2, [r0]
 1993 0a1c C3F30745 		ubfx	r5, r3, #16, #8
 1994 0a20 9570     		strb	r5, [r2, #2]
 1995 0a22 0168     		ldr	r1, [r0]
 1996 0a24 1A0E     		lsrs	r2, r3, #24
 1997 0a26 CA70     		strb	r2, [r1, #3]
 1998 0a28 0368     		ldr	r3, [r0]
 1999              	.LVL84:
 624:rt-thread/components/finsh/finsh_compiler.c ****                     finsh_code_dword((long)&(var->value.char_value));
 2000              		.loc 1 624 0
 2001 0a2a 2521     		movs	r1, #37
 2002 0a2c 1971     		strb	r1, [r3, #4]
 625:rt-thread/components/finsh/finsh_compiler.c **** 
 2003              		.loc 1 625 0
 2004 0a2e 5F71     		strb	r7, [r3, #5]
 2005 0a30 9E71     		strb	r6, [r3, #6]
 2006 0a32 DD71     		strb	r5, [r3, #7]
 2007 0a34 1A72     		strb	r2, [r3, #8]
 628:rt-thread/components/finsh/finsh_compiler.c ****                     finsh_code_byte(1);
 2008              		.loc 1 628 0
 2009 0a36 2222     		movs	r2, #34
 2010 0a38 5A72     		strb	r2, [r3, #9]
 629:rt-thread/components/finsh/finsh_compiler.c **** 
 2011              		.loc 1 629 0
 2012 0a3a 0122     		movs	r2, #1
 2013 0a3c 9A72     		strb	r2, [r3, #10]
 632:rt-thread/components/finsh/finsh_compiler.c ****                     /* get byte */
ARM GAS  /tmp/cccwEpxI.s 			page 57


 2014              		.loc 1 632 0
 2015 0a3e 0422     		movs	r2, #4
 2016 0a40 DA72     		strb	r2, [r3, #11]
 634:rt-thread/components/finsh/finsh_compiler.c **** 
 2017              		.loc 1 634 0
 2018 0a42 2822     		movs	r2, #40
 2019 0a44 1A73     		strb	r2, [r3, #12]
 637:rt-thread/components/finsh/finsh_compiler.c ****                     break;
 2020              		.loc 1 637 0
 2021 0a46 2B22     		movs	r2, #43
 2022 0a48 5A73     		strb	r2, [r3, #13]
 2023 0a4a 0E33     		adds	r3, r3, #14
 2024 0a4c 0360     		str	r3, [r0]
 638:rt-thread/components/finsh/finsh_compiler.c **** 
 2025              		.loc 1 638 0
 2026 0a4e 26E4     		b	.L60
 2027              	.LVL85:
 2028              	.L126:
 646:rt-thread/components/finsh/finsh_compiler.c ****                     finsh_code_dword((long)&(var->value.short_value));
 2029              		.loc 1 646 0
 2030 0a50 2D48     		ldr	r0, .L169
 2031 0a52 0268     		ldr	r2, [r0]
 2032 0a54 2421     		movs	r1, #36
 2033 0a56 1170     		strb	r1, [r2]
 2034 0a58 0268     		ldr	r2, [r0]
 2035 0a5a 511C     		adds	r1, r2, #1
 2036 0a5c 0160     		str	r1, [r0]
 647:rt-thread/components/finsh/finsh_compiler.c **** 
 2037              		.loc 1 647 0
 2038 0a5e 1433     		adds	r3, r3, #20
 2039              	.LVL86:
 2040 0a60 DFB2     		uxtb	r7, r3
 2041 0a62 5770     		strb	r7, [r2, #1]
 2042 0a64 0268     		ldr	r2, [r0]
 2043 0a66 C3F30726 		ubfx	r6, r3, #8, #8
 2044 0a6a 5670     		strb	r6, [r2, #1]
 2045 0a6c 0268     		ldr	r2, [r0]
 2046 0a6e C3F30745 		ubfx	r5, r3, #16, #8
 2047 0a72 9570     		strb	r5, [r2, #2]
 2048 0a74 0268     		ldr	r2, [r0]
 2049 0a76 1B0E     		lsrs	r3, r3, #24
 2050              	.LVL87:
 2051 0a78 D370     		strb	r3, [r2, #3]
 2052 0a7a 0168     		ldr	r1, [r0]
 650:rt-thread/components/finsh/finsh_compiler.c ****                     finsh_code_dword((long)&(var->value.short_value));
 2053              		.loc 1 650 0
 2054 0a7c 2622     		movs	r2, #38
 2055 0a7e 0A71     		strb	r2, [r1, #4]
 651:rt-thread/components/finsh/finsh_compiler.c **** 
 2056              		.loc 1 651 0
 2057 0a80 4F71     		strb	r7, [r1, #5]
 2058 0a82 8E71     		strb	r6, [r1, #6]
 2059 0a84 CD71     		strb	r5, [r1, #7]
 2060 0a86 0B72     		strb	r3, [r1, #8]
 654:rt-thread/components/finsh/finsh_compiler.c ****                     finsh_code_word(1);
 2061              		.loc 1 654 0
 2062 0a88 2323     		movs	r3, #35
ARM GAS  /tmp/cccwEpxI.s 			page 58


 2063 0a8a 4B72     		strb	r3, [r1, #9]
 655:rt-thread/components/finsh/finsh_compiler.c **** 
 2064              		.loc 1 655 0
 2065 0a8c 0122     		movs	r2, #1
 2066 0a8e 8A72     		strb	r2, [r1, #10]
 2067 0a90 0022     		movs	r2, #0
 2068 0a92 CA72     		strb	r2, [r1, #11]
 658:rt-thread/components/finsh/finsh_compiler.c ****                     /* get byte */
 2069              		.loc 1 658 0
 2070 0a94 0523     		movs	r3, #5
 2071 0a96 0B73     		strb	r3, [r1, #12]
 660:rt-thread/components/finsh/finsh_compiler.c **** 
 2072              		.loc 1 660 0
 2073 0a98 2923     		movs	r3, #41
 2074 0a9a 4B73     		strb	r3, [r1, #13]
 663:rt-thread/components/finsh/finsh_compiler.c ****                     break;
 2075              		.loc 1 663 0
 2076 0a9c 2B23     		movs	r3, #43
 2077 0a9e 8B73     		strb	r3, [r1, #14]
 2078 0aa0 0F31     		adds	r1, r1, #15
 2079 0aa2 0160     		str	r1, [r0]
 664:rt-thread/components/finsh/finsh_compiler.c **** 
 2080              		.loc 1 664 0
 2081 0aa4 FFF7FBBB 		b	.L60
 2082              	.LVL88:
 2083              	.L127:
 672:rt-thread/components/finsh/finsh_compiler.c ****                     finsh_code_dword((long)&(var->value.long_value));
 2084              		.loc 1 672 0
 2085 0aa8 174D     		ldr	r5, .L169
 2086 0aaa 2A68     		ldr	r2, [r5]
 2087 0aac 2421     		movs	r1, #36
 2088 0aae 1170     		strb	r1, [r2]
 2089 0ab0 2A68     		ldr	r2, [r5]
 2090 0ab2 501C     		adds	r0, r2, #1
 2091 0ab4 2860     		str	r0, [r5]
 673:rt-thread/components/finsh/finsh_compiler.c **** 
 2092              		.loc 1 673 0
 2093 0ab6 1433     		adds	r3, r3, #20
 2094              	.LVL89:
 2095 0ab8 5FFA83FE 		uxtb	lr, r3
 2096 0abc 82F801E0 		strb	lr, [r2, #1]
 2097 0ac0 2A68     		ldr	r2, [r5]
 2098 0ac2 C3F30727 		ubfx	r7, r3, #8, #8
 2099 0ac6 5770     		strb	r7, [r2, #1]
 2100 0ac8 2A68     		ldr	r2, [r5]
 2101 0aca C3F30746 		ubfx	r6, r3, #16, #8
 2102 0ace 9670     		strb	r6, [r2, #2]
 2103 0ad0 2A68     		ldr	r2, [r5]
 2104 0ad2 1B0E     		lsrs	r3, r3, #24
 2105              	.LVL90:
 2106 0ad4 D370     		strb	r3, [r2, #3]
 2107 0ad6 2868     		ldr	r0, [r5]
 676:rt-thread/components/finsh/finsh_compiler.c ****                     finsh_code_dword((long)&(var->value.long_value));
 2108              		.loc 1 676 0
 2109 0ad8 2722     		movs	r2, #39
 2110 0ada 0271     		strb	r2, [r0, #4]
 677:rt-thread/components/finsh/finsh_compiler.c **** 
ARM GAS  /tmp/cccwEpxI.s 			page 59


 2111              		.loc 1 677 0
 2112 0adc 80F805E0 		strb	lr, [r0, #5]
 2113 0ae0 8771     		strb	r7, [r0, #6]
 2114 0ae2 C671     		strb	r6, [r0, #7]
 2115 0ae4 0372     		strb	r3, [r0, #8]
 680:rt-thread/components/finsh/finsh_compiler.c ****                     finsh_code_dword(1);
 2116              		.loc 1 680 0
 2117 0ae6 4172     		strb	r1, [r0, #9]
 681:rt-thread/components/finsh/finsh_compiler.c **** 
 2118              		.loc 1 681 0
 2119 0ae8 0123     		movs	r3, #1
 2120 0aea 8372     		strb	r3, [r0, #10]
 2121 0aec 0021     		movs	r1, #0
 2122 0aee C172     		strb	r1, [r0, #11]
 2123 0af0 0173     		strb	r1, [r0, #12]
 2124 0af2 4173     		strb	r1, [r0, #13]
 684:rt-thread/components/finsh/finsh_compiler.c ****                     /* get byte */
 2125              		.loc 1 684 0
 2126 0af4 0623     		movs	r3, #6
 2127 0af6 8373     		strb	r3, [r0, #14]
 686:rt-thread/components/finsh/finsh_compiler.c **** 
 2128              		.loc 1 686 0
 2129 0af8 2A23     		movs	r3, #42
 2130 0afa C373     		strb	r3, [r0, #15]
 689:rt-thread/components/finsh/finsh_compiler.c ****                     break;
 2131              		.loc 1 689 0
 2132 0afc 2B23     		movs	r3, #43
 2133 0afe 0374     		strb	r3, [r0, #16]
 2134 0b00 1130     		adds	r0, r0, #17
 2135 0b02 2860     		str	r0, [r5]
 690:rt-thread/components/finsh/finsh_compiler.c ****                 }
 2136              		.loc 1 690 0
 2137 0b04 FFF7CBBB 		b	.L60
 2138              	.L170:
 2139              		.align	2
 2140              	.L169:
 2141 0b08 00000000 		.word	finsh_compile_pc
 2142              	.L61:
 2143              	.LBE10:
 696:rt-thread/components/finsh/finsh_compiler.c ****             break;
 2144              		.loc 1 696 0
 2145 0b0c 1E4B     		ldr	r3, .L171
 2146 0b0e 1968     		ldr	r1, [r3]
 2147 0b10 0022     		movs	r2, #0
 2148 0b12 0A70     		strb	r2, [r1]
 2149 0b14 1968     		ldr	r1, [r3]
 2150 0b16 4A70     		strb	r2, [r1, #1]
 2151 0b18 1968     		ldr	r1, [r3]
 2152 0b1a 8A70     		strb	r2, [r1, #2]
 2153 0b1c 1968     		ldr	r1, [r3]
 2154 0b1e CA70     		strb	r2, [r1, #3]
 2155 0b20 1A68     		ldr	r2, [r3]
 2156 0b22 0432     		adds	r2, r2, #4
 2157 0b24 1A60     		str	r2, [r3]
 697:rt-thread/components/finsh/finsh_compiler.c **** 
 2158              		.loc 1 697 0
 2159 0b26 FFF7BABB 		b	.L60
ARM GAS  /tmp/cccwEpxI.s 			page 60


 2160              	.L59:
 700:rt-thread/components/finsh/finsh_compiler.c ****             {
 2161              		.loc 1 700 0
 2162 0b2a A378     		ldrb	r3, [r4, #2]	@ zero_extendqisi2
 2163 0b2c 13F0080F 		tst	r3, #8
 2164 0b30 7FF4B5AB 		bne	.L60
 706:rt-thread/components/finsh/finsh_compiler.c ****                 {
 2165              		.loc 1 706 0
 2166 0b34 6378     		ldrb	r3, [r4, #1]	@ zero_extendqisi2
 2167 0b36 022B     		cmp	r3, #2
 2168 0b38 0DD0     		beq	.L129
 2169 0b3a 032B     		cmp	r3, #3
 2170 0b3c 14D0     		beq	.L130
 2171 0b3e 012B     		cmp	r3, #1
 2172 0b40 7FF4ADAB 		bne	.L60
 709:rt-thread/components/finsh/finsh_compiler.c ****                     break;
 2173              		.loc 1 709 0
 2174 0b44 104B     		ldr	r3, .L171
 2175 0b46 1A68     		ldr	r2, [r3]
 2176 0b48 2D21     		movs	r1, #45
 2177 0b4a 1170     		strb	r1, [r2]
 2178 0b4c 1A68     		ldr	r2, [r3]
 2179 0b4e 0132     		adds	r2, r2, #1
 2180 0b50 1A60     		str	r2, [r3]
 710:rt-thread/components/finsh/finsh_compiler.c ****                 case FINSH_DATA_TYPE_WORD:
 2181              		.loc 1 710 0
 2182 0b52 FFF7A4BB 		b	.L60
 2183              	.L129:
 712:rt-thread/components/finsh/finsh_compiler.c ****                     break;
 2184              		.loc 1 712 0
 2185 0b56 0C4B     		ldr	r3, .L171
 2186 0b58 1A68     		ldr	r2, [r3]
 2187 0b5a 2E21     		movs	r1, #46
 2188 0b5c 1170     		strb	r1, [r2]
 2189 0b5e 1A68     		ldr	r2, [r3]
 2190 0b60 0132     		adds	r2, r2, #1
 2191 0b62 1A60     		str	r2, [r3]
 713:rt-thread/components/finsh/finsh_compiler.c ****                 case FINSH_DATA_TYPE_DWORD:
 2192              		.loc 1 713 0
 2193 0b64 FFF79BBB 		b	.L60
 2194              	.L130:
 715:rt-thread/components/finsh/finsh_compiler.c ****                     break;
 2195              		.loc 1 715 0
 2196 0b68 074B     		ldr	r3, .L171
 2197 0b6a 1A68     		ldr	r2, [r3]
 2198 0b6c 2F21     		movs	r1, #47
 2199 0b6e 1170     		strb	r1, [r2]
 2200 0b70 1A68     		ldr	r2, [r3]
 2201 0b72 0132     		adds	r2, r2, #1
 2202 0b74 1A60     		str	r2, [r3]
 716:rt-thread/components/finsh/finsh_compiler.c ****                 default:
 2203              		.loc 1 716 0
 2204 0b76 FFF792BB 		b	.L60
 2205              	.L36:
 728:rt-thread/components/finsh/finsh_compiler.c ****             break;
 2206              		.loc 1 728 0
 2207 0b7a 0820     		movs	r0, #8
ARM GAS  /tmp/cccwEpxI.s 			page 61


 2208 0b7c FFF7FEFF 		bl	finsh_error_set
 2209              	.LVL91:
 729:rt-thread/components/finsh/finsh_compiler.c ****         }
 2210              		.loc 1 729 0
 2211 0b80 FFF78DBB 		b	.L60
 2212              	.LVL92:
 2213              	.L135:
 2214              	.LCFI3:
 2215              		.cfi_def_cfa_offset 0
 2216              		.cfi_restore 3
 2217              		.cfi_restore 4
 2218              		.cfi_restore 5
 2219              		.cfi_restore 6
 2220              		.cfi_restore 7
 2221              		.cfi_restore 14
 738:rt-thread/components/finsh/finsh_compiler.c **** 
 2222              		.loc 1 738 0
 2223 0b84 0020     		movs	r0, #0
 2224              	.LVL93:
 2225 0b86 7047     		bx	lr
 2226              	.L172:
 2227              		.align	2
 2228              	.L171:
 2229 0b88 00000000 		.word	finsh_compile_pc
 2230              		.cfi_endproc
 2231              	.LFE16:
 2233              		.section	.text.finsh_compiler_run,"ax",%progbits
 2234              		.align	1
 2235              		.global	finsh_compiler_run
 2236              		.syntax unified
 2237              		.thumb
 2238              		.thumb_func
 2239              		.fpu fpv4-sp-d16
 2241              	finsh_compiler_run:
 2242              	.LFB18:
 883:rt-thread/components/finsh/finsh_compiler.c **** 
 884:rt-thread/components/finsh/finsh_compiler.c **** int finsh_compiler_run(struct finsh_node* node)
 885:rt-thread/components/finsh/finsh_compiler.c **** {
 2243              		.loc 1 885 0
 2244              		.cfi_startproc
 2245              		@ args = 0, pretend = 0, frame = 0
 2246              		@ frame_needed = 0, uses_anonymous_args = 0
 2247              	.LVL94:
 2248 0000 38B5     		push	{r3, r4, r5, lr}
 2249              	.LCFI4:
 2250              		.cfi_def_cfa_offset 16
 2251              		.cfi_offset 3, -16
 2252              		.cfi_offset 4, -12
 2253              		.cfi_offset 5, -8
 2254              		.cfi_offset 14, -4
 2255 0002 0446     		mov	r4, r0
 886:rt-thread/components/finsh/finsh_compiler.c ****     struct finsh_node* sibling;
 887:rt-thread/components/finsh/finsh_compiler.c **** 
 888:rt-thread/components/finsh/finsh_compiler.c ****     /* type check */
 889:rt-thread/components/finsh/finsh_compiler.c ****     finsh_type_check(node, FINSH_NODE_VALUE);
 2256              		.loc 1 889 0
 2257 0004 0021     		movs	r1, #0
ARM GAS  /tmp/cccwEpxI.s 			page 62


 2258 0006 FFF7FEFF 		bl	finsh_type_check
 2259              	.LVL95:
 890:rt-thread/components/finsh/finsh_compiler.c **** 
 891:rt-thread/components/finsh/finsh_compiler.c ****     /* clean text segment and vm stack */
 892:rt-thread/components/finsh/finsh_compiler.c ****     memset(&text_segment[0], 0, sizeof(text_segment));
 2260              		.loc 1 892 0
 2261 000a 114D     		ldr	r5, .L179
 2262 000c 8022     		movs	r2, #128
 2263 000e 0021     		movs	r1, #0
 2264 0010 2846     		mov	r0, r5
 2265 0012 FFF7FEFF 		bl	memset
 2266              	.LVL96:
 893:rt-thread/components/finsh/finsh_compiler.c ****     memset(&finsh_vm_stack[0], 0, sizeof(finsh_vm_stack[0]));
 2267              		.loc 1 893 0
 2268 0016 0F4B     		ldr	r3, .L179+4
 2269 0018 0022     		movs	r2, #0
 2270 001a 1A60     		str	r2, [r3]
 894:rt-thread/components/finsh/finsh_compiler.c **** 
 895:rt-thread/components/finsh/finsh_compiler.c ****     /* reset compile stack pointer and pc */
 896:rt-thread/components/finsh/finsh_compiler.c ****     finsh_compile_sp = &finsh_vm_stack[0];
 2271              		.loc 1 896 0
 2272 001c 0E4A     		ldr	r2, .L179+8
 2273 001e 1360     		str	r3, [r2]
 897:rt-thread/components/finsh/finsh_compiler.c ****     finsh_compile_pc = &text_segment[0];
 2274              		.loc 1 897 0
 2275 0020 0E4B     		ldr	r3, .L179+12
 2276 0022 1D60     		str	r5, [r3]
 2277              	.LVL97:
 898:rt-thread/components/finsh/finsh_compiler.c **** 
 899:rt-thread/components/finsh/finsh_compiler.c ****     /* compile node */
 900:rt-thread/components/finsh/finsh_compiler.c ****     sibling = node;
 901:rt-thread/components/finsh/finsh_compiler.c ****     while (sibling != NULL)
 2278              		.loc 1 901 0
 2279 0024 00E0     		b	.L174
 2280              	.LVL98:
 2281              	.L175:
 885:rt-thread/components/finsh/finsh_compiler.c ****     struct finsh_node* sibling;
 2282              		.loc 1 885 0
 2283 0026 2C46     		mov	r4, r5
 2284              	.LVL99:
 2285              	.L174:
 2286              		.loc 1 901 0
 2287 0028 7CB1     		cbz	r4, .L178
 2288              	.LVL100:
 2289              	.LBB11:
 902:rt-thread/components/finsh/finsh_compiler.c ****     {
 903:rt-thread/components/finsh/finsh_compiler.c ****         struct finsh_node* current_node;
 904:rt-thread/components/finsh/finsh_compiler.c ****         current_node = sibling;
 905:rt-thread/components/finsh/finsh_compiler.c **** 
 906:rt-thread/components/finsh/finsh_compiler.c ****         /* get sibling node */
 907:rt-thread/components/finsh/finsh_compiler.c ****         sibling = current_node->sibling;
 2290              		.loc 1 907 0
 2291 002a E568     		ldr	r5, [r4, #12]
 2292              	.LVL101:
 908:rt-thread/components/finsh/finsh_compiler.c **** 
 909:rt-thread/components/finsh/finsh_compiler.c ****         /* clean sibling node */
 910:rt-thread/components/finsh/finsh_compiler.c ****         current_node->sibling = NULL;
ARM GAS  /tmp/cccwEpxI.s 			page 63


 2293              		.loc 1 910 0
 2294 002c 0023     		movs	r3, #0
 2295 002e E360     		str	r3, [r4, #12]
 911:rt-thread/components/finsh/finsh_compiler.c ****         finsh_compile(current_node);
 2296              		.loc 1 911 0
 2297 0030 2046     		mov	r0, r4
 2298 0032 FFF7FEFF 		bl	finsh_compile
 2299              	.LVL102:
 912:rt-thread/components/finsh/finsh_compiler.c **** 
 913:rt-thread/components/finsh/finsh_compiler.c ****         /* pop current value */
 914:rt-thread/components/finsh/finsh_compiler.c ****         if (sibling != NULL) finsh_code_byte(FINSH_OP_POP);
 2300              		.loc 1 914 0
 2301 0036 002D     		cmp	r5, #0
 2302 0038 F5D0     		beq	.L175
 2303              		.loc 1 914 0 is_stmt 0 discriminator 1
 2304 003a 084B     		ldr	r3, .L179+12
 2305 003c 1A68     		ldr	r2, [r3]
 2306 003e 2B21     		movs	r1, #43
 2307 0040 1170     		strb	r1, [r2]
 2308 0042 1A68     		ldr	r2, [r3]
 2309 0044 0132     		adds	r2, r2, #1
 2310 0046 1A60     		str	r2, [r3]
 2311 0048 EDE7     		b	.L175
 2312              	.LVL103:
 2313              	.L178:
 2314              	.LBE11:
 915:rt-thread/components/finsh/finsh_compiler.c ****     }
 916:rt-thread/components/finsh/finsh_compiler.c **** 
 917:rt-thread/components/finsh/finsh_compiler.c ****     return 0;
 918:rt-thread/components/finsh/finsh_compiler.c **** }
 2315              		.loc 1 918 0 is_stmt 1
 2316 004a 0020     		movs	r0, #0
 2317 004c 38BD     		pop	{r3, r4, r5, pc}
 2318              	.LVL104:
 2319              	.L180:
 2320 004e 00BF     		.align	2
 2321              	.L179:
 2322 0050 00000000 		.word	text_segment
 2323 0054 00000000 		.word	finsh_vm_stack
 2324 0058 00000000 		.word	finsh_compile_sp
 2325 005c 00000000 		.word	finsh_compile_pc
 2326              		.cfi_endproc
 2327              	.LFE18:
 2329              		.comm	finsh_compile_pc,4,4
 2330              		.comm	finsh_compile_sp,4,4
 2331              		.text
 2332              	.Letext0:
 2333              		.file 2 "rt-thread/include/rtdef.h"
 2334              		.file 3 "/opt/gcc-arm-none-eabi-6-2017-q2-update/arm-none-eabi/include/machine/_default_types.h"
 2335              		.file 4 "/opt/gcc-arm-none-eabi-6-2017-q2-update/arm-none-eabi/include/sys/lock.h"
 2336              		.file 5 "/opt/gcc-arm-none-eabi-6-2017-q2-update/arm-none-eabi/include/sys/_types.h"
 2337              		.file 6 "/opt/gcc-arm-none-eabi-6-2017-q2-update/lib/gcc/arm-none-eabi/6.3.1/include/stddef.h"
 2338              		.file 7 "/opt/gcc-arm-none-eabi-6-2017-q2-update/arm-none-eabi/include/sys/reent.h"
 2339              		.file 8 "/opt/gcc-arm-none-eabi-6-2017-q2-update/arm-none-eabi/include/sys/_stdint.h"
 2340              		.file 9 "/opt/gcc-arm-none-eabi-6-2017-q2-update/arm-none-eabi/include/time.h"
 2341              		.file 10 "/opt/gcc-arm-none-eabi-6-2017-q2-update/arm-none-eabi/include/sys/errno.h"
 2342              		.file 11 "rt-thread/include/rtthread.h"
ARM GAS  /tmp/cccwEpxI.s 			page 64


 2343              		.file 12 "rt-thread/components/finsh/finsh_api.h"
 2344              		.file 13 "/opt/gcc-arm-none-eabi-6-2017-q2-update/arm-none-eabi/include/ctype.h"
 2345              		.file 14 "/opt/gcc-arm-none-eabi-6-2017-q2-update/arm-none-eabi/include/stdlib.h"
 2346              		.file 15 "rt-thread/components/finsh/finsh.h"
 2347              		.file 16 "rt-thread/components/finsh/finsh_var.h"
 2348              		.file 17 "rt-thread/components/finsh/finsh_vm.h"
 2349              		.file 18 "rt-thread/components/finsh/finsh_ops.h"
 2350              		.file 19 "rt-thread/components/finsh/finsh_error.h"
ARM GAS  /tmp/cccwEpxI.s 			page 65

